(dp0
S'Use_limited_entries'
p1
I00
sS'events_used'
p2
I18832160
sS'quark_Flavour_str'
p3
S'Quark_pdgId'
p4
sS'mc_Pt_str'
p5
S'Jet_mcPt'
p6
sS'DG_rel_weight'
p7
F0.7
sS'SBF_n_bins'
p8
(dp9
S'b'
p10
(lp11
(lp12
I100
aI100
aI100
aI100
aI100
aI100
aI100
aI100
aI100
aI100
aI100
aI100
aI100
aI100
aI100
aI100
aI100
aI100
aI100
aI100
aI100
aI100
aI100
aI100
aI100
aI100
aI100
aI100
aI100
aI100
aI100
aI100
aI100
aI100
aI100
aI100
aI100
aI100
aI100
aI100
aI100
aI100
aI100
aI100
aI100
aI100
aI100
aI100
aI100
aI100
aI100
aI100
aI100
aI100
aI100
aI100
aI100
aI100
aa(lp13
I100
aI100
aI100
aI100
aI100
aI100
aI100
aI100
aI100
aI100
aI100
aI100
aI100
aI100
aI100
aI100
aI100
aI100
aI100
aI100
aI100
aI100
aI100
aI100
aI100
aI100
aI100
aI100
aI100
aI100
aI100
aI100
aI100
aI100
aI100
aI100
aI100
aI100
aI100
aI100
aI100
aI100
aI100
aI100
aI100
aI100
aI100
aI100
aI100
aI100
aI100
aI100
aI100
aI100
aI100
aI100
aI100
aI100
aasS'l'
p14
(lp15
(lp16
I100
aI100
aI100
aI100
aI100
aI100
aI100
aI100
aI100
aI100
aI100
aI100
aI100
aI100
aI100
aI100
aI100
aI100
aI100
aI100
aI100
aI100
aI100
aI100
aI100
aI100
aI100
aI100
aI100
aI100
aI100
aI100
aI100
aI100
aI100
aI100
aI100
aI100
aI100
aI100
aI100
aI100
aI100
aI100
aI100
aI100
aI100
aI100
aI100
aI100
aI100
aI100
aI100
aI100
aI100
aI100
aI100
aI100
aa(lp17
I100
aI100
aI100
aI100
aI100
aI100
aI100
aI100
aI100
aI100
aI100
aI100
aI100
aI100
aI100
aI100
aI100
aI100
aI100
aI100
aI100
aI100
aI100
aI100
aI100
aI100
aI100
aI100
aI100
aI100
aI100
aI100
aI100
aI100
aI100
aI100
aI100
aI100
aI100
aI100
aI100
aI100
aI100
aI100
aI100
aI100
aI100
aI100
aI100
aI100
aI100
aI100
aI100
aI100
aI100
aI100
aI100
aI100
aassS'selection_string'
p18
(dp19
g10
S'abs(Quark_pdgId)==5 && abs(Quark_eta)>=1.0 && abs(Quark_eta)<=2.5 && abs(Quark_pt)>=30.0 && abs(Quark_pt)<=300.0'
p20
sg14
S'abs(Quark_pdgId)!=5 && abs(Quark_eta)>=1.0 && abs(Quark_eta)<=2.5 && abs(Quark_pt)>=30.0 && abs(Quark_pt)<=300.0'
p21
ssS'Standard_SG_func'
p22
(iTFClasses
function
p23
(dp24
S'par_values'
p25
(lp26
sS'par_errors'
p27
(lp28
sS'par_limits'
p29
(lp30
sS'Is_SG'
p31
I01
sS'SG_mean'
p32
S'[1]'
p33
sS'str'
p34
S'[0]*exp(-0.5*((x-([1]))/([2]))**2)'
p35
sS'par_initials'
p36
(lp37
S'0'
p38
aS'mean'
p39
aS'rms'
p40
asS'SG_rms'
p41
S'[2]'
p42
sbsS'Draw_ABF_in_single_bins'
p43
I01
sS'reco_Pt_str'
p44
S'Jet_pt'
p45
sS'outputdir'
p46
S'V10_full_TTjets'
p47
sS'quark_Phi_str'
p48
S'Quark_phi'
p49
sS'n_E_hist_bins'
p50
I50000
sS'input_root_file_name'
p51
S'/scratch/tklijnsm/V10_full_jets_TTJets.root'
p52
sS'input_tree_name'
p53
S'tree'
p54
sS'particles'
p55
(lp56
g10
ag14
asS'E_bounds'
p57
(lp58
F30.0
aF300.0
asS'mc_Eta_str'
p59
S'Jet_mcEta'
p60
sS'Standard_DG_func'
p61
(iTFClasses
function
p62
(dp63
S'DG_rel_weight'
p64
F0.7
sg25
(lp65
sS'DG_mean'
p66
(lp67
g33
aS'[3]'
p68
asg27
(lp69
sg29
(lp70
(I1
F0.0
F2000.0
tp71
a(I2
F0.0
F2000.0
tp72
a(I3
F0.0
F2000.0
tp73
a(I4
F0.0
F2000.0
tp74
asS'Is_DG'
p75
I01
sg34
S'[0]*(0.7*exp(-0.5*((x-([1]))/([2]))**2)+(1-0.7)*exp(-0.5*((x-([3]))/([4]))**2))'
p76
sg36
(lp77
g38
aS'1.2*mean'
p78
aS'0.8*rms'
p79
aS'0.8*mean'
p80
aS'1.2*rms'
p81
asS'fitrange'
p82
(F30.0
F500.0
tp83
sS'DG_rms'
p84
(lp85
g42
aS'[4]'
p86
asbsS'mc_Flavour_str'
p87
S'Jet_mcFlavour'
p88
sS'ABFunctions'
p89
(dp90
g10
(lp91
(iTFClasses
function
p92
(dp93
g27
(lp94
sg25
(lp95
sg29
g30
sg34
S'1'
p96
sg36
(lp97
sba(iTFClasses
function
p98
(dp99
g27
(lp100
sg25
(lp101
sg29
g30
sg34
S'[0]+[1]*x'
p102
sg36
(lp103
g38
ag96
asba(iTFClasses
function
p104
(dp105
g27
(lp106
sg25
(lp107
sg29
g30
sg34
S'sqrt([0]*[0] + x*[1]*[1] + x*x*[2]*[2])'
p108
sg36
(lp109
g38
ag38
ag38
asba(iTFClasses
function
p110
(dp111
g27
(lp112
sg25
(lp113
sg29
g30
sg34
g102
sg36
(lp114
g38
ag96
asba(iTFClasses
function
p115
(dp116
g27
(lp117
sg25
(lp118
sg29
g30
sg34
g108
sg36
(lp119
g38
ag38
ag38
asbasg14
(lp120
(iTFClasses
function
p121
(dp122
g27
(lp123
sg25
(lp124
sg29
g30
sg34
g96
sg36
g97
sba(iTFClasses
function
p125
(dp126
g27
(lp127
sg25
(lp128
sg29
g30
sg34
g102
sg36
(lp129
g38
ag96
asba(iTFClasses
function
p130
(dp131
g27
(lp132
sg25
(lp133
sg29
g30
sg34
g108
sg36
(lp134
g38
ag38
ag38
asba(iTFClasses
function
p135
(dp136
g27
(lp137
sg25
(lp138
sg29
g30
sg34
g102
sg36
(lp139
g38
ag96
asba(iTFClasses
function
p140
(dp141
g27
(lp142
sg25
(lp143
sg29
g30
sg34
g108
sg36
(lp144
g38
ag38
ag38
asbassS'quark_E_str'
p145
S'Quark_pt'
p146
sS'reco_Phi_str'
p147
S'Jet_phi'
p148
sS'eta_axis'
p149
(lp150
F0.0
aF1.0
aF2.5
asS'n_entries_limited'
p151
I100000
sS'quark_Pt_str'
p152
g146
sS'SBF_plot_ranges'
p153
(dp154
g10
(lp155
(lp156
(lp157
I0
aF69.936
aa(lp158
I0
aF75.36840000000001
aa(lp159
I0
aF79.5588
aa(lp160
I0
aF83.166
aa(lp161
I0
aF86.4276
aa(lp162
I0
aF89.4408
aa(lp163
I0
aF92.2704
aa(lp164
I0
aF94.9812
aa(lp165
I0
aF97.6164
aa(lp166
I0
aF100.1652
aa(lp167
I0
aF102.6708
aa(lp168
I0
aF105.1332
aa(lp169
I0
aF107.5848
aa(lp170
I0
aF110.004
aa(lp171
I0
aF112.42320000000001
aa(lp172
I0
aF114.83160000000001
aa(lp173
I0
aF117.24000000000001
aa(lp174
I0
aF119.6592
aa(lp175
I0
aF122.1
aa(lp176
I0
aF124.55160000000001
aa(lp177
I0
aF127.0356
aa(lp178
I0
aF129.5412
aa(lp179
I0
aF132.0684
aa(lp180
I0
aF134.6388
aa(lp181
I0
aF137.25240000000002
aa(lp182
I0
aF139.92000000000002
aa(lp183
I0
aF142.63080000000002
aa(lp184
I0
aF145.4172
aa(lp185
I0
aF148.26839999999999
aa(lp186
I0
aF151.1844
aa(lp187
I0
aF154.19760000000002
aa(lp188
I0
aF157.28640000000001
aa(lp189
I0
aF160.4616
aa(lp190
I0
aF163.7664
aa(lp191
I0
aF167.1792
aa(lp192
I0
aF170.72160000000002
aa(lp193
I0
aF174.4044
aa(lp194
I0
aF178.2492
aa(lp195
I0
aF182.28840000000002
aa(lp196
I0
aF186.522
aa(lp197
I0
aF190.9932
aa(lp198
I0
aF195.71280000000002
aa(lp199
I0
aF200.72400000000002
aa(lp200
I0
aF206.07000000000002
aa(lp201
I0
aF211.78320000000002
aa(lp202
I0
aF217.9824
aa(lp203
I0
aF224.6892
aa(lp204
I0
aF232.0548
aa(lp205
I0
aF240.1656
aa(lp206
I0
aF249.2268
aa(lp207
I0
aF259.5948
aa(lp208
I0
aF271.6044
aa(lp209
I0
aF285.80640000000005
aa(lp210
I0
aF303.2268
aa(lp211
I0
aF325.9608
aa(lp212
I0
aF358.1772
aa(lp213
I0
aF412.92240000000004
aa(lp214
I0
aF600.0
aaa(lp215
(lp216
I0
aF68.91
aa(lp217
I0
aF74.2668
aa(lp218
I0
aF78.4248
aa(lp219
I0
aF81.97800000000001
aa(lp220
I0
aF85.164
aa(lp221
I0
aF88.0908
aa(lp222
I0
aF90.8664
aa(lp223
I0
aF93.49080000000001
aa(lp224
I0
aF96.0504
aa(lp225
I0
aF98.5128
aa(lp226
I0
aF100.932
aa(lp227
I0
aF103.30799999999999
aa(lp228
I0
aF105.6516
aa(lp229
I0
aF107.9844
aa(lp230
I0
aF110.29560000000001
aa(lp231
I0
aF112.61760000000001
aa(lp232
I0
aF114.9288
aa(lp233
I0
aF117.2616
aa(lp234
I0
aF119.5836
aa(lp235
I0
aF121.9272
aa(lp236
I0
aF124.3032
aa(lp237
I0
aF126.69
aa(lp238
I0
aF129.0984
aa(lp239
I0
aF131.5392
aa(lp240
I0
aF134.0232
aa(lp241
I0
aF136.55040000000002
aa(lp242
I0
aF139.1316
aa(lp243
I0
aF141.7668
aa(lp244
I0
aF144.45600000000002
aa(lp245
I0
aF147.21
aa(lp246
I0
aF150.0288
aa(lp247
I0
aF152.93400000000003
aa(lp248
I0
aF155.9364
aa(lp249
I0
aF159.0576
aa(lp250
I0
aF162.2544
aa(lp251
I0
aF165.5916
aa(lp252
I0
aF169.0476
aa(lp253
I0
aF172.6764
aa(lp254
I0
aF176.424
aa(lp255
I0
aF180.35520000000002
aa(lp256
I0
aF184.50240000000002
aa(lp257
I0
aF188.8872
aa(lp258
I0
aF193.49880000000002
aa(lp259
I0
aF198.4668
aa(lp260
I0
aF203.74800000000002
aa(lp261
I0
aF209.4396
aa(lp262
I0
aF215.6604
aa(lp263
I0
aF222.4212
aa(lp264
I0
aF229.90560000000002
aa(lp265
I0
aF238.25400000000002
aa(lp266
I0
aF247.69320000000002
aa(lp267
I0
aF258.6228
aa(lp268
I0
aF271.6368
aa(lp269
I0
aF287.5884
aa(lp270
I0
aF308.29200000000003
aa(lp271
I0
aF337.8408
aa(lp272
I0
aF388.41720000000004
aa(lp273
I0
aF600.0
aaasg14
(lp274
(lp275
(lp276
I0
aF63.8772
aa(lp277
I0
aF66.912
aa(lp278
I0
aF69.5256
aa(lp279
I0
aF71.88
aa(lp280
I0
aF74.0832
aa(lp281
I0
aF76.146
aa(lp282
I0
aF78.144
aa(lp283
I0
aF80.0664
aa(lp284
I0
aF81.9456
aa(lp285
I0
aF83.7924
aa(lp286
I0
aF85.60679999999999
aa(lp287
I0
aF87.41040000000001
aa(lp288
I0
aF89.20320000000001
aa(lp289
I0
aF90.9852
aa(lp290
I0
aF92.77799999999999
aa(lp291
I0
aF94.57079999999999
aa(lp292
I0
aF96.3852
aa(lp293
I0
aF98.1996
aa(lp294
I0
aF100.0464
aa(lp295
I0
aF101.904
aa(lp296
I0
aF103.7832
aa(lp297
I0
aF105.6948
aa(lp298
I0
aF107.6388
aa(lp299
I0
aF109.6152
aa(lp300
I0
aF111.6456
aa(lp301
I0
aF113.6976
aa(lp302
I0
aF115.8144
aa(lp303
I0
aF117.9852
aa(lp304
I0
aF120.21000000000001
aa(lp305
I0
aF122.4996
aa(lp306
I0
aF124.8648
aa(lp307
I0
aF127.29480000000001
aa(lp308
I0
aF129.83280000000002
aa(lp309
I0
aF132.44639999999998
aa(lp310
I0
aF135.168
aa(lp311
I0
aF138.0084
aa(lp312
I0
aF140.9676
aa(lp313
I0
aF144.0672
aa(lp314
I0
aF147.31799999999998
aa(lp315
I0
aF150.75240000000002
aa(lp316
I0
aF154.3596
aa(lp317
I0
aF158.2152
aa(lp318
I0
aF162.2976
aa(lp319
I0
aF166.6932
aa(lp320
I0
aF171.402
aa(lp321
I0
aF176.4996
aa(lp322
I0
aF182.094
aa(lp323
I0
aF188.26080000000002
aa(lp324
I0
aF195.09720000000002
aa(lp325
I0
aF202.776
aa(lp326
I0
aF211.5672
aa(lp327
I0
aF221.8488
aa(lp328
I0
aF234.15
aa(lp329
I0
aF249.39960000000002
aa(lp330
I0
aF269.4552
aa(lp331
I0
aF298.31280000000004
aa(lp332
I0
aF349.2456
aa(lp333
I0
aF600.0
aaa(lp334
(lp335
I0
aF63.4776
aa(lp336
I0
aF66.35040000000001
aa(lp337
I0
aF68.8776
aa(lp338
I0
aF71.1888
aa(lp339
I0
aF73.338
aa(lp340
I0
aF75.3792
aa(lp341
I0
aF77.334
aa(lp342
I0
aF79.2132
aa(lp343
I0
aF81.06
aa(lp344
I0
aF82.87440000000001
aa(lp345
I0
aF84.6564
aa(lp346
I0
aF86.4276
aa(lp347
I0
aF88.188
aa(lp348
I0
aF89.9484
aa(lp349
I0
aF91.69800000000001
aa(lp350
I0
aF93.4476
aa(lp351
I0
aF95.2296
aa(lp352
I0
aF97.0008
aa(lp353
I0
aF98.78280000000001
aa(lp354
I0
aF100.5864
aa(lp355
I0
aF102.42240000000001
aa(lp356
I0
aF104.28
aa(lp357
I0
aF106.1592
aa(lp358
I0
aF108.0708
aa(lp359
I0
aF110.0256
aa(lp360
I0
aF112.0236
aa(lp361
I0
aF114.07560000000001
aa(lp362
I0
aF116.1708
aa(lp363
I0
aF118.32
aa(lp364
I0
aF120.5232
aa(lp365
I0
aF122.7912
aa(lp366
I0
aF125.12400000000001
aa(lp367
I0
aF127.5432
aa(lp368
I0
aF130.0596
aa(lp369
I0
aF132.6732
aa(lp370
I0
aF135.4056
aa(lp371
I0
aF138.23520000000002
aa(lp372
I0
aF141.1836
aa(lp373
I0
aF144.294
aa(lp374
I0
aF147.5664
aa(lp375
I0
aF151.0116
aa(lp376
I0
aF154.662
aa(lp377
I0
aF158.5608
aa(lp378
I0
aF162.7188
aa(lp379
I0
aF167.2116
aa(lp380
I0
aF172.0716
aa(lp381
I0
aF177.3204
aa(lp382
I0
aF183.0876
aa(lp383
I0
aF189.5352
aa(lp384
I0
aF196.728
aa(lp385
I0
aF204.9684
aa(lp386
I0
aF214.5696
aa(lp387
I0
aF225.9636
aa(lp388
I0
aF240.1764
aa(lp389
I0
aF258.6984
aa(lp390
I0
aF285.3312
aa(lp391
I0
aF332.45160000000004
aa(lp392
I0
aF600.0
aaassS'date'
p393
S'2015-04-24 11:35:07'
p394
sS'enddate'
p395
S'2015-04-24 12:11:30'
p396
sS'quark_Eta_str'
p397
S'Quark_eta'
p398
sS'n_total_events'
p399
L40048313L
sS'info'
p400
S'*** Information on this config.dat ***\nThis config file contains the input parameters (and some output parameters) used in the creation of TFMat.dat, the matrix of transfer functions. \n\nSome html-overviews are produced in the output directory.\n\n This config.dat was created on: 2015-04-24 11:35:07'
p401
sS'E_or_Pt_str'
p402
S'Pt'
p403
sS'n_E_bins'
p404
I58
sS'Use_mc_values'
p405
I00
sS'E_value_mean_or_center'
p406
S'm'
p407
sS'reco_E_str'
p408
g45
sS'reco_Eta_str'
p409
S'Jet_eta'
p410
sS'mc_Phi_str'
p411
S'Jet_mcPhi'
p412
sS'SBF_hists_pickle_filename'
p413
S'V10_full_TTjets/SBF_hists_pickle.dat'
p414
sS'bin_functions'
p415
(dp416
g10
(lp417
(iTFClasses
function
p418
(dp419
g27
(lp420
sg25
(lp421
sg66
(lp422
g33
ag68
asg64
F0.7
sg29
(lp423
g71
ag72
ag73
ag74
asg75
I01
sg34
g76
sg36
(lp424
g38
ag78
ag79
ag80
ag81
asg82
g83
sg84
(lp425
g42
ag86
asba(iTFClasses
function
p426
(dp427
g27
(lp428
sg25
(lp429
sg66
(lp430
g33
ag68
asg64
F0.7
sg29
(lp431
g71
ag72
ag73
ag74
asg75
I01
sg34
g76
sg36
(lp432
g38
ag78
ag79
ag80
ag81
asg82
g83
sg84
(lp433
g42
ag86
asbasg14
(lp434
(iTFClasses
function
p435
(dp436
g27
(lp437
sg25
(lp438
sg66
(lp439
g33
ag68
asg64
F0.7
sg29
(lp440
g71
ag72
ag73
ag74
asg75
I01
sg34
g76
sg36
(lp441
g38
ag78
ag79
ag80
ag81
asg82
g83
sg84
(lp442
g42
ag86
asba(iTFClasses
function
p443
(dp444
g27
(lp445
sg25
(lp446
sg66
(lp447
g33
ag68
asg64
F0.7
sg29
(lp448
g71
ag72
ag73
ag74
asg75
I01
sg34
g76
sg36
(lp449
g38
ag78
ag79
ag80
ag81
asg82
g83
sg84
(lp450
g42
ag86
asbassS'SBF_fitted_hists_pickle_filename'
p451
S'V10_full_TTjets/SBF_fitted_hists_pickle.dat'
p452
sS'mc_E_str'
p453
g6
sS'Use_Pt'
p454
I01
s.