(dp0
S'b'
p1
(lp2
(iTFClasses
TF
p3
(dp4
S'SingleBinFunc'
p5
(iTFClasses
function
p6
(dp7
S'DG_rel_weight'
p8
F0.65
sS'par_values'
p9
(lp10
F10171.86206072051
aF32.21071644289009
aF1.6568434946875321
aF36.69466391547982
aF1.0
asS'DG_mean'
p11
(lp12
S'[1]'
p13
aS'[3]'
p14
asS'par_errors'
p15
(lp16
F84.73426097600758
aF0.01509079201006358
aF0.01610920008043859
aF0.03057766059055922
aF0.00033277808558385136
asS'par_limits'
p17
(lp18
(I1
F0.0
F2000.0
tp19
a(I2
F0.0
F2000.0
tp20
a(I3
F0.0
F2000.0
tp21
a(I4
F0.0
F1.0
tp22
asS'Is_DG'
p23
I01
sS'str'
p24
S'[0]*(0.65*exp(-0.5*((x-([1]))/([2]))**2)+(1-0.65)*exp(-0.5*((x-([3]))/([2]+[4]))**2))'
p25
sS'par_initials'
p26
(lp27
S'0'
p28
aS'1.1*mean'
p29
aS'0.5*rms'
p30
aS'0.8*mean'
p31
aS'0*rms'
p32
asS'fitrange'
p33
(F30.1
F500.0
tp34
sS'DG_rms'
p35
(lp36
S'[2]'
p37
aS'[2]+[4]'
p38
asbsS'i_eta'
p39
I0
sS'particle'
p40
g1
sS'AcrossBinFuncs'
p41
(lp42
(iTFClasses
function
p43
(dp44
g15
(lp45
sg9
(lp46
sg17
(lp47
sg24
S'1'
p48
sg26
(lp49
sba(iTFClasses
function
p50
(dp51
g15
(lp52
F0.03846006789723303
aF0.0004185419345822908
asg9
(lp53
F-1.985601629145088
aF0.9319959340935233
asg17
(lp54
sg24
S'[0]+[1]*x'
p55
sg26
(lp56
S'0'
p57
ag48
asba(iTFClasses
function
p58
(dp59
g15
(lp60
F0.0463556508185066
aF0.040345193991986016
aF0.00025291080856712625
asg9
(lp61
F4.64732282551472
aF9.210862863914358e-08
aF0.11223370952674426
asg17
(lp62
sg24
S'sqrt([0]*[0] + x*[1]*[1] + x*x*[2]*[2])'
p63
sg26
(lp64
g57
ag57
ag57
asba(iTFClasses
function
p65
(dp66
g15
(lp67
F0.0829198227531203
aF0.0009323994610086222
asg9
(lp68
F-1.1974764604931918
aF0.6961644286580734
asg17
(lp69
sg24
g55
sg26
(lp70
g57
ag48
asba(iTFClasses
function
p71
(dp72
g15
(lp73
F0.001846388543796839
aF0.010326847493593418
aF0.0018605913507792318
asg9
(lp74
F0.9998484073309609
aF0.0015117954273234785
aF0.0
asg17
(lp75
sg24
g63
sg26
(lp76
g57
ag57
ag57
asbasba(iTFClasses
TF
p77
(dp78
g5
(iTFClasses
function
p79
(dp80
g8
F0.65
sg9
(lp81
F6578.285843120727
aF23.35452991358411
aF8.345591063037784
aF27.248915441218323
aF0.9999999999987228
asg11
(lp82
g13
ag14
asg15
(lp83
F260.3885559115664
aF0.6413912562523443
aF0.2754212250730692
aF0.7720326122910848
aF0.007049339435156288
asg17
(lp84
g19
ag20
ag21
ag22
asg23
I01
sg24
g25
sg26
(lp85
g28
ag29
ag30
ag31
ag32
asg33
g34
sg35
(lp86
g37
ag38
asbsg39
I1
sg40
g1
sg41
(lp87
(iTFClasses
function
p88
(dp89
g15
(lp90
sg9
(lp91
sg17
(lp92
sg24
g48
sg26
(lp93
sba(iTFClasses
function
p94
(dp95
g15
(lp96
F0.08180286092609723
aF0.0007938292054385563
asg9
(lp97
F-4.8682644673828515
aF0.9415137402619684
asg17
(lp98
sg24
g55
sg26
(lp99
g57
ag48
asba(iTFClasses
function
p100
(dp101
g15
(lp102
F0.0713721723032009
aF0.13437309444947154
aF0.000474292204863069
asg9
(lp103
F7.5449460325218665
aF4.918423577308371e-06
aF0.11601594732087606
asg17
(lp104
sg24
g63
sg26
(lp105
g57
ag57
ag57
asba(iTFClasses
function
p106
(dp107
g15
(lp108
F0.16232673845848744
aF0.001611869607532425
asg9
(lp109
F-1.7941413874204344
aF0.6765618966125722
asg17
(lp110
sg24
g55
sg26
(lp111
g57
ag48
asba(iTFClasses
function
p112
(dp113
g15
(lp114
F0.004852513481747295
aF0.003430064773326205
aF0.0006668516093935007
asg9
(lp115
F0.9917349440681132
aF0.010912720670099402
aF0.0
asg17
(lp116
sg24
g63
sg26
(lp117
g57
ag57
ag57
asbasbasS'l'
p118
(lp119
(iTFClasses
TF
p120
(dp121
g5
(iTFClasses
function
p122
(dp123
g8
F0.65
sg9
(lp124
F9075.963490906293
aF34.37130707175007
aF2.938602145139302
aF1.83527473616385
aF0.06110210773939373
asg11
(lp125
g13
ag14
asg15
(lp126
F35.59853095891424
aF0.012635212070843949
aF0.009871034793551559
aF1154.6210998871966
aF0.0610520590876
asg17
(lp127
g19
ag20
ag21
ag22
asg23
I01
sg24
g25
sg26
(lp128
g28
ag29
ag30
ag31
ag32
asg33
g34
sg35
(lp129
g37
ag38
asbsg39
I0
sg40
g118
sg41
(lp130
(iTFClasses
function
p131
(dp132
g15
(lp133
sg9
(lp134
sg17
(lp135
sg24
g48
sg26
(lp136
sba(iTFClasses
function
p137
(dp138
g15
(lp139
F0.05830028650469559
aF0.0007350681158229907
asg9
(lp140
F0.09654477643471605
aF0.9416176532021577
asg17
(lp141
sg24
g55
sg26
(lp142
g57
ag48
asba(iTFClasses
function
p143
(dp144
g15
(lp145
F0.06238658577337404
aF0.0748246199704043
aF0.0003916054898357976
asg9
(lp146
F4.3480040855088555
aF1.0022163841227446e-07
aF0.11423952332045673
asg17
(lp147
sg24
g63
sg26
(lp148
g57
ag57
ag57
asba(iTFClasses
function
p149
(dp150
g15
(lp151
F0.11060148483232793
aF0.0014036993915893389
asg9
(lp152
F-4.851564798674085
aF0.817930465889427
asg17
(lp153
sg24
g55
sg26
(lp154
g57
ag48
asba(iTFClasses
function
p155
(dp156
g15
(lp157
F0.004084085776321766
aF0.0002689171279012241
aF6.191672496513672e-05
asg9
(lp158
F0.5116670540045354
aF0.08465977270438368
aF2.4842005937239713e-11
asg17
(lp159
sg24
g63
sg26
(lp160
g57
ag57
ag57
asbasba(iTFClasses
TF
p161
(dp162
g5
(iTFClasses
function
p163
(dp164
g8
F0.65
sg9
(lp165
F33801.95976813279
aF3.6124509072411604
aF13.58505243156971
aF6.644416449012258
aF0.9999999999994761
asg11
(lp166
g13
ag14
asg15
(lp167
F6865.019122845258
aF2.492275155430157
aF0.6016521778499655
aF2.8969576474614507
aF0.046057347605187815
asg17
(lp168
g19
ag20
ag21
ag22
asg23
I01
sg24
g25
sg26
(lp169
g28
ag29
ag30
ag31
ag32
asg33
g34
sg35
(lp170
g37
ag38
asbsg39
I1
sg40
g118
sg41
(lp171
(iTFClasses
function
p172
(dp173
g15
(lp174
sg9
(lp175
sg17
(lp176
sg24
g48
sg26
(lp177
sba(iTFClasses
function
p178
(dp179
g15
(lp180
F0.1117215566600093
aF0.0012556706777514875
asg9
(lp181
F-2.0929077537165544
aF0.9644164677255179
asg17
(lp182
sg24
g55
sg26
(lp183
g57
ag48
asba(iTFClasses
function
p184
(dp185
g15
(lp186
F0.09307883322827525
aF0.13910062870788248
aF0.0006706134832208249
asg9
(lp187
F6.495054239701331
aF-4.57656468210495e-09
aF0.12208590734460391
asg17
(lp188
sg24
g63
sg26
(lp189
g57
ag57
ag57
asba(iTFClasses
function
p190
(dp191
g15
(lp192
F0.21274207581580123
aF0.002413778525797042
asg9
(lp193
F-4.975612858933111
aF0.8045106375998935
asg17
(lp194
sg24
g55
sg26
(lp195
g57
ag48
asba(iTFClasses
function
p196
(dp197
g15
(lp198
F0.005914041955208737
aF0.02602917020365627
aF0.004556534007951291
asg9
(lp199
F1.0
aF0.0
aF0.0
asg17
(lp200
sg24
g63
sg26
(lp201
g57
ag57
ag57
asbasbas.