(dp0
S'b'
p1
(lp2
(iTFClasses
TF
p3
(dp4
S'SingleBinFunc'
p5
S'[0]*(0.7*exp(-0.5*((x-[1])/[2])**2)+0.3*exp(-0.5*((x-[3])/([2]+[4]))**2))'
p6
sS'i_eta'
p7
I0
sS'particle'
p8
g1
sS'AcrossBinFuncs'
p9
(lp10
(iTFClasses
function
p11
(dp12
S'par_errors'
p13
(lp14
sS'par_values'
p15
(lp16
sS'abspars'
p17
(lp18
sS'str'
p19
S'1'
p20
sS'par_initials'
p21
(lp22
sba(iTFClasses
function
p23
(dp24
g13
(lp25
F0.032901771874113535
aF0.0004494915768262142
asg15
(lp26
F-1.635654358710092
aF0.9166517710304244
asg17
(lp27
sg19
S'[0]+[1]*x'
p28
sg21
(lp29
S'0'
p30
ag20
asba(iTFClasses
function
p31
(dp32
g13
(lp33
F0.16924327461165578
aF0.003856928772269973
aF0.000569871620311063
asg15
(lp34
F-7.38275022323429e-11
aF0.7910433657820213
aF0.06932159020431315
asg17
(lp35
sg19
S'sqrt([0]*[0] + x*[1]*[1] + x*x*[2]*[2])'
p36
sg21
(lp37
g30
ag30
ag30
asba(iTFClasses
function
p38
(dp39
g13
(lp40
F0.06273033649394763
aF0.0008549728911658058
asg15
(lp41
F2.665773383609287
aF0.7587071508890765
asg17
(lp42
sg19
g28
sg21
(lp43
g30
ag20
asba(iTFClasses
function
p44
(dp45
g13
(lp46
F0.0226106408417459
aF0.003517727879101131
aF0.0002019568843043934
asg15
(lp47
F-2.883277216634979e-12
aF-1.1567059464118326e-12
aF0.05279569028357438
asg17
(lp48
sg19
g36
sg21
(lp49
g30
ag30
ag30
asbasba(iTFClasses
TF
p50
(dp51
g5
g6
sg7
I1
sg8
g1
sg9
(lp52
(iTFClasses
function
p53
(dp54
g13
(lp55
sg15
(lp56
sg17
(lp57
sg19
g20
sg21
(lp58
sba(iTFClasses
function
p59
(dp60
g13
(lp61
F0.03579111681780775
aF0.0005183810759464374
asg15
(lp62
F-2.0175584674690663
aF0.8993445302422267
asg17
(lp63
sg19
g28
sg21
(lp64
g30
ag20
asba(iTFClasses
function
p65
(dp66
g13
(lp67
F0.13688632810128423
aF0.004379392953756245
aF0.0005663077465500481
asg15
(lp68
F-4.189347202277518e-06
aF0.8393491036794286
aF0.08810690685699214
asg17
(lp69
sg19
g36
sg21
(lp70
g30
ag30
ag30
asba(iTFClasses
function
p71
(dp72
g13
(lp73
F0.0821059000800199
aF0.0011248063157845007
asg15
(lp74
F1.623871614115986
aF0.7487556034156079
asg17
(lp75
sg19
g28
sg21
(lp76
g30
ag20
asba(iTFClasses
function
p77
(dp78
g13
(lp79
F0.1401011054542024
aF0.019190675017920038
aF0.000445901599722184
asg15
(lp80
F0.9980855067930092
aF1.315104477638055e-07
aF0.07686523316613714
asg17
(lp81
sg19
g36
sg21
(lp82
g30
ag30
ag30
asbasba(iTFClasses
TF
p83
(dp84
g5
g6
sg7
I2
sg8
g1
sg9
(lp85
(iTFClasses
function
p86
(dp87
g13
(lp88
sg15
(lp89
sg17
(lp90
sg19
g20
sg21
(lp91
sba(iTFClasses
function
p92
(dp93
g13
(lp94
F0.06025927056989684
aF0.0008807776143454218
asg15
(lp95
F-5.194087541626568
aF0.9540842338559667
asg17
(lp96
sg19
g28
sg21
(lp97
g30
ag20
asba(iTFClasses
function
p98
(dp99
g13
(lp100
F0.11926307356900447
aF0.01148001046031747
aF0.0007668102042765778
asg15
(lp101
F9.591070406606188e-12
aF0.4979973151667187
aF0.11908082020846719
asg17
(lp102
sg19
g36
sg21
(lp103
g30
ag30
ag30
asba(iTFClasses
function
p104
(dp105
g13
(lp106
F0.11627224813388336
aF0.0016863792409823977
asg15
(lp107
F10.763239892921115
aF0.6482665350525183
asg17
(lp108
sg19
g28
sg21
(lp109
g30
ag20
asba(iTFClasses
function
p110
(dp111
g13
(lp112
F0.06638647819544824
aF0.01039871955837103
aF0.00043428658100156715
asg15
(lp113
F4.744645210463325e-13
aF1.7360129172102625e-13
aF0.06269190858287328
asg17
(lp114
sg19
g36
sg21
(lp115
g30
ag30
ag30
asbasbasS'l'
p116
(lp117
(iTFClasses
TF
p118
(dp119
g5
S'[0]*exp(-0.5*((x-[1])/[2])**2)'
p120
sg7
I0
sg8
g116
sg9
(lp121
(iTFClasses
function
p122
(dp123
g13
(lp124
sg15
(lp125
sg17
(lp126
sg19
g20
sg21
(lp127
sba(iTFClasses
function
p128
(dp129
g13
(lp130
F0.014342972614052475
aF0.00025122575851529115
asg15
(lp131
F0.7755945837426705
aF0.8844371805070863
asg17
(lp132
sg19
g28
sg21
(lp133
g30
ag20
asba(iTFClasses
function
p134
(dp135
g13
(lp136
F0.10409044630114024
aF0.0022940269112447305
aF0.0003068043547554601
asg15
(lp137
F-9.42549938406436e-07
aF0.8820448022327633
aF0.10676197935830788
asg17
(lp138
sg19
g36
sg21
(lp139
g30
ag30
ag30
asbasba(iTFClasses
TF
p140
(dp141
g5
g120
sg7
I1
sg8
g116
sg9
(lp142
(iTFClasses
function
p143
(dp144
g13
(lp145
sg15
(lp146
sg17
(lp147
sg19
g20
sg21
(lp148
sba(iTFClasses
function
p149
(dp150
g13
(lp151
F0.015899480664894848
aF0.00026627416836773397
asg15
(lp152
F1.4081185803602272
aF0.865619096983179
asg17
(lp153
sg19
g28
sg21
(lp154
g30
ag20
asba(iTFClasses
function
p155
(dp156
g13
(lp157
F0.09922936414960823
aF0.0025228460734821115
aF0.0003274210669247791
asg15
(lp158
F5.20305201929792e-08
aF0.9486873296194873
aF0.12009302863945372
asg17
(lp159
sg19
g36
sg21
(lp160
g30
ag30
ag30
asbasba(iTFClasses
TF
p161
(dp162
g5
g120
sg7
I2
sg8
g116
sg9
(lp163
(iTFClasses
function
p164
(dp165
g13
(lp166
sg15
(lp167
sg17
(lp168
sg19
g20
sg21
(lp169
sba(iTFClasses
function
p170
(dp171
g13
(lp172
F0.027441774601824478
aF0.000493663955912112
asg15
(lp173
F-0.16985445420471396
aF0.9151970139306903
asg17
(lp174
sg19
g28
sg21
(lp175
g30
ag20
asba(iTFClasses
function
p176
(dp177
g13
(lp178
F0.174308429301823
aF0.004274310074084826
aF0.0006508639780514995
asg15
(lp179
F-3.965708028005892e-11
aF1.029860983021113
aF0.11378365205928447
asg17
(lp180
sg19
g36
sg21
(lp181
g30
ag30
ag30
asbasbas.