ccopy_reg
_reconstructor
p0
(cPhysicsTools.HeppyCore.statistics.counter
Counter
p1
c__builtin__
list
p2
(lp3
(lp4
S'any'
p5
aI1483334
aa(lp6
S'good'
p7
aI816682
aa(lp8
S'CSVL'
p9
aI380355
aa(lp10
S'CSVM'
p11
aI264990
aa(lp12
S'CSVT'
p13
aI176822
aatp14
Rp15
(dp16
S'name'
p17
S'jets'
p18
sS'dico'
p19
(dp20
g9
I2
sg11
I3
sg7
I1
sg13
I4
sg5
I0
ssb.