ccopy_reg
_reconstructor
p0
(cPhysicsTools.HeppyCore.statistics.counter
Counter
p1
c__builtin__
list
p2
(lp3
(lp4
S'processed'
p5
aI93
aa(lp6
S'passes'
p7
aI93
aa(lp8
S'NOCAT'
p9
aI51
aa(lp10
S'cat1'
p11
aI16
aa(lp12
S'cat2'
p13
aI1
aa(lp14
S'cat3'
p15
aI23
aa(lp16
S'cat6'
p17
aI2
aatp18
Rp19
(dp20
S'name'
p21
S'processing'
p22
sS'dico'
p23
(dp24
g7
I1
sg11
I3
sg13
I4
sg15
I5
sg5
I0
sg17
I6
sg9
I2
ssb.