(dp0
S'b'
p1
(lp2
(iTFClasses
TF
p3
(dp4
S'SingleBinFunc'
p5
(iTFClasses
function
p6
(dp7
S'DG_rel_weight'
p8
F0.9
sS'par_values'
p9
(lp10
F12930.100909118648
aF29.546690022267175
aF6.335385183629527
aF18.349465379183137
aF16.321006556343278
asS'DG_mean'
p11
(lp12
S'[1]'
p13
aS'[3]'
p14
asS'par_errors'
p15
(lp16
F113.97838766857917
aF0.13033658276545523
aF0.07219085428777916
aF1.3154956733725243
aF0.6456577703124466
asS'par_limits'
p17
(lp18
(I1
F0.0
F2000.0
tp19
a(I2
F0.0
F2000.0
tp20
a(I3
F0.0
F2000.0
tp21
a(I4
F0.0
F2000.0
tp22
asS'Is_DG'
p23
I01
sS'str'
p24
S'[0]*(0.9*exp(-0.5*((x-([1]))/([2]))**2)+(1-0.9)*exp(-0.5*((x-([3]))/([2]+[4]))**2))'
p25
sS'par_initials'
p26
(lp27
S'0'
p28
aS'1.1*mean'
p29
aS'0.5*rms'
p30
aS'0.8*mean'
p31
aS'0*rms'
p32
asS'fitrange'
p33
(F30.1
F500.0
tp34
sS'DG_rms'
p35
(lp36
S'[2]'
p37
aS'[2]+[4]'
p38
asbsS'i_eta'
p39
I0
sS'particle'
p40
g1
sS'AcrossBinFuncs'
p41
(lp42
(iTFClasses
function
p43
(dp44
g15
(lp45
sg9
(lp46
sg17
(lp47
sg24
S'1'
p48
sg26
(lp49
sba(iTFClasses
function
p50
(dp51
g15
(lp52
F0.022998796988441404
aF0.0002494752638216533
asg9
(lp53
F-5.14488212311728
aF1.0070528834439327
asg17
(lp54
sg24
S'[0]+[1]*x'
p55
sg26
(lp56
S'0'
p57
ag48
asba(iTFClasses
function
p58
(dp59
g15
(lp60
F0.19676110654891363
aF0.01794871946808181
aF0.0010495668253715626
asg9
(lp61
F4.376513415321509
aF1.0104238686808236
aF0.08562631922775323
asg17
(lp62
sg24
S'sqrt([0]*[0] + x*[1]*[1] + x*x*[2]*[2])'
p63
sg26
(lp64
g57
ag57
ag57
asba(iTFClasses
function
p65
(dp66
g15
(lp67
F0.172818767428158
aF0.0018335024314666824
asg9
(lp68
F-2.5154109425533644
aF0.6514235039629213
asg17
(lp69
sg24
g55
sg26
(lp70
g57
ag48
asba(iTFClasses
function
p71
(dp72
g15
(lp73
F0.003416879436188998
aF0.00045650070202672737
aF1.9727211141992768e-05
asg9
(lp74
F-1.7466574554041792e-12
aF-1.0947874076618482e-12
aF5.983625589967351e-05
asg17
(lp75
sg24
g63
sg26
(lp76
g57
ag57
ag57
asbasba(iTFClasses
TF
p77
(dp78
g5
(iTFClasses
function
p79
(dp80
g8
F0.9
sg9
(lp81
F14137.560781385137
aF22.568968888805998
aF10.097330738520816
aF1999.9999986617495
aF848.7972329127855
asg11
(lp82
g13
ag14
asg15
(lp83
F407.96513890320375
aF0.419506014215143
aF0.14021507426414903
aF173.38404220548136
aF7.448161467701254
asg17
(lp84
g19
ag20
ag21
ag22
asg23
I01
sg24
g25
sg26
(lp85
g28
ag29
ag30
ag31
ag32
asg33
g34
sg35
(lp86
g37
ag38
asbsg39
I1
sg40
g1
sg41
(lp87
(iTFClasses
function
p88
(dp89
g15
(lp90
sg9
(lp91
sg17
(lp92
sg24
g48
sg26
(lp93
sba(iTFClasses
function
p94
(dp95
g15
(lp96
F0.039219322010842404
aF0.00040331398505486817
asg9
(lp97
F-6.208066551886643
aF1.004338408782082
asg17
(lp98
sg24
g55
sg26
(lp99
g57
ag48
asba(iTFClasses
function
p100
(dp101
g15
(lp102
F0.30287270217404283
aF0.03072643126800385
aF0.0017326549285197781
asg9
(lp103
F5.487545625278149
aF1.0981826140666948
aF0.09442413513373832
asg17
(lp104
sg24
g63
sg26
(lp105
g57
ag57
ag57
asba(iTFClasses
function
p106
(dp107
g15
(lp108
F0.28815704335300607
aF0.0028222522241225347
asg9
(lp109
F0.7529218754522865
aF0.5923177061846499
asg17
(lp110
sg24
g55
sg26
(lp111
g57
ag48
asba(iTFClasses
function
p112
(dp113
g15
(lp114
F0.0078038128029203745
aF0.0018377564722773401
aF0.00010247290331349114
asg9
(lp115
F0.006235367439791933
aF-3.1604239985799922e-15
aF5.639419908505785e-05
asg17
(lp116
sg24
g63
sg26
(lp117
g57
ag57
ag57
asbasbasS'l'
p118
(lp119
(iTFClasses
TF
p120
(dp121
g5
(iTFClasses
function
p122
(dp123
g8
F0.9
sg9
(lp124
F11982.436990513335
aF31.599720124561802
aF4.8749852010661066
aF35.042086820086915
aF8.222429050301239
asg11
(lp125
g13
ag14
asg15
(lp126
F43.52458015156747
aF0.05027883436353875
aF0.040418178964884977
aF0.4024859660968758
aF0.25210644091794343
asg17
(lp127
g19
ag20
ag21
ag22
asg23
I01
sg24
g25
sg26
(lp128
g28
ag29
ag30
ag31
ag32
asg33
g34
sg35
(lp129
g37
ag38
asbsg39
I0
sg40
g118
sg41
(lp130
(iTFClasses
function
p131
(dp132
g15
(lp133
sg9
(lp134
sg17
(lp135
sg24
g48
sg26
(lp136
sba(iTFClasses
function
p137
(dp138
g15
(lp139
F0.03398864930487733
aF0.0004911513901837018
asg9
(lp140
F-2.4261810650920346
aF1.0185581867885392
asg17
(lp141
sg24
g55
sg26
(lp142
g57
ag48
asba(iTFClasses
function
p143
(dp144
g15
(lp145
F0.180913159481347
aF0.004597509912468631
aF0.0008053706141527181
asg9
(lp146
F-3.356185044638035e-07
aF1.0482891172328297
aF0.08397515183141983
asg17
(lp147
sg24
g63
sg26
(lp148
g57
ag57
ag57
asba(iTFClasses
function
p149
(dp150
g15
(lp151
F0.4003884657366191
aF0.005628103579245435
asg9
(lp152
F-0.48717848571541
aF0.6874543261685212
asg17
(lp153
sg24
g55
sg26
(lp154
g57
ag48
asba(iTFClasses
function
p155
(dp156
g15
(lp157
F0.002355177606506221
aF0.0008180472423059026
aF7.558773469334232e-05
asg9
(lp158
F0.00343937656986696
aF0.0
aF0.0
asg17
(lp159
sg24
g63
sg26
(lp160
g57
ag57
ag57
asbasba(iTFClasses
TF
p161
(dp162
g5
(iTFClasses
function
p163
(dp164
g8
F0.9
sg9
(lp165
F7533.44498681692
aF34.53699903697116
aF3.7301906251252515
aF43.858504441504856
aF4.313374364001699
asg11
(lp166
g13
ag14
asg15
(lp167
F40.93550117555563
aF0.017091257958124828
aF0.0221644294720047
aF0.13308796584271576
aF0.11834611859234956
asg17
(lp168
g19
ag20
ag21
ag22
asg23
I01
sg24
g25
sg26
(lp169
g28
ag29
ag30
ag31
ag32
asg33
g34
sg35
(lp170
g37
ag38
asbsg39
I1
sg40
g118
sg41
(lp171
(iTFClasses
function
p172
(dp173
g15
(lp174
sg9
(lp175
sg17
(lp176
sg24
g48
sg26
(lp177
sba(iTFClasses
function
p178
(dp179
g15
(lp180
F0.053294557948079815
aF0.0006881851617848311
asg9
(lp181
F-2.466179755735532
aF1.0239085733454514
asg17
(lp182
sg24
g55
sg26
(lp183
g57
ag48
asba(iTFClasses
function
p184
(dp185
g15
(lp186
F0.6153390222915559
aF0.0058778640159318045
aF0.013780482282711988
asg9
(lp187
F-6.838486579953566e-06
aF1.4265470099403998
aF0.007606690048989301
asg17
(lp188
sg24
g63
sg26
(lp189
g57
ag57
ag57
asba(iTFClasses
function
p190
(dp191
g15
(lp192
F0.4519594751715624
aF0.005667707794240223
asg9
(lp193
F-14.694415043175232
aF0.8613837564908758
asg17
(lp194
sg24
g55
sg26
(lp195
g57
ag48
asba(iTFClasses
function
p196
(dp197
g15
(lp198
F0.015896437852679683
aF0.002318666870949522
aF9.321605243142659e-05
asg9
(lp199
F3.531783687421209e-11
aF-1.1208314324072208e-12
aF0.0007676105050371069
asg17
(lp200
sg24
g63
sg26
(lp201
g57
ag57
ag57
asbasbas.