(dp0
S'Use_limited_entries'
p1
I00
sS'events_used'
p2
I17237354
sS'quark_Flavour_str'
p3
S'Quark_pdgId'
p4
sS'mc_Pt_str'
p5
S'Jet_mcPt'
p6
sS'DG_rel_weight'
p7
F0.7
sS'SBF_n_bins'
p8
(dp9
S'b'
p10
(lp11
(lp12
I100
aI100
aI100
aI100
aI100
aI100
aI100
aI100
aI100
aI100
aI100
aI100
aI100
aI100
aI100
aI100
aI100
aI100
aI100
aI100
aI100
aI100
aI100
aI100
aI100
aI100
aI100
aI100
aI100
aI100
aI100
aI100
aI100
aI100
aI100
aI100
aI100
aI100
aI100
aI100
aI100
aI100
aI100
aI100
aI100
aI100
aI100
aI100
aI100
aI100
aI100
aI100
aI100
aI100
aI100
aI100
aI100
aI100
aa(lp13
I100
aI100
aI100
aI100
aI100
aI100
aI100
aI100
aI100
aI100
aI100
aI100
aI100
aI100
aI100
aI100
aI100
aI100
aI100
aI100
aI100
aI100
aI100
aI100
aI100
aI100
aI100
aI100
aI100
aI100
aI100
aI100
aI100
aI100
aI100
aI100
aI100
aI100
aI100
aI100
aI100
aI100
aI100
aI100
aI100
aI100
aI100
aI100
aI100
aI100
aI100
aI100
aI100
aI100
aI100
aI100
aI100
aI100
aa(lp14
I100
aI100
aI100
aI100
aI100
aI100
aI100
aI100
aI100
aI100
aI100
aI100
aI100
aI100
aI100
aI100
aI100
aI100
aI100
aI100
aI100
aI100
aI100
aI100
aI100
aI100
aI100
aI100
aI100
aI100
aI100
aI100
aI100
aI100
aI100
aI100
aI100
aI100
aI100
aI100
aI100
aI100
aI100
aI100
aI100
aI100
aI100
aI100
aI100
aI100
aI100
aI100
aI100
aI100
aI100
aI100
aI100
aI100
aasS'l'
p15
(lp16
(lp17
I100
aI100
aI100
aI100
aI100
aI100
aI100
aI100
aI100
aI100
aI100
aI100
aI100
aI100
aI100
aI100
aI100
aI100
aI100
aI100
aI100
aI100
aI100
aI100
aI100
aI100
aI100
aI100
aI100
aI100
aI100
aI100
aI100
aI100
aI100
aI100
aI100
aI100
aI100
aI100
aI100
aI100
aI100
aI100
aI100
aI100
aI100
aI100
aI100
aI100
aI100
aI100
aI100
aI100
aI100
aI100
aI100
aI100
aa(lp18
I100
aI100
aI100
aI100
aI100
aI100
aI100
aI100
aI100
aI100
aI100
aI100
aI100
aI100
aI100
aI100
aI100
aI100
aI100
aI100
aI100
aI100
aI100
aI100
aI100
aI100
aI100
aI100
aI100
aI100
aI100
aI100
aI100
aI100
aI100
aI100
aI100
aI100
aI100
aI100
aI100
aI100
aI100
aI100
aI100
aI100
aI100
aI100
aI100
aI100
aI100
aI100
aI100
aI100
aI100
aI100
aI100
aI100
aa(lp19
I100
aI100
aI100
aI100
aI100
aI100
aI100
aI100
aI100
aI100
aI100
aI100
aI100
aI100
aI100
aI100
aI100
aI100
aI100
aI100
aI100
aI100
aI100
aI100
aI100
aI100
aI100
aI100
aI100
aI100
aI100
aI100
aI100
aI100
aI100
aI100
aI100
aI100
aI100
aI100
aI100
aI100
aI100
aI100
aI100
aI100
aI100
aI100
aI100
aI100
aI100
aI100
aI100
aI100
aI100
aI100
aI100
aI100
aassS'selection_string'
p20
(dp21
g10
S'abs(Quark_pdgId)==5 && abs(Quark_eta)>=1.7 && abs(Quark_eta)<=2.5 && abs(Quark_pt)>=30.0 && abs(Quark_pt)<=300.0'
p22
sg15
S'abs(Quark_pdgId)!=5 && abs(Quark_eta)>=1.7 && abs(Quark_eta)<=2.5 && abs(Quark_pt)>=30.0 && abs(Quark_pt)<=300.0'
p23
ssS'Draw_ABF_in_single_bins'
p24
I01
sS'reco_Pt_str'
p25
S'Jet_pt'
p26
sS'outputdir'
p27
S'pt-to-pt-final'
p28
sS'quark_Phi_str'
p29
S'Quark_phi'
p30
sS'n_E_hist_bins'
p31
I50000
sS'input_root_file_name'
p32
S'/scratch/tklijnsm/Big_File_Jets_with_Quarks.root'
p33
sS'input_tree_name'
p34
S'tree'
p35
sS'particles'
p36
(lp37
g10
ag15
asS'E_bounds'
p38
(lp39
F30.0
aF300.0
asS'mc_Eta_str'
p40
S'Jet_mcEta'
p41
sS'mc_Flavour_str'
p42
S'Jet_mcFlavour'
p43
sS'ABFunctions'
p44
(dp45
g10
(lp46
(iTFClasses
function
p47
(dp48
S'par_errors'
p49
(lp50
sS'par_values'
p51
(lp52
sS'abspars'
p53
(lp54
sS'str'
p55
S'1'
p56
sS'par_initials'
p57
(lp58
sba(iTFClasses
function
p59
(dp60
g49
(lp61
sg51
(lp62
sg53
g54
sg55
S'[0]+[1]*x'
p63
sg57
(lp64
S'0'
p65
ag56
asba(iTFClasses
function
p66
(dp67
g49
(lp68
sg51
(lp69
sg53
g54
sg55
S'sqrt([0]*[0] + x*[1]*[1] + x*x*[2]*[2])'
p70
sg57
(lp71
g65
ag65
ag65
asba(iTFClasses
function
p72
(dp73
g49
(lp74
sg51
(lp75
sg53
g54
sg55
g63
sg57
(lp76
g65
ag56
asba(iTFClasses
function
p77
(dp78
g49
(lp79
sg51
(lp80
sg53
g54
sg55
g70
sg57
(lp81
g65
ag65
ag65
asbasg15
(lp82
(iTFClasses
function
p83
(dp84
g49
(lp85
sg51
(lp86
sg53
g54
sg55
g56
sg57
g58
sba(iTFClasses
function
p87
(dp88
g49
(lp89
sg51
(lp90
sg53
g54
sg55
g63
sg57
(lp91
g65
ag56
asba(iTFClasses
function
p92
(dp93
g49
(lp94
sg51
(lp95
sg53
g54
sg55
g70
sg57
(lp96
g65
ag65
ag65
asbassS'quark_E_str'
p97
S'Quark_pt'
p98
sS'reco_Phi_str'
p99
S'Jet_phi'
p100
sS'eta_axis'
p101
(lp102
F0.0
aF0.7
aF1.7
aF2.5
asS'n_entries_limited'
p103
I2000000
sS'quark_Pt_str'
p104
g98
sS'SBF_plot_ranges'
p105
(dp106
g10
(lp107
(lp108
(lp109
I0
aF65.7456
aa(lp110
I0
aF70.3464
aa(lp111
I0
aF74.2884
aa(lp112
I0
aF77.8524
aa(lp113
I0
aF81.1572
aa(lp114
I0
aF84.2892
aa(lp115
I0
aF87.25919999999999
aa(lp116
I0
aF90.132
aa(lp117
I0
aF92.91839999999999
aa(lp118
I0
aF95.6508
aa(lp119
I0
aF98.3292
aa(lp120
I0
aF100.96440000000001
aa(lp121
I0
aF103.5564
aa(lp122
I0
aF106.13759999999999
aa(lp123
I0
aF108.7188
aa(lp124
I0
aF111.30000000000001
aa(lp125
I0
aF113.8812
aa(lp126
I0
aF116.4624
aa(lp127
I0
aF119.0652
aa(lp128
I0
aF121.6788
aa(lp129
I0
aF124.32480000000001
aa(lp130
I0
aF126.9924
aa(lp131
I0
aF129.69240000000002
aa(lp132
I0
aF132.43560000000002
aa(lp133
I0
aF135.21120000000002
aa(lp134
I0
aF138.0516
aa(lp135
I0
aF140.946
aa(lp136
I0
aF143.8836
aa(lp137
I0
aF146.88600000000002
aa(lp138
I0
aF149.9856
aa(lp139
I0
aF153.1716
aa(lp140
I0
aF156.44400000000002
aa(lp141
I0
aF159.7812
aa(lp142
I0
aF163.248
aa(lp143
I0
aF166.8444
aa(lp144
I0
aF170.58120000000002
aa(lp145
I0
aF174.4584
aa(lp146
I0
aF178.5192
aa(lp147
I0
aF182.7528
aa(lp148
I0
aF187.2024
aa(lp149
I0
aF191.90040000000002
aa(lp150
I0
aF196.8468
aa(lp151
I0
aF202.1064
aa(lp152
I0
aF207.69
aa(lp153
I0
aF213.6516
aa(lp154
I0
aF220.11
aa(lp155
I0
aF227.0868
aa(lp156
I0
aF234.7656
aa(lp157
I0
aF243.17880000000002
aa(lp158
I0
aF252.61800000000002
aa(lp159
I0
aF263.3316
aa(lp160
I0
aF275.6868
aa(lp161
I0
aF290.3208
aa(lp162
I0
aF308.29200000000003
aa(lp163
I0
aF331.5984
aa(lp164
I0
aF364.44120000000004
aa(lp165
I0
aF419.6508
aa(lp166
I0
aF600.0
aaa(lp167
(lp168
I0
aF65.4756
aa(lp169
I0
aF69.8712
aa(lp170
I0
aF73.6944
aa(lp171
I0
aF77.172
aa(lp172
I0
aF80.412
aa(lp173
I0
aF83.4468
aa(lp174
I0
aF86.3628
aa(lp175
I0
aF89.1816
aa(lp176
I0
aF91.9032
aa(lp177
I0
aF94.56
aa(lp178
I0
aF97.1736
aa(lp179
I0
aF99.7656
aa(lp180
I0
aF102.3252
aa(lp181
I0
aF104.874
aa(lp182
I0
aF107.3904
aa(lp183
I0
aF109.9068
aa(lp184
I0
aF112.4448
aa(lp185
I0
aF114.97200000000001
aa(lp186
I0
aF117.51
aa(lp187
I0
aF120.0588
aa(lp188
I0
aF122.64
aa(lp189
I0
aF125.2536
aa(lp190
I0
aF127.878
aa(lp191
I0
aF130.53480000000002
aa(lp192
I0
aF133.224
aa(lp193
I0
aF135.9672
aa(lp194
I0
aF138.7536
aa(lp195
I0
aF141.6156
aa(lp196
I0
aF144.5316
aa(lp197
I0
aF147.5232
aa(lp198
I0
aF150.5904
aa(lp199
I0
aF153.7548
aa(lp200
I0
aF157.0164
aa(lp201
I0
aF160.39679999999998
aa(lp202
I0
aF163.8852
aa(lp203
I0
aF167.5032
aa(lp204
I0
aF171.25080000000003
aa(lp205
I0
aF175.14960000000002
aa(lp206
I0
aF179.232
aa(lp207
I0
aF183.51960000000003
aa(lp208
I0
aF188.0448
aa(lp209
I0
aF192.7752
aa(lp210
I0
aF197.84040000000002
aa(lp211
I0
aF203.208
aa(lp212
I0
aF208.93200000000002
aa(lp213
I0
aF215.1528
aa(lp214
I0
aF221.8596
aa(lp215
I0
aF229.20360000000002
aa(lp216
I0
aF237.27120000000002
aa(lp217
I0
aF246.2784
aa(lp218
I0
aF256.5276
aa(lp219
I0
aF268.3752
aa(lp220
I0
aF282.372
aa(lp221
I0
aF299.598
aa(lp222
I0
aF321.9216
aa(lp223
I0
aF353.4792
aa(lp224
I0
aF406.9932
aa(lp225
I0
aF600.0
aaa(lp226
(lp227
I0
aF64.2228
aa(lp228
I0
aF67.8408
aa(lp229
I0
aF71.0916
aa(lp230
I0
aF74.1264
aa(lp231
I0
aF76.956
aa(lp232
I0
aF79.6884
aa(lp233
I0
aF82.2804
aa(lp234
I0
aF84.8184
aa(lp235
I0
aF87.25919999999999
aa(lp236
I0
aF89.6892
aa(lp237
I0
aF92.076
aa(lp238
I0
aF94.44120000000001
aa(lp239
I0
aF96.8064
aa(lp240
I0
aF99.11760000000001
aa(lp241
I0
aF101.4288
aa(lp242
I0
aF103.7616
aa(lp243
I0
aF106.0836
aa(lp244
I0
aF108.4488
aa(lp245
I0
aF110.8032
aa(lp246
I0
aF113.17920000000001
aa(lp247
I0
aF115.5768
aa(lp248
I0
aF117.99600000000001
aa(lp249
I0
aF120.4368
aa(lp250
I0
aF122.9208
aa(lp251
I0
aF125.44800000000001
aa(lp252
I0
aF128.01839999999999
aa(lp253
I0
aF130.6104
aa(lp254
I0
aF133.25639999999999
aa(lp255
I0
aF135.9672
aa(lp256
I0
aF138.7536
aa(lp257
I0
aF141.6048
aa(lp258
I0
aF144.5424
aa(lp259
I0
aF147.5556
aa(lp260
I0
aF150.666
aa(lp261
I0
aF153.8844
aa(lp262
I0
aF157.22160000000002
aa(lp263
I0
aF160.7208
aa(lp264
I0
aF164.3172
aa(lp265
I0
aF168.0756
aa(lp266
I0
aF172.0392
aa(lp267
I0
aF176.1648
aa(lp268
I0
aF180.4632
aa(lp269
I0
aF185.0532
aa(lp270
I0
aF189.96720000000002
aa(lp271
I0
aF195.1404
aa(lp272
I0
aF200.72400000000002
aa(lp273
I0
aF206.7936
aa(lp274
I0
aF213.3708
aa(lp275
I0
aF220.6176
aa(lp276
I0
aF228.7176
aa(lp277
I0
aF237.822
aa(lp278
I0
aF248.244
aa(lp279
I0
aF260.61
aa(lp280
I0
aF275.73
aa(lp281
I0
aF295.21320000000003
aa(lp282
I0
aF322.9152
aa(lp283
I0
aF370.0572
aa(lp284
I0
aF600.0
aaasg15
(lp285
(lp286
(lp287
I0
aF62.16
aa(lp288
I0
aF64.2228
aa(lp289
I0
aF66.21
aa(lp290
I0
aF68.1648
aa(lp291
I0
aF70.0548
aa(lp292
I0
aF71.934
aa(lp293
I0
aF73.7808
aa(lp294
I0
aF75.606
aa(lp295
I0
aF77.4312
aa(lp296
I0
aF79.2564
aa(lp297
I0
aF81.06
aa(lp298
I0
aF82.896
aa(lp299
I0
aF84.71039999999999
aa(lp300
I0
aF86.5464
aa(lp301
I0
aF88.3824
aa(lp302
I0
aF90.2508
aa(lp303
I0
aF92.1192
aa(lp304
I0
aF94.00919999999999
aa(lp305
I0
aF95.94239999999999
aa(lp306
I0
aF97.8972
aa(lp307
I0
aF99.87360000000001
aa(lp308
I0
aF101.8824
aa(lp309
I0
aF103.9236
aa(lp310
I0
aF105.99719999999999
aa(lp311
I0
aF108.13560000000001
aa(lp312
I0
aF110.3172
aa(lp313
I0
aF112.542
aa(lp314
I0
aF114.83160000000001
aa(lp315
I0
aF117.186
aa(lp316
I0
aF119.59440000000001
aa(lp317
I0
aF122.0784
aa(lp318
I0
aF124.64880000000001
aa(lp319
I0
aF127.3056
aa(lp320
I0
aF130.0596
aa(lp321
I0
aF132.9216
aa(lp322
I0
aF135.9024
aa(lp323
I0
aF139.0128
aa(lp324
I0
aF142.2636
aa(lp325
I0
aF145.66559999999998
aa(lp326
I0
aF149.2512
aa(lp327
I0
aF153.042
aa(lp328
I0
aF157.08120000000002
aa(lp329
I0
aF161.358
aa(lp330
I0
aF165.93720000000002
aa(lp331
I0
aF170.8728
aa(lp332
I0
aF176.1864
aa(lp333
I0
aF182.00760000000002
aa(lp334
I0
aF188.4228
aa(lp335
I0
aF195.54000000000002
aa(lp336
I0
aF203.532
aa(lp337
I0
aF212.6688
aa(lp338
I0
aF223.29600000000002
aa(lp339
I0
aF236.0508
aa(lp340
I0
aF251.8512
aa(lp341
I0
aF272.58720000000005
aa(lp342
I0
aF302.1684
aa(lp343
I0
aF354.2568
aa(lp344
I0
aF600.0
aaa(lp345
(lp346
I0
aF62.106
aa(lp347
I0
aF64.1364
aa(lp348
I0
aF66.0804
aa(lp349
I0
aF67.9812
aa(lp350
I0
aF69.8388
aa(lp351
I0
aF71.6748
aa(lp352
I0
aF73.4892
aa(lp353
I0
aF75.282
aa(lp354
I0
aF77.064
aa(lp355
I0
aF78.846
aa(lp356
I0
aF80.6172
aa(lp357
I0
aF82.41
aa(lp358
I0
aF84.2028
aa(lp359
I0
aF86.0064
aa(lp360
I0
aF87.8208
aa(lp361
I0
aF89.646
aa(lp362
I0
aF91.4928
aa(lp363
I0
aF93.35040000000001
aa(lp364
I0
aF95.25120000000001
aa(lp365
I0
aF97.152
aa(lp366
I0
aF99.096
aa(lp367
I0
aF101.0724
aa(lp368
I0
aF103.0812
aa(lp369
I0
aF105.1224
aa(lp370
I0
aF107.2068
aa(lp371
I0
aF109.3344
aa(lp372
I0
aF111.516
aa(lp373
I0
aF113.7516
aa(lp374
I0
aF116.05199999999999
aa(lp375
I0
aF118.41720000000001
aa(lp376
I0
aF120.8472
aa(lp377
I0
aF123.3636
aa(lp378
I0
aF125.9556
aa(lp379
I0
aF128.63400000000001
aa(lp380
I0
aF131.442
aa(lp381
I0
aF134.3472
aa(lp382
I0
aF137.382
aa(lp383
I0
aF140.55720000000002
aa(lp384
I0
aF143.89440000000002
aa(lp385
I0
aF147.4044
aa(lp386
I0
aF151.0872
aa(lp387
I0
aF154.9968
aa(lp388
I0
aF159.15480000000002
aa(lp389
I0
aF163.5936
aa(lp390
I0
aF168.39960000000002
aa(lp391
I0
aF173.5836
aa(lp392
I0
aF179.2212
aa(lp393
I0
aF185.4096
aa(lp394
I0
aF192.2892
aa(lp395
I0
aF200.0004
aa(lp396
I0
aF208.84560000000002
aa(lp397
I0
aF219.1164
aa(lp398
I0
aF231.39600000000002
aa(lp399
I0
aF246.5808
aa(lp400
I0
aF266.4312
aa(lp401
I0
aF295.0944
aa(lp402
I0
aF345.62760000000003
aa(lp403
I0
aF600.0
aaa(lp404
(lp405
I0
aF61.836
aa(lp406
I0
aF63.6396
aa(lp407
I0
aF65.3676
aa(lp408
I0
aF67.074
aa(lp409
I0
aF68.75880000000001
aa(lp410
I0
aF70.4436
aa(lp411
I0
aF72.096
aa(lp412
I0
aF73.7484
aa(lp413
I0
aF75.41159999999999
aa(lp414
I0
aF77.064
aa(lp415
I0
aF78.7056
aa(lp416
I0
aF80.3688
aa(lp417
I0
aF82.0212
aa(lp418
I0
aF83.706
aa(lp419
I0
aF85.3908
aa(lp420
I0
aF87.0972
aa(lp421
I0
aF88.8468
aa(lp422
I0
aF90.5964
aa(lp423
I0
aF92.36760000000001
aa(lp424
I0
aF94.1712
aa(lp425
I0
aF96.00720000000001
aa(lp426
I0
aF97.87559999999999
aa(lp427
I0
aF99.7656
aa(lp428
I0
aF101.688
aa(lp429
I0
aF103.6644
aa(lp430
I0
aF105.6948
aa(lp431
I0
aF107.7576
aa(lp432
I0
aF109.87440000000001
aa(lp433
I0
aF112.05600000000001
aa(lp434
I0
aF114.2916
aa(lp435
I0
aF116.6028
aa(lp436
I0
aF118.9788
aa(lp437
I0
aF121.44120000000001
aa(lp438
I0
aF123.9792
aa(lp439
I0
aF126.6144
aa(lp440
I0
aF129.4008
aa(lp441
I0
aF132.2628
aa(lp442
I0
aF135.2652
aa(lp443
I0
aF138.37560000000002
aa(lp444
I0
aF141.65879999999999
aa(lp445
I0
aF145.12560000000002
aa(lp446
I0
aF148.82999999999998
aa(lp447
I0
aF152.7288
aa(lp448
I0
aF156.9192
aa(lp449
I0
aF161.412
aa(lp450
I0
aF166.2288
aa(lp451
I0
aF171.4884
aa(lp452
I0
aF177.19080000000002
aa(lp453
I0
aF183.51960000000003
aa(lp454
I0
aF190.734
aa(lp455
I0
aF198.8016
aa(lp456
I0
aF208.1868
aa(lp457
I0
aF219.3324
aa(lp458
I0
aF233.0592
aa(lp459
I0
aF251.0088
aa(lp460
I0
aF276.6696
aa(lp461
I0
aF321.16560000000004
aa(lp462
I0
aF600.0
aaassS'date'
p463
S'2015-04-06 19:07:07'
p464
sS'enddate'
p465
S'2015-04-06 19:44:31'
p466
sS'quark_Eta_str'
p467
S'Quark_eta'
p468
sS'n_total_events'
p469
L39188019L
sS'info'
p470
S"*** Information on this config.dat ***\nThis config file contains the input parameters (and some output parameters) used in the creation of TFMat.dat, the matrix of transfer functions. \n\nFeatures of this version:\n - Transfer functions based on many events (84.4Gb root file). Data set used is TTJets.\n - Dynamic binning over transverse momentum: 58 pt-bins with an equal amount of entry points are created to fit over pt.\n - Compares quark data with jet data, where quark and jet were linked using delta R minimization.\n - Jets that had a potential link with two quarks were removed, since it is likely this jet is a product of both these quarks.\n - The fit function per pt-eta bin can be specified per bin. In this version, a double Gaussian is used. This produces well-fitting curves.\n - Per parameter in the per-bin fit-function, an across-bin fit function *has* to be specified. This may be an empty function (which means it is not fitted). In this version, the means of the two Gaussians are fitted with linear functions, and the two RMS's with a quadratic function. See config['ABFunctions'] for more information.\n - Some html-overviews are produced in the output directory.\n\n This config.dat was created on: 2015-04-06 19:07:07"
p471
sS'E_or_Pt_str'
p472
S'Pt'
p473
sS'Use_mc_values'
p474
I00
sS'E_value_mean_or_center'
p475
S'm'
p476
sS'reco_E_str'
p477
g26
sS'SBF_pickle_filename'
p478
S'pt-to-pt-final/pickleSBFfitdata.dat'
p479
sS'reco_Eta_str'
p480
S'Jet_eta'
p481
sS'mc_Phi_str'
p482
S'Jet_mcPhi'
p483
sS'bin_functions'
p484
(dp485
g10
(lp486
(iTFClasses
function
p487
(dp488
S'DG_rel_weight'
p489
F0.7
sg51
(lp490
sg53
(lp491
I1
aI2
aI3
aI4
asS'DG_mean'
p492
(lp493
S'[1]'
p494
aS'[3]'
p495
asg49
(lp496
sS'Is_DG'
p497
I01
sg55
S'[0]*(0.7*exp(-0.5*((x-([1]))/([2]))**2)+(1-0.7)*exp(-0.5*((x-([3]))/([2]+[4]))**2))'
p498
sg57
(lp499
g65
aS'1.2*mean'
p500
aS'0.5*rms'
p501
aS'0.8*mean'
p502
aS'1.0*rms'
p503
asS'DG_rms'
p504
(lp505
S'[2]'
p506
aS'[2]+[4]'
p507
asbag487
ag487
asg15
(lp508
(iTFClasses
function
p509
(dp510
g51
(lp511
sg53
g54
sg49
(lp512
sS'Is_SG'
p513
I01
sS'SG_mean'
p514
g494
sg55
S'[0]*exp(-0.5*((x-([1]))/([2]))**2)'
p515
sg57
(lp516
g65
aS'mean'
p517
aS'rms'
p518
asS'SG_rms'
p519
g506
sbag509
ag509
assS'n_E_bins'
p520
I58
sS'mc_E_str'
p521
g6
sS'Use_Pt'
p522
I01
s.