(dp0
S'b'
p1
(lp2
(lp3
(dp4
S'E_value'
p5
F40.64799486763034
sS'i_eta'
p6
I0
sS'n_eta_bins'
p7
I2
sS'single_bin_func'
p8
(iTFClasses
function
p9
(dp10
S'par_errors'
p11
(lp12
F9.707146952755604
aF0.4261216040535807
aF0.27400305966818195
aF0.7561930361328066
aF0.46690147185873787
asS'par_values'
p13
(lp14
F488.15481263484594
aF32.357206995631344
aF6.549376783992256
aF20.000000000544393
aF9.360060553503246
asS'DG_mean'
p15
(lp16
S'[1]'
p17
aS'[3]'
p18
asS'DG_rel_weight'
p19
F0.7
sS'par_limits'
p20
(lp21
(I1
F20.0
F2000.0
tp22
a(I2
F0.0
F2000.0
tp23
a(I3
F20.0
F2000.0
tp24
a(I4
F0.0
F2000.0
tp25
asS'Is_DG'
p26
I01
sS'str'
p27
S'[0]*(0.7*exp(-0.5*((x-([1]))/([2]))**2)+(1-0.7)*exp(-0.5*((x-([3]))/([2]+[4]))**2))'
p28
sS'par_initials'
p29
(lp30
S'0'
p31
aS'1.2*mean'
p32
aS'0.5*rms'
p33
aS'0.8*mean'
p34
aS'1.0*rms'
p35
asS'fitrange'
p36
(F30.0
F500.0
tp37
sS'DG_rms'
p38
(lp39
S'[2]'
p40
aS'[2]+[4]'
p41
asbsS'eta_bounds'
p42
(lp43
F0.0
aF1.0
asS'n_E_bins'
p44
I58
sS'type'
p45
g1
sS'i_E'
p46
I0
sa(dp47
g5
F48.195290798442066
sg6
I0
sg7
I2
sg8
(iTFClasses
function
p48
(dp49
g11
(lp50
F6.531834044087096
aF0.3930805373444457
aF0.17347989614491244
aF1.311398549466773
aF0.8520190773622649
asg13
(lp51
F364.12203283569886
aF39.77583542703947
aF5.949854610144523
aF39.92294487748586
aF3.8770768113758347
asg15
(lp52
g17
ag18
asg19
F0.7
sg20
(lp53
g22
ag23
ag24
ag25
asg26
I01
sg27
g28
sg29
(lp54
g31
ag32
ag33
ag34
ag35
asg36
g37
sg38
(lp55
g40
ag41
asbsg42
(lp56
F0.0
aF1.0
asg44
I58
sg45
g1
sg46
I1
sa(dp57
g5
F52.699751244509514
sg6
I0
sg7
I2
sg8
(iTFClasses
function
p58
(dp59
g11
(lp60
F7.0632988474973954
aF0.2874130023269075
aF0.191283448592372
aF1.197886720293404
aF0.7625940763479333
asg13
(lp61
F347.4465698577749
aF44.0085427008039
aF6.512409195819968
aF39.68226969383112
aF5.784496614540724
asg15
(lp62
g17
ag18
asg19
F0.7
sg20
(lp63
g22
ag23
ag24
ag25
asg26
I01
sg27
g28
sg29
(lp64
g31
ag32
ag33
ag34
ag35
asg36
g37
sg38
(lp65
g40
ag41
asbsg42
(lp66
F0.0
aF1.0
asg44
I58
sg45
g1
sg46
I2
sa(dp67
g5
F56.39185539060598
sg6
I0
sg7
I2
sg8
(iTFClasses
function
p68
(dp69
g11
(lp70
F6.051271420586798
aF0.42184937598594985
aF0.21030240909786224
aF0.90154779993631
aF0.7048194980732725
asg13
(lp71
F341.24962060280615
aF46.013667254513265
aF7.4712176795062035
aF48.42886234232175
aF2.4398403878308494
asg15
(lp72
g17
ag18
asg19
F0.7
sg20
(lp73
g22
ag23
ag24
ag25
asg26
I01
sg27
g28
sg29
(lp74
g31
ag32
ag33
ag34
ag35
asg36
g37
sg38
(lp75
g40
ag41
asbsg42
(lp76
F0.0
aF1.0
asg44
I58
sg45
g1
sg46
I3
sa(dp77
g5
F59.62468074200635
sg6
I0
sg7
I2
sg8
(iTFClasses
function
p78
(dp79
g11
(lp80
F6.738039754153037
aF0.2796067758027796
aF0.21821737143834508
aF0.5733894157188928
aF0.621599053654609
asg13
(lp81
F339.70082925572456
aF50.78149379945651
aF7.291670790412486
aF45.52503421415719
aF5.220316241249856
asg15
(lp82
g17
ag18
asg19
F0.7
sg20
(lp83
g22
ag23
ag24
ag25
asg26
I01
sg27
g28
sg29
(lp84
g31
ag32
ag33
ag34
ag35
asg36
g37
sg38
(lp85
g40
ag41
asbsg42
(lp86
F0.0
aF1.0
asg44
I58
sg45
g1
sg46
I4
sa(dp87
g5
F62.633570907321825
sg6
I0
sg7
I2
sg8
(iTFClasses
function
p88
(dp89
g11
(lp90
F7.507205572855434
aF0.2161044845470066
aF0.19284981614475782
aF0.44786783585429646
aF0.4179138345000166
asg13
(lp91
F361.7134891778684
aF54.380163178408985
aF6.655484750639151
aF47.390095295682656
aF7.092233006027682
asg15
(lp92
g17
ag18
asg19
F0.7
sg20
(lp93
g22
ag23
ag24
ag25
asg26
I01
sg27
g28
sg29
(lp94
g31
ag32
ag33
ag34
ag35
asg36
g37
sg38
(lp95
g40
ag41
asbsg42
(lp96
F0.0
aF1.0
asg44
I58
sg45
g1
sg46
I5
sa(dp97
g5
F65.41344341741254
sg6
I0
sg7
I2
sg8
(iTFClasses
function
p98
(dp99
g11
(lp100
F6.795902076755192
aF0.25516872591897766
aF0.2050842525357921
aF0.45428466678972157
aF0.4192005203519922
asg13
(lp101
F342.7927735024967
aF55.851750408474274
aF7.465935861529216
aF52.3378913517907
aF6.339093435833831
asg15
(lp102
g17
ag18
asg19
F0.7
sg20
(lp103
g22
ag23
ag24
ag25
asg26
I01
sg27
g28
sg29
(lp104
g31
ag32
ag33
ag34
ag35
asg36
g37
sg38
(lp105
g40
ag41
asbsg42
(lp106
F0.0
aF1.0
asg44
I58
sg45
g1
sg46
I6
sa(dp107
g5
F68.05919210846797
sg6
I0
sg7
I2
sg8
(iTFClasses
function
p108
(dp109
g11
(lp110
F6.857745205281377
aF0.2581328915505132
aF0.20148178380541282
aF0.44796837467408324
aF0.4236055756882129
asg13
(lp111
F356.48994792552367
aF58.394088466849674
aF7.674672756345591
aF54.27522472758716
aF6.051305266413509
asg15
(lp112
g17
ag18
asg19
F0.7
sg20
(lp113
g22
ag23
ag24
ag25
asg26
I01
sg27
g28
sg29
(lp114
g31
ag32
ag33
ag34
ag35
asg36
g37
sg38
(lp115
g40
ag41
asbsg42
(lp116
F0.0
aF1.0
asg44
I58
sg45
g1
sg46
I7
sa(dp117
g5
F70.61605417783191
sg6
I0
sg7
I2
sg8
(iTFClasses
function
p118
(dp119
g11
(lp120
F6.970694283322581
aF0.2842245745424421
aF0.22639046238093208
aF0.5048099474426238
aF0.47816833941360937
asg13
(lp121
F354.95230716389784
aF60.97163257685987
aF8.196064076580246
aF55.87643866516091
aF5.749252492773471
asg15
(lp122
g17
ag18
asg19
F0.7
sg20
(lp123
g22
ag23
ag24
ag25
asg26
I01
sg27
g28
sg29
(lp124
g31
ag32
ag33
ag34
ag35
asg36
g37
sg38
(lp125
g40
ag41
asbsg42
(lp126
F0.0
aF1.0
asg44
I58
sg45
g1
sg46
I8
sa(dp127
g5
F73.12411733484825
sg6
I0
sg7
I2
sg8
(iTFClasses
function
p128
(dp129
g11
(lp130
F7.216132373822333
aF0.2620812340427392
aF0.2158770084078614
aF0.44549831376174964
aF0.4086700403361787
asg13
(lp131
F360.59701033699895
aF63.446334936354475
aF7.898143117496259
aF58.73705501874172
aF6.816432644667025
asg15
(lp132
g17
ag18
asg19
F0.7
sg20
(lp133
g22
ag23
ag24
ag25
asg26
I01
sg27
g28
sg29
(lp134
g31
ag32
ag33
ag34
ag35
asg36
g37
sg38
(lp135
g40
ag41
asbsg42
(lp136
F0.0
aF1.0
asg44
I58
sg45
g1
sg46
I9
sa(dp137
g5
F75.57298662871086
sg6
I0
sg7
I2
sg8
(iTFClasses
function
p138
(dp139
g11
(lp140
F7.490969111607205
aF0.28998765924070824
aF0.2292728133580506
aF0.5251037022975105
aF0.4649601590402397
asg13
(lp141
F368.6503981957062
aF65.80666463608361
aF8.091423355307548
aF60.316695336006184
aF5.918471281244786
asg15
(lp142
g17
ag18
asg19
F0.7
sg20
(lp143
g22
ag23
ag24
ag25
asg26
I01
sg27
g28
sg29
(lp144
g31
ag32
ag33
ag34
ag35
asg36
g37
sg38
(lp145
g40
ag41
asbsg42
(lp146
F0.0
aF1.0
asg44
I58
sg45
g1
sg46
I10
sa(dp147
g5
F77.94223642120647
sg6
I0
sg7
I2
sg8
(iTFClasses
function
p148
(dp149
g11
(lp150
F7.620358167503098
aF0.24948266788241114
aF0.20704928374437648
aF0.44351619073436765
aF0.3952635526585091
asg13
(lp151
F390.20295347886866
aF68.48111718540224
aF7.881222395140219
aF61.66200099075088
aF6.668790468014718
asg15
(lp152
g17
ag18
asg19
F0.7
sg20
(lp153
g22
ag23
ag24
ag25
asg26
I01
sg27
g28
sg29
(lp154
g31
ag32
ag33
ag34
ag35
asg36
g37
sg38
(lp155
g40
ag41
asbsg42
(lp156
F0.0
aF1.0
asg44
I58
sg45
g1
sg46
I11
sa(dp157
g5
F80.303507848719
sg6
I0
sg7
I2
sg8
(iTFClasses
function
p158
(dp159
g11
(lp160
F7.51294446921088
aF0.30646897119616057
aF0.233444127367199
aF0.5598120703109366
aF0.4659466715272176
asg13
(lp161
F374.2432100257033
aF70.14901074342217
aF8.52566553309353
aF64.23025252479164
aF6.131571058318963
asg15
(lp162
g17
ag18
asg19
F0.7
sg20
(lp163
g22
ag23
ag24
ag25
asg26
I01
sg27
g28
sg29
(lp164
g31
ag32
ag33
ag34
ag35
asg36
g37
sg38
(lp165
g40
ag41
asbsg42
(lp166
F0.0
aF1.0
asg44
I58
sg45
g1
sg46
I12
sa(dp167
g5
F82.59506645554202
sg6
I0
sg7
I2
sg8
(iTFClasses
function
p168
(dp169
g11
(lp170
F7.444304924893246
aF0.3155941481904705
aF0.23130438587126712
aF0.5952504392933733
aF0.4868640599525187
asg13
(lp171
F378.51979082984474
aF72.78681603350299
aF8.804303616055108
aF65.60271508860629
aF6.337025752866876
asg15
(lp172
g17
ag18
asg19
F0.7
sg20
(lp173
g22
ag23
ag24
ag25
asg26
I01
sg27
g28
sg29
(lp174
g31
ag32
ag33
ag34
ag35
asg36
g37
sg38
(lp175
g40
ag41
asbsg42
(lp176
F0.0
aF1.0
asg44
I58
sg45
g1
sg46
I13
sa(dp177
g5
F84.86879287862776
sg6
I0
sg7
I2
sg8
(iTFClasses
function
p178
(dp179
g11
(lp180
F7.758579920626993
aF0.3968279326994022
aF0.2350547059312147
aF0.8275298067956385
aF0.6025561608355989
asg13
(lp181
F394.00794743872694
aF74.55543986500413
aF9.056305997915404
aF67.75968357345465
aF5.1405101551151855
asg15
(lp182
g17
ag18
asg19
F0.7
sg20
(lp183
g22
ag23
ag24
ag25
asg26
I01
sg27
g28
sg29
(lp184
g31
ag32
ag33
ag34
ag35
asg36
g37
sg38
(lp185
g40
ag41
asbsg42
(lp186
F0.0
aF1.0
asg44
I58
sg45
g1
sg46
I14
sa(dp187
g5
F87.17890529817444
sg6
I0
sg7
I2
sg8
(iTFClasses
function
p188
(dp189
g11
(lp190
F8.24322895497931
aF0.3137501442973445
aF0.23650320898255295
aF0.6380249297337457
aF0.5249204947800901
asg13
(lp191
F410.7538396189671
aF77.38315818904127
aF8.615683626043591
aF69.14661838115474
aF6.085041721798579
asg15
(lp192
g17
ag18
asg19
F0.7
sg20
(lp193
g22
ag23
ag24
ag25
asg26
I01
sg27
g28
sg29
(lp194
g31
ag32
ag33
ag34
ag35
asg36
g37
sg38
(lp195
g40
ag41
asbsg42
(lp196
F0.0
aF1.0
asg44
I58
sg45
g1
sg46
I15
sa(dp197
g5
F89.48437779582555
sg6
I0
sg7
I2
sg8
(iTFClasses
function
p198
(dp199
g11
(lp200
F8.467339386947963
aF0.3386526048006573
aF0.2600935022594175
aF0.6672434036244397
aF0.5202026816016891
asg13
(lp201
F407.02070312284656
aF79.21215094704665
aF8.949631264102864
aF72.01650308283402
aF6.502872406504934
asg15
(lp202
g17
ag18
asg19
F0.7
sg20
(lp203
g22
ag23
ag24
ag25
asg26
I01
sg27
g28
sg29
(lp204
g31
ag32
ag33
ag34
ag35
asg36
g37
sg38
(lp205
g40
ag41
asbsg42
(lp206
F0.0
aF1.0
asg44
I58
sg45
g1
sg46
I16
sa(dp207
g5
F91.76963794112865
sg6
I0
sg7
I2
sg8
(iTFClasses
function
p208
(dp209
g11
(lp210
F8.08078988987285
aF0.28238146439510103
aF0.23392014543544004
aF0.49004495758124733
aF0.4029606365466565
asg13
(lp211
F405.42957763730027
aF80.83880347158217
aF8.703990585448572
aF74.14722477930988
aF7.711589772024019
asg15
(lp212
g17
ag18
asg19
F0.7
sg20
(lp213
g22
ag23
ag24
ag25
asg26
I01
sg27
g28
sg29
(lp214
g31
ag32
ag33
ag34
ag35
asg36
g37
sg38
(lp215
g40
ag41
asbsg42
(lp216
F0.0
aF1.0
asg44
I58
sg45
g1
sg46
I17
sa(dp217
g5
F94.04343660554925
sg6
I0
sg7
I2
sg8
(iTFClasses
function
p218
(dp219
g11
(lp220
F8.319229687034188
aF0.28111725955230327
aF0.2259476715580906
aF0.48954959711726076
aF0.39668418126170835
asg13
(lp221
F421.3758214717645
aF83.38561646317163
aF8.63922321641175
aF75.99034538107503
aF7.550064694631042
asg15
(lp222
g17
ag18
asg19
F0.7
sg20
(lp223
g22
ag23
ag24
ag25
asg26
I01
sg27
g28
sg29
(lp224
g31
ag32
ag33
ag34
ag35
asg36
g37
sg38
(lp225
g40
ag41
asbsg42
(lp226
F0.0
aF1.0
asg44
I58
sg45
g1
sg46
I18
sa(dp227
g5
F96.34492682926829
sg6
I0
sg7
I2
sg8
(iTFClasses
function
p228
(dp229
g11
(lp230
F8.45426483452499
aF0.2991841587195694
aF0.24424331672284705
aF0.586452106463426
aF0.46763483211931245
asg13
(lp231
F420.60485505977334
aF85.75125904090469
aF8.96268180222326
aF76.27757369339633
aF7.231013068835224
asg15
(lp232
g17
ag18
asg19
F0.7
sg20
(lp233
g22
ag23
ag24
ag25
asg26
I01
sg27
g28
sg29
(lp234
g31
ag32
ag33
ag34
ag35
asg36
g37
sg38
(lp235
g40
ag41
asbsg42
(lp236
F0.0
aF1.0
asg44
I58
sg45
g1
sg46
I19
sa(dp237
g5
F98.62754728291772
sg6
I0
sg7
I2
sg8
(iTFClasses
function
p238
(dp239
g11
(lp240
F8.744802707307528
aF0.2902631607190216
aF0.2531549294028661
aF0.4955105589983475
aF0.41115472554775767
asg13
(lp241
F423.2254430342999
aF87.43371316356196
aF8.900154353415402
aF80.04981343499344
aF8.283354639160745
asg15
(lp242
g17
ag18
asg19
F0.7
sg20
(lp243
g22
ag23
ag24
ag25
asg26
I01
sg27
g28
sg29
(lp244
g31
ag32
ag33
ag34
ag35
asg36
g37
sg38
(lp245
g40
ag41
asbsg42
(lp246
F0.0
aF1.0
asg44
I58
sg45
g1
sg46
I20
sa(dp247
g5
F100.95340516066213
sg6
I0
sg7
I2
sg8
(iTFClasses
function
p248
(dp249
g11
(lp250
F8.4127008479999
aF0.33981408054866336
aF0.26219700947888214
aF0.6581372238098098
aF0.5134275065283855
asg13
(lp251
F412.7264848157556
aF89.89692851674961
aF9.538740897977572
aF80.83052933778237
aF7.458782872418412
asg15
(lp252
g17
ag18
asg19
F0.7
sg20
(lp253
g22
ag23
ag24
ag25
asg26
I01
sg27
g28
sg29
(lp254
g31
ag32
ag33
ag34
ag35
asg36
g37
sg38
(lp255
g40
ag41
asbsg42
(lp256
F0.0
aF1.0
asg44
I58
sg45
g1
sg46
I21
sa(dp257
g5
F103.28659668049794
sg6
I0
sg7
I2
sg8
(iTFClasses
function
p258
(dp259
g11
(lp260
F8.00020679492692
aF0.3464433244855556
aF0.2553562123942532
aF0.6267343566817658
aF0.5128723308723271
asg13
(lp261
F412.28918556687074
aF91.03226941775515
aF10.069676372464365
aF82.92209933336201
aF7.092540295135397
asg15
(lp262
g17
ag18
asg19
F0.7
sg20
(lp263
g22
ag23
ag24
ag25
asg26
I01
sg27
g28
sg29
(lp264
g31
ag32
ag33
ag34
ag35
asg36
g37
sg38
(lp265
g40
ag41
asbsg42
(lp266
F0.0
aF1.0
asg44
I58
sg45
g1
sg46
I22
sa(dp267
g5
F105.6272899122807
sg6
I0
sg7
I2
sg8
(iTFClasses
function
p268
(dp269
g11
(lp270
F8.323703038939852
aF0.32519247163406106
aF0.23843829507180736
aF0.5998155898825956
aF0.4978094063459171
asg13
(lp271
F432.54777585239685
aF94.22413767045697
aF9.749118529927326
aF84.3952963840778
aF7.338688162659035
asg15
(lp272
g17
ag18
asg19
F0.7
sg20
(lp273
g22
ag23
ag24
ag25
asg26
I01
sg27
g28
sg29
(lp274
g31
ag32
ag33
ag34
ag35
asg36
g37
sg38
(lp275
g40
ag41
asbsg42
(lp276
F0.0
aF1.0
asg44
I58
sg45
g1
sg46
I23
sa(dp277
g5
F107.98368996506053
sg6
I0
sg7
I2
sg8
(iTFClasses
function
p278
(dp279
g11
(lp280
F8.097811389242251
aF0.35503090375431157
aF0.25297450231764884
aF0.6400868138326814
aF0.5059754528490834
asg13
(lp281
F423.7666251122974
aF95.51672411961174
aF10.293285328885515
aF87.3845573132426
aF7.51167981233225
asg15
(lp282
g17
ag18
asg19
F0.7
sg20
(lp283
g22
ag23
ag24
ag25
asg26
I01
sg27
g28
sg29
(lp284
g31
ag32
ag33
ag34
ag35
asg36
g37
sg38
(lp285
g40
ag41
asbsg42
(lp286
F0.0
aF1.0
asg44
I58
sg45
g1
sg46
I24
sa(dp287
g5
F110.38397617809555
sg6
I0
sg7
I2
sg8
(iTFClasses
function
p288
(dp289
g11
(lp290
F8.378308179945277
aF0.32259792744716975
aF0.25017440024238713
aF0.5601784617647922
aF0.4574775744448645
asg13
(lp291
F433.1351327404157
aF98.2441623367231
aF9.982320463576277
aF89.66862474223434
aF8.072605190933558
asg15
(lp292
g17
ag18
asg19
F0.7
sg20
(lp293
g22
ag23
ag24
ag25
asg26
I01
sg27
g28
sg29
(lp294
g31
ag32
ag33
ag34
ag35
asg36
g37
sg38
(lp295
g40
ag41
asbsg42
(lp296
F0.0
aF1.0
asg44
I58
sg45
g1
sg46
I25
sa(dp297
g5
F112.80028255643983
sg6
I0
sg7
I2
sg8
(iTFClasses
function
p298
(dp299
g11
(lp300
F8.773483756425161
aF0.32285679124511546
aF0.2621108990704659
aF0.5911772767834051
aF0.4731325980579797
asg13
(lp301
F447.4497459186368
aF100.39315965972968
aF9.895793424498533
aF91.88211714079816
aF8.156178091117571
asg15
(lp302
g17
ag18
asg19
F0.7
sg20
(lp303
g22
ag23
ag24
ag25
asg26
I01
sg27
g28
sg29
(lp304
g31
ag32
ag33
ag34
ag35
asg36
g37
sg38
(lp305
g40
ag41
asbsg42
(lp306
F0.0
aF1.0
asg44
I58
sg45
g1
sg46
I26
sa(dp307
g5
F115.2830953981008
sg6
I0
sg7
I2
sg8
(iTFClasses
function
p308
(dp309
g11
(lp310
F8.812534833824426
aF0.32413279616649504
aF0.2738588653513627
aF0.5443637074430967
aF0.46418500107264826
asg13
(lp311
F446.2499942829695
aF102.45137429448494
aF10.289245483710907
aF95.18635154187731
aF8.365431090791242
asg15
(lp312
g17
ag18
asg19
F0.7
sg20
(lp313
g22
ag23
ag24
ag25
asg26
I01
sg27
g28
sg29
(lp314
g31
ag32
ag33
ag34
ag35
asg36
g37
sg38
(lp315
g40
ag41
asbsg42
(lp316
F0.0
aF1.0
asg44
I58
sg45
g1
sg46
I27
sa(dp317
g5
F117.80227454323996
sg6
I0
sg7
I2
sg8
(iTFClasses
function
p318
(dp319
g11
(lp320
F8.784048543681147
aF0.3378068219201893
aF0.25646101149218214
aF0.6021502807491359
aF0.4944073575688934
asg13
(lp321
F452.31053750364447
aF105.62318141035291
aF10.351808481848135
aF95.20928037921652
aF8.109967207945212
asg15
(lp322
g17
ag18
asg19
F0.7
sg20
(lp323
g22
ag23
ag24
ag25
asg26
I01
sg27
g28
sg29
(lp324
g31
ag32
ag33
ag34
ag35
asg36
g37
sg38
(lp325
g40
ag41
asbsg42
(lp326
F0.0
aF1.0
asg44
I58
sg45
g1
sg46
I28
sa(dp327
g5
F120.3309139858433
sg6
I0
sg7
I2
sg8
(iTFClasses
function
p328
(dp329
g11
(lp330
F8.989710320306097
aF0.3131746954583008
aF0.25755996195209185
aF0.5373464506463179
aF0.44544720200218
asg13
(lp331
F455.34814323717956
aF107.45999100317569
aF9.963832123911388
aF97.23822479916808
aF9.629851050729332
asg15
(lp332
g17
ag18
asg19
F0.7
sg20
(lp333
g22
ag23
ag24
ag25
asg26
I01
sg27
g28
sg29
(lp334
g31
ag32
ag33
ag34
ag35
asg36
g37
sg38
(lp335
g40
ag41
asbsg42
(lp336
F0.0
aF1.0
asg44
I58
sg45
g1
sg46
I29
sa(dp337
g5
F122.8960549894532
sg6
I0
sg7
I2
sg8
(iTFClasses
function
p338
(dp339
g11
(lp340
F9.368876681952282
aF0.337197989430301
aF0.287810891363649
aF0.6508384719252049
aF0.5175975199138705
asg13
(lp341
F465.6281320118575
aF110.38833061641766
aF10.399681938168426
aF98.95147581866065
aF9.010922368119733
asg15
(lp342
g17
ag18
asg19
F0.7
sg20
(lp343
g22
ag23
ag24
ag25
asg26
I01
sg27
g28
sg29
(lp344
g31
ag32
ag33
ag34
ag35
asg36
g37
sg38
(lp345
g40
ag41
asbsg42
(lp346
F0.0
aF1.0
asg44
I58
sg45
g1
sg46
I30
sa(dp347
g5
F125.50730640858816
sg6
I0
sg7
I2
sg8
(iTFClasses
function
p348
(dp349
g11
(lp350
F9.290183110732963
aF0.3216251882441483
aF0.2647929994514797
aF0.5718139620564031
aF0.4764435459205796
asg13
(lp351
F472.83191552985136
aF112.6886535977198
aF10.294394310323751
aF102.53974316404778
aF9.170754598028852
asg15
(lp352
g17
ag18
asg19
F0.7
sg20
(lp353
g22
ag23
ag24
ag25
asg26
I01
sg27
g28
sg29
(lp354
g31
ag32
ag33
ag34
ag35
asg36
g37
sg38
(lp355
g40
ag41
asbsg42
(lp356
F0.0
aF1.0
asg44
I58
sg45
g1
sg46
I31
sa(dp357
g5
F128.17260004866574
sg6
I0
sg7
I2
sg8
(iTFClasses
function
p358
(dp359
g11
(lp360
F9.602057825601532
aF0.3375538528927038
aF0.2740139142868854
aF0.6006337288972503
aF0.4898916052477613
asg13
(lp361
F479.43779535986977
aF114.7141167612071
aF10.287359272798223
aF104.20594133014394
aF9.201789911252312
asg15
(lp362
g17
ag18
asg19
F0.7
sg20
(lp363
g22
ag23
ag24
ag25
asg26
I01
sg27
g28
sg29
(lp364
g31
ag32
ag33
ag34
ag35
asg36
g37
sg38
(lp365
g40
ag41
asbsg42
(lp366
F0.0
aF1.0
asg44
I58
sg45
g1
sg46
I32
sa(dp367
g5
F130.87950280647522
sg6
I0
sg7
I2
sg8
(iTFClasses
function
p368
(dp369
g11
(lp370
F9.504446223106086
aF0.32563781503878886
aF0.2822481200618343
aF0.5772707136431876
aF0.487149948040444
asg13
(lp371
F482.66939885508884
aF117.2301802544036
aF10.61974685805711
aF106.6519100692807
aF9.90547447895973
asg15
(lp372
g17
ag18
asg19
F0.7
sg20
(lp373
g22
ag23
ag24
ag25
asg26
I01
sg27
g28
sg29
(lp374
g31
ag32
ag33
ag34
ag35
asg36
g37
sg38
(lp375
g40
ag41
asbsg42
(lp376
F0.0
aF1.0
asg44
I58
sg45
g1
sg46
I33
sa(dp377
g5
F133.62980626979615
sg6
I0
sg7
I2
sg8
(iTFClasses
function
p378
(dp379
g11
(lp380
F9.787575421271715
aF0.3231392938775173
aF0.28838912497863856
aF0.5997087341016396
aF0.490777847998503
asg13
(lp381
F489.78912051412186
aF120.21841691809094
aF10.569083118271095
aF107.75700396999432
aF9.796353431968718
asg15
(lp382
g17
ag18
asg19
F0.7
sg20
(lp383
g22
ag23
ag24
ag25
asg26
I01
sg27
g28
sg29
(lp384
g31
ag32
ag33
ag34
ag35
asg36
g37
sg38
(lp385
g40
ag41
asbsg42
(lp386
F0.0
aF1.0
asg44
I58
sg45
g1
sg46
I34
sa(dp387
g5
F136.49223429547118
sg6
I0
sg7
I2
sg8
(iTFClasses
function
p388
(dp389
g11
(lp390
F9.201499186982959
aF0.34003410919726207
aF0.2901659914940069
aF0.5745975450180865
aF0.47144457328884926
asg13
(lp391
F466.7391364851952
aF122.4019977821976
aF11.167819858441174
aF111.83270862541978
aF10.449315614216136
asg15
(lp392
g17
ag18
asg19
F0.7
sg20
(lp393
g22
ag23
ag24
ag25
asg26
I01
sg27
g28
sg29
(lp394
g31
ag32
ag33
ag34
ag35
asg36
g37
sg38
(lp395
g40
ag41
asbsg42
(lp396
F0.0
aF1.0
asg44
I58
sg45
g1
sg46
I35
sa(dp397
g5
F139.40719335985062
sg6
I0
sg7
I2
sg8
(iTFClasses
function
p398
(dp399
g11
(lp400
F9.192657967988602
aF0.3536550053177905
aF0.28895434188558333
aF0.6241762627471346
aF0.49907120678044326
asg13
(lp401
F475.51528614039256
aF124.92941861392269
aF11.396510205125775
aF114.03746832212607
aF9.990721119674696
asg15
(lp402
g17
ag18
asg19
F0.7
sg20
(lp403
g22
ag23
ag24
ag25
asg26
I01
sg27
g28
sg29
(lp404
g31
ag32
ag33
ag34
ag35
asg36
g37
sg38
(lp405
g40
ag41
asbsg42
(lp406
F0.0
aF1.0
asg44
I58
sg45
g1
sg46
I36
sa(dp407
g5
F142.40633073550902
sg6
I0
sg7
I2
sg8
(iTFClasses
function
p408
(dp409
g11
(lp410
F9.348359934627634
aF0.35328529397985875
aF0.29127140597517975
aF0.602390344409578
aF0.5085156695280864
asg13
(lp411
F476.3479981313823
aF127.99108012909906
aF11.46566589026321
aF116.11661201315766
aF10.369074037653746
asg15
(lp412
g17
ag18
asg19
F0.7
sg20
(lp413
g22
ag23
ag24
ag25
asg26
I01
sg27
g28
sg29
(lp414
g31
ag32
ag33
ag34
ag35
asg36
g37
sg38
(lp415
g40
ag41
asbsg42
(lp416
F0.0
aF1.0
asg44
I58
sg45
g1
sg46
I37
sa(dp417
g5
F145.49787583794338
sg6
I0
sg7
I2
sg8
(iTFClasses
function
p418
(dp419
g11
(lp420
F9.549287835030592
aF0.34270609112115835
aF0.27625565003952524
aF0.5914750707632166
aF0.4891768243896468
asg13
(lp421
F495.9269485279167
aF130.5009265614583
aF11.223961708942687
aF118.62895146471624
aF10.408443524869583
asg15
(lp422
g17
ag18
asg19
F0.7
sg20
(lp423
g22
ag23
ag24
ag25
asg26
I01
sg27
g28
sg29
(lp424
g31
ag32
ag33
ag34
ag35
asg36
g37
sg38
(lp425
g40
ag41
asbsg42
(lp426
F0.0
aF1.0
asg44
I58
sg45
g1
sg46
I38
sa(dp427
g5
F148.7230597484787
sg6
I0
sg7
I2
sg8
(iTFClasses
function
p428
(dp429
g11
(lp430
F9.778043421366412
aF0.3733273853967347
aF0.28918110998665814
aF0.6922188203346806
aF0.5856286198633871
asg13
(lp431
F495.96714940500476
aF134.00655322527723
aF11.618807383962814
aF119.65438991286082
aF9.365380266194379
asg15
(lp432
g17
ag18
asg19
F0.7
sg20
(lp433
g22
ag23
ag24
ag25
asg26
I01
sg27
g28
sg29
(lp434
g31
ag32
ag33
ag34
ag35
asg36
g37
sg38
(lp435
g40
ag41
asbsg42
(lp436
F0.0
aF1.0
asg44
I58
sg45
g1
sg46
I39
sa(dp437
g5
F152.06839697560974
sg6
I0
sg7
I2
sg8
(iTFClasses
function
p438
(dp439
g11
(lp440
F9.552919727658534
aF0.369378802911541
aF0.26698543229214433
aF0.6438452425035592
aF0.5439837510955448
asg13
(lp441
F506.64101664051344
aF136.70437012921545
aF11.697123921197594
aF123.21808830192653
aF9.935483026327297
asg15
(lp442
g17
ag18
asg19
F0.7
sg20
(lp443
g22
ag23
ag24
ag25
asg26
I01
sg27
g28
sg29
(lp444
g31
ag32
ag33
ag34
ag35
asg36
g37
sg38
(lp445
g40
ag41
asbsg42
(lp446
F0.0
aF1.0
asg44
I58
sg45
g1
sg46
I40
sa(dp447
g5
F155.51292342188643
sg6
I0
sg7
I2
sg8
(iTFClasses
function
p448
(dp449
g11
(lp450
F9.968016217845097
aF0.3634681764166885
aF0.30756210105914494
aF0.6326315782476257
aF0.5238052655017196
asg13
(lp451
F498.8520835670598
aF139.7354985830757
aF11.638050328750982
aF127.15880719099863
aF11.317406424965814
asg15
(lp452
g17
ag18
asg19
F0.7
sg20
(lp453
g22
ag23
ag24
ag25
asg26
I01
sg27
g28
sg29
(lp454
g31
ag32
ag33
ag34
ag35
asg36
g37
sg38
(lp455
g40
ag41
asbsg42
(lp456
F0.0
aF1.0
asg44
I58
sg45
g1
sg46
I41
sa(dp457
g5
F159.10252582190114
sg6
I0
sg7
I2
sg8
(iTFClasses
function
p458
(dp459
g11
(lp460
F9.898231456348602
aF0.33430870091098086
aF0.26249673277678465
aF0.5795481113160861
aF0.46985655638614965
asg13
(lp461
F531.065554380229
aF143.1146362802719
aF11.467101187122907
aF129.70468797235264
aF11.088772345163033
asg15
(lp462
g17
ag18
asg19
F0.7
sg20
(lp463
g22
ag23
ag24
ag25
asg26
I01
sg27
g28
sg29
(lp464
g31
ag32
ag33
ag34
ag35
asg36
g37
sg38
(lp465
g40
ag41
asbsg42
(lp466
F0.0
aF1.0
asg44
I58
sg45
g1
sg46
I42
sa(dp467
g5
F162.848077384728
sg6
I0
sg7
I2
sg8
(iTFClasses
function
p468
(dp469
g11
(lp470
F9.859770934038623
aF0.3699575445810126
aF0.2985681326240215
aF0.6636232370433532
aF0.5377138052597425
asg13
(lp471
F514.2144166796039
aF146.82245724321587
aF12.1639097713655
aF132.31310379504433
aF11.2688247224485
asg15
(lp472
g17
ag18
asg19
F0.7
sg20
(lp473
g22
ag23
ag24
ag25
asg26
I01
sg27
g28
sg29
(lp474
g31
ag32
ag33
ag34
ag35
asg36
g37
sg38
(lp475
g40
ag41
asbsg42
(lp476
F0.0
aF1.0
asg44
I58
sg45
g1
sg46
I43
sa(dp477
g5
F166.83015431356623
sg6
I0
sg7
I2
sg8
(iTFClasses
function
p478
(dp479
g11
(lp480
F10.145674618027805
aF0.368289802998234
aF0.31192809759528295
aF0.675291476564098
aF0.5610062185723015
asg13
(lp481
F518.9154276653528
aF150.02227355831567
aF12.133789065311152
aF135.04723804877995
aF12.210378909220498
asg15
(lp482
g17
ag18
asg19
F0.7
sg20
(lp483
g22
ag23
ag24
ag25
asg26
I01
sg27
g28
sg29
(lp484
g31
ag32
ag33
ag34
ag35
asg36
g37
sg38
(lp485
g40
ag41
asbsg42
(lp486
F0.0
aF1.0
asg44
I58
sg45
g1
sg46
I44
sa(dp487
g5
F171.0635175487013
sg6
I0
sg7
I2
sg8
(iTFClasses
function
p488
(dp489
g11
(lp490
F10.245317401803144
aF0.3678328960202606
aF0.3213755588655225
aF0.655259948634054
aF0.5505019712238051
asg13
(lp491
F520.2121158534491
aF153.88520714956218
aF12.448717151317567
aF138.4108835574986
aF12.21811436854603
asg15
(lp492
g17
ag18
asg19
F0.7
sg20
(lp493
g22
ag23
ag24
ag25
asg26
I01
sg27
g28
sg29
(lp494
g31
ag32
ag33
ag34
ag35
asg36
g37
sg38
(lp495
g40
ag41
asbsg42
(lp496
F0.0
aF1.0
asg44
I58
sg45
g1
sg46
I45
sa(dp497
g5
F175.58581916449936
sg6
I0
sg7
I2
sg8
(iTFClasses
function
p498
(dp499
g11
(lp500
F10.075299798694946
aF0.37466532910362105
aF0.303137097318829
aF0.6627958819939863
aF0.5510568670522016
asg13
(lp501
F531.6208097757834
aF157.56100508284206
aF12.741401261866848
aF142.00092691301353
aF11.94149343852169
asg15
(lp502
g17
ag18
asg19
F0.7
sg20
(lp503
g22
ag23
ag24
ag25
asg26
I01
sg27
g28
sg29
(lp504
g31
ag32
ag33
ag34
ag35
asg36
g37
sg38
(lp505
g40
ag41
asbsg42
(lp506
F0.0
aF1.0
asg44
I58
sg45
g1
sg46
I46
sa(dp507
g5
F180.4199216205245
sg6
I0
sg7
I2
sg8
(iTFClasses
function
p508
(dp509
g11
(lp510
F10.042527185113986
aF0.38617626314595555
aF0.31626804016610066
aF0.6659026826757213
aF0.5401122680741555
asg13
(lp511
F531.3988998816394
aF161.52278133289556
aF13.239132682754562
aF147.1452482826079
aF12.354373059650147
asg15
(lp512
g17
ag18
asg19
F0.7
sg20
(lp513
g22
ag23
ag24
ag25
asg26
I01
sg27
g28
sg29
(lp514
g31
ag32
ag33
ag34
ag35
asg36
g37
sg38
(lp515
g40
ag41
asbsg42
(lp516
F0.0
aF1.0
asg44
I58
sg45
g1
sg46
I47
sa(dp517
g5
F185.6680368292683
sg6
I0
sg7
I2
sg8
(iTFClasses
function
p518
(dp519
g11
(lp520
F10.688451736994756
aF0.37476098273062064
aF0.32775227127973583
aF0.6720208916492965
aF0.556061646376504
asg13
(lp521
F542.6109567884686
aF167.01180146275203
aF12.889442061523981
aF149.92577449588546
aF12.471215097821787
asg15
(lp522
g17
ag18
asg19
F0.7
sg20
(lp523
g22
ag23
ag24
ag25
asg26
I01
sg27
g28
sg29
(lp524
g31
ag32
ag33
ag34
ag35
asg36
g37
sg38
(lp525
g40
ag41
asbsg42
(lp526
F0.0
aF1.0
asg44
I58
sg45
g1
sg46
I48
sa(dp527
g5
F191.37881897727274
sg6
I0
sg7
I2
sg8
(iTFClasses
function
p528
(dp529
g11
(lp530
F10.552642696834974
aF0.3986996658070012
aF0.3310285865432139
aF0.6938446664859299
aF0.5865641009891736
asg13
(lp531
F541.0460272101362
aF171.95934525699374
aF13.340027715865066
aF155.74384587051975
aF13.162579200230894
asg15
(lp532
g17
ag18
asg19
F0.7
sg20
(lp533
g22
ag23
ag24
ag25
asg26
I01
sg27
g28
sg29
(lp534
g31
ag32
ag33
ag34
ag35
asg36
g37
sg38
(lp535
g40
ag41
asbsg42
(lp536
F0.0
aF1.0
asg44
I58
sg45
g1
sg46
I49
sa(dp537
g5
F197.61136095895978
sg6
I0
sg7
I2
sg8
(iTFClasses
function
p538
(dp539
g11
(lp540
F10.508752309453477
aF0.39741303104226233
aF0.3331843821304803
aF0.7117580934261554
aF0.5795303797284097
asg13
(lp541
F549.5786229192588
aF177.5222351720668
aF13.638917586644927
aF160.34865829608464
aF13.717807906995727
asg15
(lp542
g17
ag18
asg19
F0.7
sg20
(lp543
g22
ag23
ag24
ag25
asg26
I01
sg27
g28
sg29
(lp544
g31
ag32
ag33
ag34
ag35
asg36
g37
sg38
(lp545
g40
ag41
asbsg42
(lp546
F0.0
aF1.0
asg44
I58
sg45
g1
sg46
I50
sa(dp547
g5
F204.53298991228073
sg6
I0
sg7
I2
sg8
(iTFClasses
function
p548
(dp549
g11
(lp550
F10.328214278300775
aF0.417876113054092
aF0.35406206561705567
aF0.7451385096465657
aF0.6266907349038453
asg13
(lp551
F533.5362881589202
aF183.87342729749847
aF14.720301290385374
aF163.9464356424324
aF13.4428259346403
asg15
(lp552
g17
ag18
asg19
F0.7
sg20
(lp553
g22
ag23
ag24
ag25
asg26
I01
sg27
g28
sg29
(lp554
g31
ag32
ag33
ag34
ag35
asg36
g37
sg38
(lp555
g40
ag41
asbsg42
(lp556
F0.0
aF1.0
asg44
I58
sg45
g1
sg46
I51
sa(dp557
g5
F212.41885568652958
sg6
I0
sg7
I2
sg8
(iTFClasses
function
p558
(dp559
g11
(lp560
F10.61693942901248
aF0.4393072553445023
aF0.3641627149815756
aF0.7827973796922123
aF0.6546039692814087
asg13
(lp561
F553.0749547290643
aF190.9538871935239
aF14.844837299645807
aF171.618773074925
aF15.064592130594189
asg15
(lp562
g17
ag18
asg19
F0.7
sg20
(lp563
g22
ag23
ag24
ag25
asg26
I01
sg27
g28
sg29
(lp564
g31
ag32
ag33
ag34
ag35
asg36
g37
sg38
(lp565
g40
ag41
asbsg42
(lp566
F0.0
aF1.0
asg44
I58
sg45
g1
sg46
I52
sa(dp567
g5
F221.52833903508773
sg6
I0
sg7
I2
sg8
(iTFClasses
function
p568
(dp569
g11
(lp570
F10.674100312149962
aF0.43936060636841034
aF0.3762369730344046
aF0.7780198532762768
aF0.6259423755199389
asg13
(lp571
F547.6616002710126
aF199.25347668329837
aF15.16351992171261
aF179.38006562376742
aF15.780011209528876
asg15
(lp572
g17
ag18
asg19
F0.7
sg20
(lp573
g22
ag23
ag24
ag25
asg26
I01
sg27
g28
sg29
(lp574
g31
ag32
ag33
ag34
ag35
asg36
g37
sg38
(lp575
g40
ag41
asbsg42
(lp576
F0.0
aF1.0
asg44
I58
sg45
g1
sg46
I53
sa(dp577
g5
F232.17268903508773
sg6
I0
sg7
I2
sg8
(iTFClasses
function
p578
(dp579
g11
(lp580
F10.843809807049501
aF0.44329672809934095
aF0.37901784523636195
aF0.8111123402754288
aF0.6572283884235803
asg13
(lp581
F563.7208441123032
aF209.41447716457404
aF15.870298030349339
aF185.86666584887837
aF14.872926138163379
asg15
(lp582
g17
ag18
asg19
F0.7
sg20
(lp583
g22
ag23
ag24
ag25
asg26
I01
sg27
g28
sg29
(lp584
g31
ag32
ag33
ag34
ag35
asg36
g37
sg38
(lp585
g40
ag41
asbsg42
(lp586
F0.0
aF1.0
asg44
I58
sg45
g1
sg46
I54
sa(dp587
g5
F245.20708881306362
sg6
I0
sg7
I2
sg8
(iTFClasses
function
p588
(dp589
g11
(lp590
F11.325051030769647
aF0.4600642052943016
aF0.40437663034437143
aF0.8325663788484547
aF0.6739805094639877
asg13
(lp591
F580.2585339916538
aF220.44339812727003
aF16.092723882480175
aF197.46473192079628
aF17.191179454602135
asg15
(lp592
g17
ag18
asg19
F0.7
sg20
(lp593
g22
ag23
ag24
ag25
asg26
I01
sg27
g28
sg29
(lp594
g31
ag32
ag33
ag34
ag35
asg36
g37
sg38
(lp595
g40
ag41
asbsg42
(lp596
F0.0
aF1.0
asg44
I58
sg45
g1
sg46
I55
sa(dp597
g5
F261.79085314048916
sg6
I0
sg7
I2
sg8
(iTFClasses
function
p598
(dp599
g11
(lp600
F11.073040818828854
aF0.5068512067505537
aF0.41348835340149215
aF0.9176975878068561
aF0.7596910419276899
asg13
(lp601
F580.3673902470719
aF235.90118551731578
aF17.531792304707807
aF210.82236212981198
aF16.800948312145625
asg15
(lp602
g17
ag18
asg19
F0.7
sg20
(lp603
g22
ag23
ag24
ag25
asg26
I01
sg27
g28
sg29
(lp604
g31
ag32
ag33
ag34
ag35
asg36
g37
sg38
(lp605
g40
ag41
asbsg42
(lp606
F0.0
aF1.0
asg44
I58
sg45
g1
sg46
I56
sa(dp607
g5
F284.8039481722177
sg6
I0
sg7
I2
sg8
(iTFClasses
function
p608
(dp609
g11
(lp610
F10.950281421319465
aF0.5409590215110427
aF0.46888384762022817
aF0.9946204559211225
aF0.7856387981993738
asg13
(lp611
F577.807860037536
aF256.48739983420853
aF19.502580012142555
aF229.92156779279796
aF20.01277113005562
asg15
(lp612
g17
ag18
asg19
F0.7
sg20
(lp613
g22
ag23
ag24
ag25
asg26
I01
sg27
g28
sg29
(lp614
g31
ag32
ag33
ag34
ag35
asg36
g37
sg38
(lp615
g40
ag41
asbsg42
(lp616
F0.0
aF1.0
asg44
I58
sg45
g1
sg46
I57
saa(lp617
(dp618
g5
F40.73780090966123
sg6
I1
sg7
I2
sg8
(iTFClasses
function
p619
(dp620
g11
(lp621
F7.467060270738981
aF0.4538097691626639
aF0.31411289579785784
aF0.9746857007194603
aF0.5182063399558627
asg13
(lp622
F286.74163929849834
aF32.266030979039066
aF5.4491593986868425
aF20.000000000107274
aF10.035935573941002
asg15
(lp623
g17
ag18
asg19
F0.7
sg20
(lp624
g22
ag23
ag24
ag25
asg26
I01
sg27
g28
sg29
(lp625
g31
ag32
ag33
ag34
ag35
asg36
g37
sg38
(lp626
g40
ag41
asbsg42
(lp627
F1.0
aF2.5
asg44
I58
sg45
g1
sg46
I0
sa(dp628
g5
F47.76408772977219
sg6
I1
sg7
I2
sg8
(iTFClasses
function
p629
(dp630
g11
(lp631
F10.323194702368271
aF0.19963666356151322
aF0.12979364771864565
aF0.352682920876088
aF0.3051873589176024
asg13
(lp632
F265.206802356052
aF36.89223209638888
aF3.743963225287028
aF43.947507739848454
aF1.974377924080617
asg15
(lp633
g17
ag18
asg19
F0.7
sg20
(lp634
g22
ag23
ag24
ag25
asg26
I01
sg27
g28
sg29
(lp635
g31
ag32
ag33
ag34
ag35
asg36
g37
sg38
(lp636
g40
ag41
asbsg42
(lp637
F1.0
aF2.5
asg44
I58
sg45
g1
sg46
I1
sa(dp638
g5
F51.88216229971725
sg6
I1
sg7
I2
sg8
(iTFClasses
function
p639
(dp640
g11
(lp641
F8.754101932908558
aF0.20594914218633065
aF0.10771523159064378
aF0.3322667151350842
aF0.32318010331772173
asg13
(lp642
F271.45912993586904
aF38.93681833727587
aF3.784013072962389
aF48.25936335378551
aF1.6341723001149777
asg15
(lp643
g17
ag18
asg19
F0.7
sg20
(lp644
g22
ag23
ag24
ag25
asg26
I01
sg27
g28
sg29
(lp645
g31
ag32
ag33
ag34
ag35
asg36
g37
sg38
(lp646
g40
ag41
asbsg42
(lp647
F1.0
aF2.5
asg44
I58
sg45
g1
sg46
I2
sa(dp648
g5
F55.147731323598684
sg6
I1
sg7
I2
sg8
(iTFClasses
function
p649
(dp650
g11
(lp651
F4.531389710796506
aF0.6958507351104437
aF0.36940898142218126
aF1.9337228586004542
aF1.3523019871005681
asg13
(lp652
F182.03506804933932
aF43.18509441724528
aF7.02029705513596
aF42.850562987274685
aF3.087651628828847
asg15
(lp653
g17
ag18
asg19
F0.7
sg20
(lp654
g22
ag23
ag24
ag25
asg26
I01
sg27
g28
sg29
(lp655
g31
ag32
ag33
ag34
ag35
asg36
g37
sg38
(lp656
g40
ag41
asbsg42
(lp657
F1.0
aF2.5
asg44
I58
sg45
g1
sg46
I3
sa(dp658
g5
F58.100113644918444
sg6
I1
sg7
I2
sg8
(iTFClasses
function
p659
(dp660
g11
(lp661
F4.689244271722816
aF0.49349240058321797
aF0.3294760801836327
aF1.5911129073308459
aF1.1320789778841989
asg13
(lp662
F176.53824524830551
aF46.32524958131805
aF7.449169265774991
aF43.55893072510605
aF5.133291537661511
asg15
(lp663
g17
ag18
asg19
F0.7
sg20
(lp664
g22
ag23
ag24
ag25
asg26
I01
sg27
g28
sg29
(lp665
g31
ag32
ag33
ag34
ag35
asg36
g37
sg38
(lp666
g40
ag41
asbsg42
(lp667
F1.0
aF2.5
asg44
I58
sg45
g1
sg46
I4
sa(dp668
g5
F60.79192305760478
sg6
I1
sg7
I2
sg8
(iTFClasses
function
p669
(dp670
g11
(lp671
F4.943478568599806
aF0.35209385480667166
aF0.2767548917576579
aF1.2851682111176963
aF0.9483824414187603
asg13
(lp672
F179.8462245866803
aF48.99723218597252
aF7.150124678592551
aF42.86833411808401
aF7.289033012058299
asg15
(lp673
g17
ag18
asg19
F0.7
sg20
(lp674
g22
ag23
ag24
ag25
asg26
I01
sg27
g28
sg29
(lp675
g31
ag32
ag33
ag34
ag35
asg36
g37
sg38
(lp676
g40
ag41
asbsg42
(lp677
F1.0
aF2.5
asg44
I58
sg45
g1
sg46
I5
sa(dp678
g5
F63.33573073538655
sg6
I1
sg7
I2
sg8
(iTFClasses
function
p679
(dp680
g11
(lp681
F4.729623834731979
aF0.38697334681579676
aF0.3156807176009635
aF0.974269999615494
aF0.90278452708481
asg13
(lp682
F178.23387921054407
aF51.42700208294219
aF7.819423060216213
aF45.647462478944604
aF5.300941303625795
asg15
(lp683
g17
ag18
asg19
F0.7
sg20
(lp684
g22
ag23
ag24
ag25
asg26
I01
sg27
g28
sg29
(lp685
g31
ag32
ag33
ag34
ag35
asg36
g37
sg38
(lp686
g40
ag41
asbsg42
(lp687
F1.0
aF2.5
asg44
I58
sg45
g1
sg46
I6
sa(dp688
g5
F65.77102301886794
sg6
I1
sg7
I2
sg8
(iTFClasses
function
p689
(dp690
g11
(lp691
F4.447509749164642
aF0.4881102750436703
aF0.35368275452690767
aF0.989875461530513
aF0.8956902014251034
asg13
(lp692
F175.61372892300756
aF52.28393755581679
aF8.340883821034485
aF51.69968087587082
aF4.085904778707183
asg15
(lp693
g17
ag18
asg19
F0.7
sg20
(lp694
g22
ag23
ag24
ag25
asg26
I01
sg27
g28
sg29
(lp695
g31
ag32
ag33
ag34
ag35
asg36
g37
sg38
(lp696
g40
ag41
asbsg42
(lp697
F1.0
aF2.5
asg44
I58
sg45
g1
sg46
I7
sa(dp698
g5
F68.1753059284818
sg6
I1
sg7
I2
sg8
(iTFClasses
function
p699
(dp700
g11
(lp701
F4.213616682749
aF1.6190681746742186
aF1.3369404899857837
aF3.5742221626738875
aF5.186715854216651
asg13
(lp702
F167.7259085419745
aF54.02505982116516
aF9.784210900741774
aF54.74298561624785
aF0.8336298600137848
asg15
(lp703
g17
ag18
asg19
F0.7
sg20
(lp704
g22
ag23
ag24
ag25
asg26
I01
sg27
g28
sg29
(lp705
g31
ag32
ag33
ag34
ag35
asg36
g37
sg38
(lp706
g40
ag41
asbsg42
(lp707
F1.0
aF2.5
asg44
I58
sg45
g1
sg46
I8
sa(dp708
g5
F70.47715626080125
sg6
I1
sg7
I2
sg8
(iTFClasses
function
p709
(dp710
g11
(lp711
F4.859248576435585
aF0.37462998132457415
aF0.2930849134166196
aF0.7140740995533257
aF0.6620762901536903
asg13
(lp712
F187.57465755303267
aF57.58589808900399
aF8.11377529970847
aF52.80435529031266
aF5.7765162760250455
asg15
(lp713
g17
ag18
asg19
F0.7
sg20
(lp714
g22
ag23
ag24
ag25
asg26
I01
sg27
g28
sg29
(lp715
g31
ag32
ag33
ag34
ag35
asg36
g37
sg38
(lp716
g40
ag41
asbsg42
(lp717
F1.0
aF2.5
asg44
I58
sg45
g1
sg46
I9
sa(dp718
g5
F72.71473759823955
sg6
I1
sg7
I2
sg8
(iTFClasses
function
p719
(dp720
g11
(lp721
F4.959074205431341
aF0.4296106706291205
aF0.3518090388711643
aF0.804587322264311
aF0.7905219099397787
asg13
(lp722
F184.62336804800654
aF59.773041331174255
aF8.718415251147693
aF54.61559660420727
aF4.718301669738967
asg15
(lp723
g17
ag18
asg19
F0.7
sg20
(lp724
g22
ag23
ag24
ag25
asg26
I01
sg27
g28
sg29
(lp725
g31
ag32
ag33
ag34
ag35
asg36
g37
sg38
(lp726
g40
ag41
asbsg42
(lp727
F1.0
aF2.5
asg44
I58
sg45
g1
sg46
I10
sa(dp728
g5
F74.86500282663317
sg6
I1
sg7
I2
sg8
(iTFClasses
function
p729
(dp730
g11
(lp731
F8.830497879525502
aF0.32491576386204457
aF0.33900021622290666
aF0.7156015848440767
aF0.46968057636764815
asg13
(lp732
F210.5429683768645
aF64.16108954290283
aF8.90738187133444
aF50.82395635218789
aF6.986966560873498e-09
asg15
(lp733
g17
ag18
asg19
F0.7
sg20
(lp734
g22
ag23
ag24
ag25
asg26
I01
sg27
g28
sg29
(lp735
g31
ag32
ag33
ag34
ag35
asg36
g37
sg38
(lp736
g40
ag41
asbsg42
(lp737
F1.0
aF2.5
asg44
I58
sg45
g1
sg46
I11
sa(dp738
g5
F77.04738986507688
sg6
I1
sg7
I2
sg8
(iTFClasses
function
p739
(dp740
g11
(lp741
F4.9878982828162854
aF0.37906130486712897
aF0.32035642102762285
aF0.6599901722229937
aF0.6100939785655402
asg13
(lp742
F184.2021369779032
aF63.14317188479233
aF8.547128193057363
aF59.34275488317718
aF6.820767068280276
asg15
(lp743
g17
ag18
asg19
F0.7
sg20
(lp744
g22
ag23
ag24
ag25
asg26
I01
sg27
g28
sg29
(lp745
g31
ag32
ag33
ag34
ag35
asg36
g37
sg38
(lp746
g40
ag41
asbsg42
(lp747
F1.0
aF2.5
asg44
I58
sg45
g1
sg46
I12
sa(dp748
g5
F79.24675143036782
sg6
I1
sg7
I2
sg8
(iTFClasses
function
p749
(dp750
g11
(lp751
F5.229028595665095
aF0.38077510208202625
aF0.30551253436683545
aF0.665517287058595
aF0.6088453749408806
asg13
(lp752
F193.17175135552498
aF65.68947527010118
aF8.326727327445326
aF60.19377238348387
aF6.685279816035838
asg15
(lp753
g17
ag18
asg19
F0.7
sg20
(lp754
g22
ag23
ag24
ag25
asg26
I01
sg27
g28
sg29
(lp755
g31
ag32
ag33
ag34
ag35
asg36
g37
sg38
(lp756
g40
ag41
asbsg42
(lp757
F1.0
aF2.5
asg44
I58
sg45
g1
sg46
I13
sa(dp758
g5
F81.3761107764706
sg6
I1
sg7
I2
sg8
(iTFClasses
function
p759
(dp760
g11
(lp761
F5.128947970148602
aF0.38535353899475666
aF0.2987746311396977
aF0.6510536083227372
aF0.585471878049415
asg13
(lp762
F195.41933845876852
aF67.03393238518235
aF8.60593710466806
aF62.40382387499297
aF6.612861191467645
asg15
(lp763
g17
ag18
asg19
F0.7
sg20
(lp764
g22
ag23
ag24
ag25
asg26
I01
sg27
g28
sg29
(lp765
g31
ag32
ag33
ag34
ag35
asg36
g37
sg38
(lp766
g40
ag41
asbsg42
(lp767
F1.0
aF2.5
asg44
I58
sg45
g1
sg46
I14
sa(dp768
g5
F83.50268026377768
sg6
I1
sg7
I2
sg8
(iTFClasses
function
p769
(dp770
g11
(lp771
F4.838189779678991
aF0.45054737171792425
aF0.3409010667389527
aF0.7867924698288888
aF0.6592144774711373
asg13
(lp772
F189.7261898143908
aF68.82739731663585
aF9.690769003172118
aF65.70652521081021
aF5.645360002922262
asg15
(lp773
g17
ag18
asg19
F0.7
sg20
(lp774
g22
ag23
ag24
ag25
asg26
I01
sg27
g28
sg29
(lp775
g31
ag32
ag33
ag34
ag35
asg36
g37
sg38
(lp776
g40
ag41
asbsg42
(lp777
F1.0
aF2.5
asg44
I58
sg45
g1
sg46
I15
sa(dp778
g5
F85.62654010375726
sg6
I1
sg7
I2
sg8
(iTFClasses
function
p779
(dp780
g11
(lp781
F5.0377306638008665
aF0.449526322153595
aF0.3351218925298216
aF0.7841737099079467
aF0.6709910484026804
asg13
(lp782
F191.0737034172514
aF71.08404546180394
aF9.414390272904916
aF66.34978025624768
aF6.153135224869044
asg15
(lp783
g17
ag18
asg19
F0.7
sg20
(lp784
g22
ag23
ag24
ag25
asg26
I01
sg27
g28
sg29
(lp785
g31
ag32
ag33
ag34
ag35
asg36
g37
sg38
(lp786
g40
ag41
asbsg42
(lp787
F1.0
aF2.5
asg44
I58
sg45
g1
sg46
I16
sa(dp788
g5
F87.77301061724518
sg6
I1
sg7
I2
sg8
(iTFClasses
function
p789
(dp790
g11
(lp791
F6.2012475596368395
aF0.81779209355755
aF0.37226233302212197
aF1.819067718800568
aF1.4381284926399673
asg13
(lp792
F199.44786555526682
aF74.1120456515354
aF9.968552683063292
aF65.95892361256935
aF4.629966754443937
asg15
(lp793
g17
ag18
asg19
F0.7
sg20
(lp794
g22
ag23
ag24
ag25
asg26
I01
sg27
g28
sg29
(lp795
g31
ag32
ag33
ag34
ag35
asg36
g37
sg38
(lp796
g40
ag41
asbsg42
(lp797
F1.0
aF2.5
asg44
I58
sg45
g1
sg46
I17
sa(dp798
g5
F89.93407331553323
sg6
I1
sg7
I2
sg8
(iTFClasses
function
p799
(dp800
g11
(lp801
F5.2675769905818575
aF0.5486060288238335
aF0.36484925294860737
aF1.0532095117898805
aF0.822437286220945
asg13
(lp802
F192.11697499401478
aF75.899486287798
aF9.883141165310638
aF69.60523044217277
aF5.71874805036976
asg15
(lp803
g17
ag18
asg19
F0.7
sg20
(lp804
g22
ag23
ag24
ag25
asg26
I01
sg27
g28
sg29
(lp805
g31
ag32
ag33
ag34
ag35
asg36
g37
sg38
(lp806
g40
ag41
asbsg42
(lp807
F1.0
aF2.5
asg44
I58
sg45
g1
sg46
I18
sa(dp808
g5
F92.1091960815047
sg6
I1
sg7
I2
sg8
(iTFClasses
function
p809
(dp810
g11
(lp811
F10.87356375272965
aF0.7412197635222384
aF0.3494369231671346
aF1.958004813856732
aF1.0947024090242063
asg13
(lp812
F207.66783003468768
aF78.7959799300499
aF10.30789968108159
aF66.35103499590421
aF2.582796269704035
asg15
(lp813
g17
ag18
asg19
F0.7
sg20
(lp814
g22
ag23
ag24
ag25
asg26
I01
sg27
g28
sg29
(lp815
g31
ag32
ag33
ag34
ag35
asg36
g37
sg38
(lp816
g40
ag41
asbsg42
(lp817
F1.0
aF2.5
asg44
I58
sg45
g1
sg46
I19
sa(dp818
g5
F94.26347009433962
sg6
I1
sg7
I2
sg8
(iTFClasses
function
p819
(dp820
g11
(lp821
F5.601482815941612
aF0.6814019875941426
aF0.3456193245832129
aF1.4463505292945342
aF1.0910621122433573
asg13
(lp822
F199.62587492837994
aF79.80633568771573
aF10.33373661968129
aF71.31591485415896
aF4.890559582580445
asg15
(lp823
g17
ag18
asg19
F0.7
sg20
(lp824
g22
ag23
ag24
ag25
asg26
I01
sg27
g28
sg29
(lp825
g31
ag32
ag33
ag34
ag35
asg36
g37
sg38
(lp826
g40
ag41
asbsg42
(lp827
F1.0
aF2.5
asg44
I58
sg45
g1
sg46
I20
sa(dp828
g5
F96.45979758507136
sg6
I1
sg7
I2
sg8
(iTFClasses
function
p829
(dp830
g11
(lp831
F5.941478081556619
aF0.5665391306645517
aF0.34398084811115837
aF1.1693900278190554
aF0.8753864216125007
asg13
(lp832
F216.41076905014737
aF82.0160740520355
aF9.706184598785361
aF74.15905668468012
aF5.5646935044810775
asg15
(lp833
g17
ag18
asg19
F0.7
sg20
(lp834
g22
ag23
ag24
ag25
asg26
I01
sg27
g28
sg29
(lp835
g31
ag32
ag33
ag34
ag35
asg36
g37
sg38
(lp836
g40
ag41
asbsg42
(lp837
F1.0
aF2.5
asg44
I58
sg45
g1
sg46
I21
sa(dp838
g5
F98.69332946175638
sg6
I1
sg7
I2
sg8
(iTFClasses
function
p839
(dp840
g11
(lp841
F5.553749838397123
aF0.4369373942716166
aF0.3528435528423186
aF0.7566927084177166
aF0.6458701162735943
asg13
(lp842
F205.96559032238858
aF83.51273200379367
aF9.757895112510905
aF77.06441705675539
aF7.655324525565832
asg15
(lp843
g17
ag18
asg19
F0.7
sg20
(lp844
g22
ag23
ag24
ag25
asg26
I01
sg27
g28
sg29
(lp845
g31
ag32
ag33
ag34
ag35
asg36
g37
sg38
(lp846
g40
ag41
asbsg42
(lp847
F1.0
aF2.5
asg44
I58
sg45
g1
sg46
I22
sa(dp848
g5
F100.90322042032622
sg6
I1
sg7
I2
sg8
(iTFClasses
function
p849
(dp850
g11
(lp851
F5.304807786914637
aF0.4658626893516882
aF0.3569573620668116
aF0.7757977240107294
aF0.6545651183501033
asg13
(lp852
F202.62765625244387
aF84.66081398015261
aF10.361447301831085
aF79.86537501315497
aF6.832225609624709
asg15
(lp853
g17
ag18
asg19
F0.7
sg20
(lp854
g22
ag23
ag24
ag25
asg26
I01
sg27
g28
sg29
(lp855
g31
ag32
ag33
ag34
ag35
asg36
g37
sg38
(lp856
g40
ag41
asbsg42
(lp857
F1.0
aF2.5
asg44
I58
sg45
g1
sg46
I23
sa(dp858
g5
F103.18348811694436
sg6
I1
sg7
I2
sg8
(iTFClasses
function
p859
(dp860
g11
(lp861
F5.756956752398714
aF0.6926613540364741
aF0.3831755736491971
aF1.4527799228418914
aF1.052230052827674
asg13
(lp862
F210.37296040431434
aF87.46481069032521
aF10.709091327344211
aF79.93250079654774
aF5.411237810453273
asg15
(lp863
g17
ag18
asg19
F0.7
sg20
(lp864
g22
ag23
ag24
ag25
asg26
I01
sg27
g28
sg29
(lp865
g31
ag32
ag33
ag34
ag35
asg36
g37
sg38
(lp866
g40
ag41
asbsg42
(lp867
F1.0
aF2.5
asg44
I58
sg45
g1
sg46
I24
sa(dp868
g5
F105.45988349788435
sg6
I1
sg7
I2
sg8
(iTFClasses
function
p869
(dp870
g11
(lp871
F5.614736672472079
aF0.5451622903677844
aF0.37089927554084845
aF1.0341681430730176
aF0.8445081646641373
asg13
(lp872
F208.45821177388936
aF89.33653142743506
aF10.528845149335385
aF81.05112509916908
aF6.7161176950572
asg15
(lp873
g17
ag18
asg19
F0.7
sg20
(lp874
g22
ag23
ag24
ag25
asg26
I01
sg27
g28
sg29
(lp875
g31
ag32
ag33
ag34
ag35
asg36
g37
sg38
(lp876
g40
ag41
asbsg42
(lp877
F1.0
aF2.5
asg44
I58
sg45
g1
sg46
I25
sa(dp878
g5
F107.75504208045255
sg6
I1
sg7
I2
sg8
(iTFClasses
function
p879
(dp880
g11
(lp881
F5.698456670202371
aF0.4934906076927561
aF0.3590389796967459
aF0.8784362927100773
aF0.7214494751491829
asg13
(lp882
F216.4452281105424
aF91.23276961584115
aF10.379922855051959
aF84.19428399916099
aF7.075689899601834
asg15
(lp883
g17
ag18
asg19
F0.7
sg20
(lp884
g22
ag23
ag24
ag25
asg26
I01
sg27
g28
sg29
(lp885
g31
ag32
ag33
ag34
ag35
asg36
g37
sg38
(lp886
g40
ag41
asbsg42
(lp887
F1.0
aF2.5
asg44
I58
sg45
g1
sg46
I26
sa(dp888
g5
F110.08977253421426
sg6
I1
sg7
I2
sg8
(iTFClasses
function
p889
(dp890
g11
(lp891
F5.780229331342895
aF0.535872971142048
aF0.387750711056289
aF0.9751422795041762
aF0.7591807895863107
asg13
(lp892
F211.12741316697745
aF93.47104321818355
aF10.811232454125076
aF85.60109502652071
aF7.292371629403882
asg15
(lp893
g17
ag18
asg19
F0.7
sg20
(lp894
g22
ag23
ag24
ag25
asg26
I01
sg27
g28
sg29
(lp895
g31
ag32
ag33
ag34
ag35
asg36
g37
sg38
(lp896
g40
ag41
asbsg42
(lp897
F1.0
aF2.5
asg44
I58
sg45
g1
sg46
I27
sa(dp898
g5
F112.46553577031692
sg6
I1
sg7
I2
sg8
(iTFClasses
function
p899
(dp900
g11
(lp901
F6.051105242779866
aF0.5100321772359209
aF0.3809012738985045
aF0.9693245719441705
aF0.8241640786584292
asg13
(lp902
F223.77917554131756
aF96.28007556354594
aF10.739281275188862
aF86.18410506968011
aF7.022602187121141
asg15
(lp903
g17
ag18
asg19
F0.7
sg20
(lp904
g22
ag23
ag24
ag25
asg26
I01
sg27
g28
sg29
(lp905
g31
ag32
ag33
ag34
ag35
asg36
g37
sg38
(lp906
g40
ag41
asbsg42
(lp907
F1.0
aF2.5
asg44
I58
sg45
g1
sg46
I28
sa(dp908
g5
F114.87025302340193
sg6
I1
sg7
I2
sg8
(iTFClasses
function
p909
(dp910
g11
(lp911
F6.141181014943231
aF0.5989929286002251
aF0.38278287343179684
aF1.203834741244684
aF0.9544580459222023
asg13
(lp912
F220.38162072301503
aF97.95996633144301
aF10.940295995322092
aF87.69800739597099
aF7.170494024120844
asg15
(lp913
g17
ag18
asg19
F0.7
sg20
(lp914
g22
ag23
ag24
ag25
asg26
I01
sg27
g28
sg29
(lp915
g31
ag32
ag33
ag34
ag35
asg36
g37
sg38
(lp916
g40
ag41
asbsg42
(lp917
F1.0
aF2.5
asg44
I58
sg45
g1
sg46
I29
sa(dp918
g5
F117.34708449332287
sg6
I1
sg7
I2
sg8
(iTFClasses
function
p919
(dp920
g11
(lp921
F7.3368258133278985
aF0.6556961399592751
aF0.31048326384641634
aF1.5263876928095286
aF1.065183601704156
asg13
(lp922
F236.52318718423803
aF101.27637115719575
aF11.028904333085677
aF88.23703898862858
aF5.467848987323332
asg15
(lp923
g17
ag18
asg19
F0.7
sg20
(lp924
g22
ag23
ag24
ag25
asg26
I01
sg27
g28
sg29
(lp925
g31
ag32
ag33
ag34
ag35
asg36
g37
sg38
(lp926
g40
ag41
asbsg42
(lp927
F1.0
aF2.5
asg44
I58
sg45
g1
sg46
I30
sa(dp928
g5
F119.92593419031196
sg6
I1
sg7
I2
sg8
(iTFClasses
function
p929
(dp930
g11
(lp931
F5.80378964608795
aF0.5301659678789434
aF0.3627972850689396
aF0.9642079304529858
aF0.7712156602269209
asg13
(lp932
F223.5893154264415
aF103.02092621976266
aF11.080134901850002
aF94.02371337000777
aF7.772123330002878
asg15
(lp933
g17
ag18
asg19
F0.7
sg20
(lp934
g22
ag23
ag24
ag25
asg26
I01
sg27
g28
sg29
(lp935
g31
ag32
ag33
ag34
ag35
asg36
g37
sg38
(lp936
g40
ag41
asbsg42
(lp937
F1.0
aF2.5
asg44
I58
sg45
g1
sg46
I31
sa(dp938
g5
F122.52458521547658
sg6
I1
sg7
I2
sg8
(iTFClasses
function
p939
(dp940
g11
(lp941
F5.846405119746232
aF0.5415860647867987
aF0.3762222139045974
aF0.976380577120814
aF0.7807614752891041
asg13
(lp942
F228.00693834026887
aF104.73169752458668
aF11.624049950097138
aF95.76273321597179
aF7.262869835713337
asg15
(lp943
g17
ag18
asg19
F0.7
sg20
(lp944
g22
ag23
ag24
ag25
asg26
I01
sg27
g28
sg29
(lp945
g31
ag32
ag33
ag34
ag35
asg36
g37
sg38
(lp946
g40
ag41
asbsg42
(lp947
F1.0
aF2.5
asg44
I58
sg45
g1
sg46
I32
sa(dp948
g5
F125.16430515075376
sg6
I1
sg7
I2
sg8
(iTFClasses
function
p949
(dp950
g11
(lp951
F6.137225505334377
aF0.6209676437359093
aF0.4202525072343759
aF1.1909815818500178
aF0.9542963207464505
asg13
(lp952
F220.46082714225733
aF106.86563979073175
aF12.01252075045911
aF96.43848640678281
aF6.624904159451939
asg15
(lp953
g17
ag18
asg19
F0.7
sg20
(lp954
g22
ag23
ag24
ag25
asg26
I01
sg27
g28
sg29
(lp955
g31
ag32
ag33
ag34
ag35
asg36
g37
sg38
(lp956
g40
ag41
asbsg42
(lp957
F1.0
aF2.5
asg44
I58
sg45
g1
sg46
I33
sa(dp958
g5
F127.85108631942265
sg6
I1
sg7
I2
sg8
(iTFClasses
function
p959
(dp960
g11
(lp961
F5.71162279628132
aF0.6087368817794641
aF0.3994426084464875
aF1.09452438373458
aF0.8756422487252165
asg13
(lp962
F220.01431922648425
aF108.71118656920093
aF12.353986580193045
aF99.74232679846567
aF7.131386314766841
asg15
(lp963
g17
ag18
asg19
F0.7
sg20
(lp964
g22
ag23
ag24
ag25
asg26
I01
sg27
g28
sg29
(lp965
g31
ag32
ag33
ag34
ag35
asg36
g37
sg38
(lp966
g40
ag41
asbsg42
(lp967
F1.0
aF2.5
asg44
I58
sg45
g1
sg46
I34
sa(dp968
g5
F130.67041583660642
sg6
I1
sg7
I2
sg8
(iTFClasses
function
p969
(dp970
g11
(lp971
F6.134462610458692
aF0.5360387195190768
aF0.3976980101379475
aF0.9354500703530562
aF0.7690878298403652
asg13
(lp972
F232.79456217353584
aF111.40737821815326
aF11.658262258499086
aF103.08302386348562
aF8.918108385367663
asg15
(lp973
g17
ag18
asg19
F0.7
sg20
(lp974
g22
ag23
ag24
ag25
asg26
I01
sg27
g28
sg29
(lp975
g31
ag32
ag33
ag34
ag35
asg36
g37
sg38
(lp976
g40
ag41
asbsg42
(lp977
F1.0
aF2.5
asg44
I58
sg45
g1
sg46
I35
sa(dp978
g5
F133.5492130844054
sg6
I1
sg7
I2
sg8
(iTFClasses
function
p979
(dp980
g11
(lp981
F6.669390393735555
aF0.5580878219124088
aF0.40137828366310124
aF1.1186328390171667
aF0.8844028269165971
asg13
(lp982
F241.00873315480143
aF115.34489840835337
aF11.488460062619499
aF103.18411540345248
aF7.507751655181805
asg15
(lp983
g17
ag18
asg19
F0.7
sg20
(lp984
g22
ag23
ag24
ag25
asg26
I01
sg27
g28
sg29
(lp985
g31
ag32
ag33
ag34
ag35
asg36
g37
sg38
(lp986
g40
ag41
asbsg42
(lp987
F1.0
aF2.5
asg44
I58
sg45
g1
sg46
I36
sa(dp988
g5
F136.4849657869934
sg6
I1
sg7
I2
sg8
(iTFClasses
function
p989
(dp990
g11
(lp991
F6.67817506060597
aF0.5440295456087014
aF0.39921999267689223
aF0.9977066848073264
aF0.8559515340646473
asg13
(lp992
F245.03983751659064
aF117.77071362659689
aF11.559915134876086
aF105.82139804314474
aF8.379515942187442
asg15
(lp993
g17
ag18
asg19
F0.7
sg20
(lp994
g22
ag23
ag24
ag25
asg26
I01
sg27
g28
sg29
(lp995
g31
ag32
ag33
ag34
ag35
asg36
g37
sg38
(lp996
g40
ag41
asbsg42
(lp997
F1.0
aF2.5
asg44
I58
sg45
g1
sg46
I37
sa(dp998
g5
F139.5358034580321
sg6
I1
sg7
I2
sg8
(iTFClasses
function
p999
(dp1000
g11
(lp1001
F6.751486549698534
aF0.5199558254221373
aF0.42711406280476805
aF0.916021521127945
aF0.774926374553953
asg13
(lp1002
F247.0811157994083
aF119.15659858352896
aF11.618107150357272
aF109.68052812829885
aF9.984080148984775
asg15
(lp1003
g17
ag18
asg19
F0.7
sg20
(lp1004
g22
ag23
ag24
ag25
asg26
I01
sg27
g28
sg29
(lp1005
g31
ag32
ag33
ag34
ag35
asg36
g37
sg38
(lp1006
g40
ag41
asbsg42
(lp1007
F1.0
aF2.5
asg44
I58
sg45
g1
sg46
I38
sa(dp1008
g5
F142.63936537435254
sg6
I1
sg7
I2
sg8
(iTFClasses
function
p1009
(dp1010
g11
(lp1011
F6.197448123606274
aF0.5846760057965028
aF0.441387680174266
aF1.0794672976747535
aF0.8950715205982562
asg13
(lp1012
F235.1157513955379
aF123.08719281625899
aF12.990121087129602
aF111.54153434923154
aF8.29402154606651
asg15
(lp1013
g17
ag18
asg19
F0.7
sg20
(lp1014
g22
ag23
ag24
ag25
asg26
I01
sg27
g28
sg29
(lp1015
g31
ag32
ag33
ag34
ag35
asg36
g37
sg38
(lp1016
g40
ag41
asbsg42
(lp1017
F1.0
aF2.5
asg44
I58
sg45
g1
sg46
I39
sa(dp1018
g5
F145.80660480754125
sg6
I1
sg7
I2
sg8
(iTFClasses
function
p1019
(dp1020
g11
(lp1021
F6.762651604271048
aF0.5937938385335357
aF0.427429112340838
aF1.2745524975515679
aF1.0511830791722354
asg13
(lp1022
F248.61078937208663
aF126.19079220208901
aF12.179298339320077
aF111.85760356428207
aF8.762125945671052
asg15
(lp1023
g17
ag18
asg19
F0.7
sg20
(lp1024
g22
ag23
ag24
ag25
asg26
I01
sg27
g28
sg29
(lp1025
g31
ag32
ag33
ag34
ag35
asg36
g37
sg38
(lp1026
g40
ag41
asbsg42
(lp1027
F1.0
aF2.5
asg44
I58
sg45
g1
sg46
I40
sa(dp1028
g5
F149.16500012568736
sg6
I1
sg7
I2
sg8
(iTFClasses
function
p1029
(dp1030
g11
(lp1031
F7.541153218861014
aF0.5091291405486942
aF0.3973325067091471
aF1.0914011794285443
aF0.9294237958195612
asg13
(lp1032
F274.24871532444297
aF130.18397879757967
aF11.247109623717556
aF114.22672128741888
aF9.004646681070039
asg15
(lp1033
g17
ag18
asg19
F0.7
sg20
(lp1034
g22
ag23
ag24
ag25
asg26
I01
sg27
g28
sg29
(lp1035
g31
ag32
ag33
ag34
ag35
asg36
g37
sg38
(lp1036
g40
ag41
asbsg42
(lp1037
F1.0
aF2.5
asg44
I58
sg45
g1
sg46
I41
sa(dp1038
g5
F152.6700999529412
sg6
I1
sg7
I2
sg8
(iTFClasses
function
p1039
(dp1040
g11
(lp1041
F6.757967992398006
aF0.5230145387305924
aF0.3952232707064569
aF0.9346274074794252
aF0.7643698842759736
asg13
(lp1042
F258.29195067078365
aF131.96202322310526
aF12.091398529362696
aF118.9025094423292
aF9.772204263435281
asg15
(lp1043
g17
ag18
asg19
F0.7
sg20
(lp1044
g22
ag23
ag24
ag25
asg26
I01
sg27
g28
sg29
(lp1045
g31
ag32
ag33
ag34
ag35
asg36
g37
sg38
(lp1046
g40
ag41
asbsg42
(lp1047
F1.0
aF2.5
asg44
I58
sg45
g1
sg46
I42
sa(dp1048
g5
F156.2897083018868
sg6
I1
sg7
I2
sg8
(iTFClasses
function
p1049
(dp1050
g11
(lp1051
F6.526332361931779
aF0.5860633119531258
aF0.4410929053944024
aF1.0111127435518554
aF0.8697762225392536
asg13
(lp1052
F245.912345413848
aF134.1304385691779
aF13.048418404478458
aF123.08893964099151
aF9.481602976913027
asg15
(lp1053
g17
ag18
asg19
F0.7
sg20
(lp1054
g22
ag23
ag24
ag25
asg26
I01
sg27
g28
sg29
(lp1055
g31
ag32
ag33
ag34
ag35
asg36
g37
sg38
(lp1056
g40
ag41
asbsg42
(lp1057
F1.0
aF2.5
asg44
I58
sg45
g1
sg46
I43
sa(dp1058
g5
F160.19659406779664
sg6
I1
sg7
I2
sg8
(iTFClasses
function
p1059
(dp1060
g11
(lp1061
F7.254956446131131
aF0.5468709932848554
aF0.4393242296734101
aF0.9848633533472153
aF0.845389540687302
asg13
(lp1062
F266.38351099887564
aF138.18018924224342
aF12.433370605033467
aF125.37942416069858
aF9.267271172202385
asg15
(lp1063
g17
ag18
asg19
F0.7
sg20
(lp1064
g22
ag23
ag24
ag25
asg26
I01
sg27
g28
sg29
(lp1065
g31
ag32
ag33
ag34
ag35
asg36
g37
sg38
(lp1066
g40
ag41
asbsg42
(lp1067
F1.0
aF2.5
asg44
I58
sg45
g1
sg46
I44
sa(dp1068
g5
F164.29876064698493
sg6
I1
sg7
I2
sg8
(iTFClasses
function
p1069
(dp1070
g11
(lp1071
F6.9446016534631925
aF0.573079204611517
aF0.3915377557852091
aF1.0775004630317255
aF0.906848620896961
asg13
(lp1072
F266.7745929879118
aF142.81032130706842
aF12.991535648129936
aF127.21135747652586
aF8.750568965483208
asg15
(lp1073
g17
ag18
asg19
F0.7
sg20
(lp1074
g22
ag23
ag24
ag25
asg26
I01
sg27
g28
sg29
(lp1075
g31
ag32
ag33
ag34
ag35
asg36
g37
sg38
(lp1076
g40
ag41
asbsg42
(lp1077
F1.0
aF2.5
asg44
I58
sg45
g1
sg46
I45
sa(dp1078
g5
F168.60668187814073
sg6
I1
sg7
I2
sg8
(iTFClasses
function
p1079
(dp1080
g11
(lp1081
F6.97759195366168
aF0.6662533391339878
aF0.4428316796302729
aF1.242091583619512
aF1.0598968156408368
asg13
(lp1082
F256.2122924096659
aF146.1409001198673
aF13.802555484062617
aF130.88786742554038
aF9.183188639167671
asg15
(lp1083
g17
ag18
asg19
F0.7
sg20
(lp1084
g22
ag23
ag24
ag25
asg26
I01
sg27
g28
sg29
(lp1085
g31
ag32
ag33
ag34
ag35
asg36
g37
sg38
(lp1086
g40
ag41
asbsg42
(lp1087
F1.0
aF2.5
asg44
I58
sg45
g1
sg46
I46
sa(dp1088
g5
F173.33733373115578
sg6
I1
sg7
I2
sg8
(iTFClasses
function
p1089
(dp1090
g11
(lp1091
F6.968511917086816
aF0.5620512319973869
aF0.42355040583091874
aF0.9709473024079216
aF0.8005287218037509
asg13
(lp1092
F263.4872296599312
aF149.07684099560402
aF13.170967184491179
aF134.25455507193658
aF10.793034811033774
asg15
(lp1093
g17
ag18
asg19
F0.7
sg20
(lp1094
g22
ag23
ag24
ag25
asg26
I01
sg27
g28
sg29
(lp1095
g31
ag32
ag33
ag34
ag35
asg36
g37
sg38
(lp1096
g40
ag41
asbsg42
(lp1097
F1.0
aF2.5
asg44
I58
sg45
g1
sg46
I47
sa(dp1098
g5
F178.45475081709617
sg6
I1
sg7
I2
sg8
(iTFClasses
function
p1099
(dp1100
g11
(lp1101
F6.733492500620167
aF0.6525656480123985
aF0.45417996454183474
aF1.1387546912131796
aF0.9624661587537835
asg13
(lp1102
F260.9259308606879
aF152.9237516670163
aF14.456901586344827
aF139.44504633589264
aF10.34842745113329
asg15
(lp1103
g17
ag18
asg19
F0.7
sg20
(lp1104
g22
ag23
ag24
ag25
asg26
I01
sg27
g28
sg29
(lp1105
g31
ag32
ag33
ag34
ag35
asg36
g37
sg38
(lp1106
g40
ag41
asbsg42
(lp1107
F1.0
aF2.5
asg44
I58
sg45
g1
sg46
I48
sa(dp1108
g5
F183.89216301176472
sg6
I1
sg7
I2
sg8
(iTFClasses
function
p1109
(dp1110
g11
(lp1111
F7.290430306256347
aF0.6712933294332402
aF0.4818758978801245
aF1.3003778191257567
aF1.0769833710483896
asg13
(lp1112
F268.9417593163814
aF158.06268923558824
aF14.376416098072387
aF142.51888600029133
aF9.375686595118227
asg15
(lp1113
g17
ag18
asg19
F0.7
sg20
(lp1114
g22
ag23
ag24
ag25
asg26
I01
sg27
g28
sg29
(lp1115
g31
ag32
ag33
ag34
ag35
asg36
g37
sg38
(lp1116
g40
ag41
asbsg42
(lp1117
F1.0
aF2.5
asg44
I58
sg45
g1
sg46
I49
sa(dp1118
g5
F189.9205026874116
sg6
I1
sg7
I2
sg8
(iTFClasses
function
p1119
(dp1120
g11
(lp1121
F7.20976001630878
aF0.6608169411020128
aF0.5127157874960098
aF1.168637990679457
aF0.9802972203737381
asg13
(lp1122
F265.3500483363021
aF163.21627978160961
aF14.681042268210987
aF149.01667378449693
aF11.707423838826392
asg15
(lp1123
g17
ag18
asg19
F0.7
sg20
(lp1124
g22
ag23
ag24
ag25
asg26
I01
sg27
g28
sg29
(lp1125
g31
ag32
ag33
ag34
ag35
asg36
g37
sg38
(lp1126
g40
ag41
asbsg42
(lp1127
F1.0
aF2.5
asg44
I58
sg45
g1
sg46
I50
sa(dp1128
g5
F196.63795023562676
sg6
I1
sg7
I2
sg8
(iTFClasses
function
p1129
(dp1130
g11
(lp1131
F7.117838486624508
aF0.731528286562309
aF0.5010976814833761
aF1.3675992180952932
aF1.1131051992877001
asg13
(lp1132
F264.36043745733474
aF169.788282953628
aF15.323934067825284
aF153.06497442970323
aF11.080211662858552
asg15
(lp1133
g17
ag18
asg19
F0.7
sg20
(lp1134
g22
ag23
ag24
ag25
asg26
I01
sg27
g28
sg29
(lp1135
g31
ag32
ag33
ag34
ag35
asg36
g37
sg38
(lp1136
g40
ag41
asbsg42
(lp1137
F1.0
aF2.5
asg44
I58
sg45
g1
sg46
I51
sa(dp1138
g5
F204.201502669598
sg6
I1
sg7
I2
sg8
(iTFClasses
function
p1139
(dp1140
g11
(lp1141
F6.867791686707105
aF0.6807643063253437
aF0.5016225576325857
aF1.21496664668787
aF0.9897473863611506
asg13
(lp1142
F265.5996788879928
aF175.3774443242269
aF15.936236726254327
aF158.53440927126624
aF12.070207765676134
asg15
(lp1143
g17
ag18
asg19
F0.7
sg20
(lp1144
g22
ag23
ag24
ag25
asg26
I01
sg27
g28
sg29
(lp1145
g31
ag32
ag33
ag34
ag35
asg36
g37
sg38
(lp1146
g40
ag41
asbsg42
(lp1147
F1.0
aF2.5
asg44
I58
sg45
g1
sg46
I52
sa(dp1148
g5
F213.0842576005025
sg6
I1
sg7
I2
sg8
(iTFClasses
function
p1149
(dp1150
g11
(lp1151
F7.707110245617512
aF0.8330978995739997
aF0.5265842240895768
aF1.814199409017263
aF1.4146551709663395
asg13
(lp1152
F273.5767238699862
aF183.9799236724713
aF16.58899658265034
aF163.27903319089694
aF10.660441433352652
asg15
(lp1153
g17
ag18
asg19
F0.7
sg20
(lp1154
g22
ag23
ag24
ag25
asg26
I01
sg27
g28
sg29
(lp1155
g31
ag32
ag33
ag34
ag35
asg36
g37
sg38
(lp1156
g40
ag41
asbsg42
(lp1157
F1.0
aF2.5
asg44
I58
sg45
g1
sg46
I53
sa(dp1158
g5
F223.49137265735365
sg6
I1
sg7
I2
sg8
(iTFClasses
function
p1159
(dp1160
g11
(lp1161
F7.403938630135958
aF0.7635073241278576
aF0.5884973643799913
aF1.4339075087324744
aF1.2071051865036315
asg13
(lp1162
F273.1485620762177
aF192.74918553692999
aF16.97066041365236
aF173.5688770141578
aF13.490044913572419
asg15
(lp1163
g17
ag18
asg19
F0.7
sg20
(lp1164
g22
ag23
ag24
ag25
asg26
I01
sg27
g28
sg29
(lp1165
g31
ag32
ag33
ag34
ag35
asg36
g37
sg38
(lp1166
g40
ag41
asbsg42
(lp1167
F1.0
aF2.5
asg44
I58
sg45
g1
sg46
I54
sa(dp1168
g5
F236.67031135542643
sg6
I1
sg7
I2
sg8
(iTFClasses
function
p1169
(dp1170
g11
(lp1171
F7.529788543496113
aF0.7041232965952702
aF0.5193994044069274
aF1.366417120048851
aF1.1170180240064322
asg13
(lp1172
F296.87725606735256
aF205.02539656465726
aF17.478685363626624
aF180.43262884783658
aF13.119971203375158
asg15
(lp1173
g17
ag18
asg19
F0.7
sg20
(lp1174
g22
ag23
ag24
ag25
asg26
I01
sg27
g28
sg29
(lp1175
g31
ag32
ag33
ag34
ag35
asg36
g37
sg38
(lp1176
g40
ag41
asbsg42
(lp1177
F1.0
aF2.5
asg44
I58
sg45
g1
sg46
I55
sa(dp1178
g5
F254.3043281294173
sg6
I1
sg7
I2
sg8
(iTFClasses
function
p1179
(dp1180
g11
(lp1181
F10.08516091148201
aF1.1291637116174087
aF0.5871725912090504
aF2.7629907886208684
aF1.9090654285365267
asg13
(lp1182
F279.6459469641504
aF221.1967436902618
aF21.378983213157234
aF191.9989763132481
aF8.613651071452066
asg15
(lp1183
g17
ag18
asg19
F0.7
sg20
(lp1184
g22
ag23
ag24
ag25
asg26
I01
sg27
g28
sg29
(lp1185
g31
ag32
ag33
ag34
ag35
asg36
g37
sg38
(lp1186
g40
ag41
asbsg42
(lp1187
F1.0
aF2.5
asg44
I58
sg45
g1
sg46
I56
sa(dp1188
g5
F280.7226437254594
sg6
I1
sg7
I2
sg8
(iTFClasses
function
p1189
(dp1190
g11
(lp1191
F7.939102741435314
aF0.9382703327895854
aF0.7434861071909928
aF1.7323272694147391
aF1.4866066219535456
asg13
(lp1192
F292.54781180531114
aF241.75886310821383
aF21.414707223507136
aF216.57602371954664
aF16.609083271783565
asg15
(lp1193
g17
ag18
asg19
F0.7
sg20
(lp1194
g22
ag23
ag24
ag25
asg26
I01
sg27
g28
sg29
(lp1195
g31
ag32
ag33
ag34
ag35
asg36
g37
sg38
(lp1196
g40
ag41
asbsg42
(lp1197
F1.0
aF2.5
asg44
I58
sg45
g1
sg46
I57
saasS'l'
p1198
(lp1199
(lp1200
(dp1201
g5
F34.3025512083695
sg6
I0
sg7
I2
sg8
(iTFClasses
function
p1202
(dp1203
g11
(lp1204
F13.863727108680024
aF0.1861605337710408
aF0.14635716349681305
aF0.3946257750727824
aF0.2222565273001802
asg13
(lp1205
F955.6986603189017
aF31.818113862629367
aF4.268726640032194
aF20.000000007910923
aF10.613654407381823
asg15
(lp1206
g17
ag18
asg19
F0.7
sg20
(lp1207
g22
ag23
ag24
ag25
asg26
I01
sg27
g28
sg29
(lp1208
g31
ag32
ag33
ag34
ag35
asg36
g37
sg38
(lp1209
g40
ag41
asbsg42
(lp1210
F0.0
aF1.0
asg44
I58
sg45
g1198
sg46
I0
sa(dp1211
g5
F39.153192530968596
sg6
I0
sg7
I2
sg8
(iTFClasses
function
p1212
(dp1213
g11
(lp1214
F12.016190168563767
aF0.0751387458900652
aF0.0775323195801314
aF0.2102042407115441
aF0.18964272387173065
asg13
(lp1215
F796.6193171175072
aF36.22637521077556
aF4.12425742149225
aF20.000000012235304
aF12.919783260870844
asg15
(lp1216
g17
ag18
asg19
F0.7
sg20
(lp1217
g22
ag23
ag24
ag25
asg26
I01
sg27
g28
sg29
(lp1218
g31
ag32
ag33
ag34
ag35
asg36
g37
sg38
(lp1219
g40
ag41
asbsg42
(lp1220
F0.0
aF1.0
asg44
I58
sg45
g1198
sg46
I1
sa(dp1221
g5
F42.476237181656074
sg6
I0
sg7
I2
sg8
(iTFClasses
function
p1222
(dp1223
g11
(lp1224
F10.488756933697418
aF0.09867186634689418
aF0.09752881975511052
aF0.3032002944282759
aF0.24327031457782589
asg13
(lp1225
F727.7751007825957
aF38.310237912468224
aF5.2832050090309
aF20.000000007009533
aF12.864148806347231
asg15
(lp1226
g17
ag18
asg19
F0.7
sg20
(lp1227
g22
ag23
ag24
ag25
asg26
I01
sg27
g28
sg29
(lp1228
g31
ag32
ag33
ag34
ag35
asg36
g37
sg38
(lp1229
g40
ag41
asbsg42
(lp1230
F0.0
aF1.0
asg44
I58
sg45
g1198
sg46
I2
sa(dp1231
g5
F45.29145376147627
sg6
I0
sg7
I2
sg8
(iTFClasses
function
p1232
(dp1233
g11
(lp1234
F9.964229261370098
aF0.10399292847041863
aF0.09796577944942708
aF0.2233455951447123
aF0.27282889904084495
asg13
(lp1235
F672.8441096264459
aF40.71416711498554
aF5.632787248444071
aF20.000000005731696
aF15.262467631938614
asg15
(lp1236
g17
ag18
asg19
F0.7
sg20
(lp1237
g22
ag23
ag24
ag25
asg26
I01
sg27
g28
sg29
(lp1238
g31
ag32
ag33
ag34
ag35
asg36
g37
sg38
(lp1239
g40
ag41
asbsg42
(lp1240
F0.0
aF1.0
asg44
I58
sg45
g1198
sg46
I3
sa(dp1241
g5
F47.867346873999544
sg6
I0
sg7
I2
sg8
(iTFClasses
function
p1242
(dp1243
g11
(lp1244
F8.48483214299923
aF0.1925370324191249
aF0.12479345392618635
aF0.6889232838008965
aF0.49985852774259154
asg13
(lp1245
F591.347702770125
aF42.65395815262751
aF5.754141166488869
aF40.95112565288076
aF5.804559766911077
asg15
(lp1246
g17
ag18
asg19
F0.7
sg20
(lp1247
g22
ag23
ag24
ag25
asg26
I01
sg27
g28
sg29
(lp1248
g31
ag32
ag33
ag34
ag35
asg36
g37
sg38
(lp1249
g40
ag41
asbsg42
(lp1250
F0.0
aF1.0
asg44
I58
sg45
g1198
sg46
I4
sa(dp1251
g5
F50.28177513933303
sg6
I0
sg7
I2
sg8
(iTFClasses
function
p1252
(dp1253
g11
(lp1254
F10.177105666445419
aF0.10560820038667629
aF0.10288083102599765
aF0.28142208933476986
aF0.2903153795877351
asg13
(lp1255
F672.4116371901488
aF45.37217664076259
aF6.039229399668722
aF20.00000000538921
aF17.6381900909236
asg15
(lp1256
g17
ag18
asg19
F0.7
sg20
(lp1257
g22
ag23
ag24
ag25
asg26
I01
sg27
g28
sg29
(lp1258
g31
ag32
ag33
ag34
ag35
asg36
g37
sg38
(lp1259
g40
ag41
asbsg42
(lp1260
F0.0
aF1.0
asg44
I58
sg45
g1198
sg46
I5
sa(dp1261
g5
F52.57409818979704
sg6
I0
sg7
I2
sg8
(iTFClasses
function
p1262
(dp1263
g11
(lp1264
F9.257654046266639
aF0.18625237027143626
aF0.08638502387375846
aF0.3506311557348667
aF0.2817152692391467
asg13
(lp1265
F618.0422274473407
aF44.86079718586173
aF6.407502370093021
aF50.565862955565315
aF2.606692888019957
asg15
(lp1266
g17
ag18
asg19
F0.7
sg20
(lp1267
g22
ag23
ag24
ag25
asg26
I01
sg27
g28
sg29
(lp1268
g31
ag32
ag33
ag34
ag35
asg36
g37
sg38
(lp1269
g40
ag41
asbsg42
(lp1270
F0.0
aF1.0
asg44
I58
sg45
g1198
sg46
I6
sa(dp1271
g5
F54.77107224226922
sg6
I0
sg7
I2
sg8
(iTFClasses
function
p1272
(dp1273
g11
(lp1274
F8.384758410430587
aF0.18792093162242196
aF0.1439327984814609
aF0.35169913135511877
aF0.33593567529177637
asg13
(lp1275
F592.2996171516677
aF48.27012750822881
aF6.70068457746642
aF48.79390067181468
aF4.646849669318609
asg15
(lp1276
g17
ag18
asg19
F0.7
sg20
(lp1277
g22
ag23
ag24
ag25
asg26
I01
sg27
g28
sg29
(lp1278
g31
ag32
ag33
ag34
ag35
asg36
g37
sg38
(lp1279
g40
ag41
asbsg42
(lp1280
F0.0
aF1.0
asg44
I58
sg45
g1198
sg46
I7
sa(dp1281
g5
F56.912974890230515
sg6
I0
sg7
I2
sg8
(iTFClasses
function
p1282
(dp1283
g11
(lp1284
F7.942459464094067
aF0.21352601924730763
aF0.15659467875012156
aF0.3845406717995594
aF0.3637067605886668
asg13
(lp1285
F573.6743847667339
aF49.84621285354069
aF7.2748125890260695
aF51.629151147756076
aF3.930960106232062
asg15
(lp1286
g17
ag18
asg19
F0.7
sg20
(lp1287
g22
ag23
ag24
ag25
asg26
I01
sg27
g28
sg29
(lp1288
g31
ag32
ag33
ag34
ag35
asg36
g37
sg38
(lp1289
g40
ag41
asbsg42
(lp1290
F0.0
aF1.0
asg44
I58
sg45
g1198
sg46
I8
sa(dp1291
g5
F59.00201293486731
sg6
I0
sg7
I2
sg8
(iTFClasses
function
p1292
(dp1293
g11
(lp1294
F7.733228186630323
aF0.22147688926292375
aF0.1155223810276329
aF0.4125116707768086
aF0.34335793877943166
asg13
(lp1295
F589.4603707674188
aF50.72949460745258
aF7.664797398952317
aF55.53939900588987
aF2.462819184888776
asg15
(lp1296
g17
ag18
asg19
F0.7
sg20
(lp1297
g22
ag23
ag24
ag25
asg26
I01
sg27
g28
sg29
(lp1298
g31
ag32
ag33
ag34
ag35
asg36
g37
sg38
(lp1299
g40
ag41
asbsg42
(lp1300
F0.0
aF1.0
asg44
I58
sg45
g1198
sg46
I9
sa(dp1301
g5
F61.07276993839836
sg6
I0
sg7
I2
sg8
(iTFClasses
function
p1302
(dp1303
g11
(lp1304
F9.01206652382375
aF0.17111735409092077
aF0.14346472298559787
aF0.3233947009525444
aF0.2906625964008147
asg13
(lp1305
F593.0254857351985
aF54.73481588527209
aF6.8739814725070625
aF51.81388037061619
aF7.511672729500263
asg15
(lp1306
g17
ag18
asg19
F0.7
sg20
(lp1307
g22
ag23
ag24
ag25
asg26
I01
sg27
g28
sg29
(lp1308
g31
ag32
ag33
ag34
ag35
asg36
g37
sg38
(lp1309
g40
ag41
asbsg42
(lp1310
F0.0
aF1.0
asg44
I58
sg45
g1198
sg46
I10
sa(dp1311
g5
F63.12585141916907
sg6
I0
sg7
I2
sg8
(iTFClasses
function
p1312
(dp1313
g11
(lp1314
F8.965406590991435
aF0.17694570692918177
aF0.14659206195444252
aF0.3072595077168465
aF0.28765015465087584
asg13
(lp1315
F592.2892676188087
aF56.447646132161836
aF7.113944161888042
aF54.232460662450904
aF7.129622482531683
asg15
(lp1316
g17
ag18
asg19
F0.7
sg20
(lp1317
g22
ag23
ag24
ag25
asg26
I01
sg27
g28
sg29
(lp1318
g31
ag32
ag33
ag34
ag35
asg36
g37
sg38
(lp1319
g40
ag41
asbsg42
(lp1320
F0.0
aF1.0
asg44
I58
sg45
g1198
sg46
I11
sa(dp1321
g5
F65.15842494507507
sg6
I0
sg7
I2
sg8
(iTFClasses
function
p1322
(dp1323
g11
(lp1324
F9.422023786989058
aF0.17276535523524217
aF0.15294751182998167
aF0.29095854139017163
aF0.2617837645286225
asg13
(lp1325
F611.7329792270657
aF58.50111086919167
aF7.173103092176447
aF56.375944035448434
aF6.898572174025008
asg15
(lp1326
g17
ag18
asg19
F0.7
sg20
(lp1327
g22
ag23
ag24
ag25
asg26
I01
sg27
g28
sg29
(lp1328
g31
ag32
ag33
ag34
ag35
asg36
g37
sg38
(lp1329
g40
ag41
asbsg42
(lp1330
F0.0
aF1.0
asg44
I58
sg45
g1198
sg46
I12
sa(dp1331
g5
F67.1819677319211
sg6
I0
sg7
I2
sg8
(iTFClasses
function
p1332
(dp1333
g11
(lp1334
F8.914124708282758
aF0.18181325136204052
aF0.146919196340356
aF0.3089989556981827
aF0.2809304175299676
asg13
(lp1335
F608.4934231672061
aF60.44323415298487
aF7.522639545058607
aF58.09492255555014
aF7.163691357217172
asg15
(lp1336
g17
ag18
asg19
F0.7
sg20
(lp1337
g22
ag23
ag24
ag25
asg26
I01
sg27
g28
sg29
(lp1338
g31
ag32
ag33
ag34
ag35
asg36
g37
sg38
(lp1339
g40
ag41
asbsg42
(lp1340
F0.0
aF1.0
asg44
I58
sg45
g1198
sg46
I13
sa(dp1341
g5
F69.2095310152609
sg6
I0
sg7
I2
sg8
(iTFClasses
function
p1342
(dp1343
g11
(lp1344
F9.379383275488143
aF0.18894204576092122
aF0.16376810150137144
aF0.307499981763943
aF0.2771329879989737
asg13
(lp1345
F612.8151782654265
aF61.893935318390184
aF7.7388267225763085
aF60.357653563916415
aF7.056750040534521
asg15
(lp1346
g17
ag18
asg19
F0.7
sg20
(lp1347
g22
ag23
ag24
ag25
asg26
I01
sg27
g28
sg29
(lp1348
g31
ag32
ag33
ag34
ag35
asg36
g37
sg38
(lp1349
g40
ag41
asbsg42
(lp1350
F0.0
aF1.0
asg44
I58
sg45
g1198
sg46
I14
sa(dp1351
g5
F71.21555436075775
sg6
I0
sg7
I2
sg8
(iTFClasses
function
p1352
(dp1353
g11
(lp1354
F9.168567440297224
aF0.19492563733715684
aF0.16565347631264427
aF0.3199260148129568
aF0.28484743089746134
asg13
(lp1355
F608.8007842097373
aF63.932473506850044
aF8.021917256602617
aF62.10580473532219
aF6.647506368185119
asg15
(lp1356
g17
ag18
asg19
F0.7
sg20
(lp1357
g22
ag23
ag24
ag25
asg26
I01
sg27
g28
sg29
(lp1358
g31
ag32
ag33
ag34
ag35
asg36
g37
sg38
(lp1359
g40
ag41
asbsg42
(lp1360
F0.0
aF1.0
asg44
I58
sg45
g1198
sg46
I15
sa(dp1361
g5
F73.242510806725
sg6
I0
sg7
I2
sg8
(iTFClasses
function
p1362
(dp1363
g11
(lp1364
F9.82581968707639
aF0.1891302133102073
aF0.16342433519933586
aF0.3073628050225139
aF0.26882021964813596
asg13
(lp1365
F640.92475655535
aF66.12492857703029
aF7.784049029918361
aF63.23118186033795
aF7.0706851840180995
asg15
(lp1366
g17
ag18
asg19
F0.7
sg20
(lp1367
g22
ag23
ag24
ag25
asg26
I01
sg27
g28
sg29
(lp1368
g31
ag32
ag33
ag34
ag35
asg36
g37
sg38
(lp1369
g40
ag41
asbsg42
(lp1370
F0.0
aF1.0
asg44
I58
sg45
g1198
sg46
I16
sa(dp1371
g5
F75.24123776741635
sg6
I0
sg7
I2
sg8
(iTFClasses
function
p1372
(dp1373
g11
(lp1374
F9.646645064205641
aF0.2080838715401896
aF0.17011584239062838
aF0.3400618357574672
aF0.2803128621375883
asg13
(lp1375
F636.5435606986118
aF67.77310337105513
aF8.249374193522453
aF65.81606086552866
aF6.737470992286165
asg15
(lp1376
g17
ag18
asg19
F0.7
sg20
(lp1377
g22
ag23
ag24
ag25
asg26
I01
sg27
g28
sg29
(lp1378
g31
ag32
ag33
ag34
ag35
asg36
g37
sg38
(lp1379
g40
ag41
asbsg42
(lp1380
F0.0
aF1.0
asg44
I58
sg45
g1198
sg46
I17
sa(dp1381
g5
F77.2632161339004
sg6
I0
sg7
I2
sg8
(iTFClasses
function
p1382
(dp1383
g11
(lp1384
F10.258483689841167
aF0.18732627943918345
aF0.1644103399305319
aF0.3042219149256198
aF0.2622827213195067
asg13
(lp1385
F663.674675624171
aF70.18741300826068
aF7.78574460869641
aF67.24699947486351
aF7.767272704145678
asg15
(lp1386
g17
ag18
asg19
F0.7
sg20
(lp1387
g22
ag23
ag24
ag25
asg26
I01
sg27
g28
sg29
(lp1388
g31
ag32
ag33
ag34
ag35
asg36
g37
sg38
(lp1389
g40
ag41
asbsg42
(lp1390
F0.0
aF1.0
asg44
I58
sg45
g1198
sg46
I18
sa(dp1391
g5
F79.28904492363802
sg6
I0
sg7
I2
sg8
(iTFClasses
function
p1392
(dp1393
g11
(lp1394
F9.768627109147781
aF0.20517117330286538
aF0.169505141235204
aF0.33488553999873716
aF0.2716674199202407
asg13
(lp1395
F655.6593473603624
aF71.41989125073883
aF8.438663475037412
aF69.71568010029027
aF6.879327501895904
asg15
(lp1396
g17
ag18
asg19
F0.7
sg20
(lp1397
g22
ag23
ag24
ag25
asg26
I01
sg27
g28
sg29
(lp1398
g31
ag32
ag33
ag34
ag35
asg36
g37
sg38
(lp1399
g40
ag41
asbsg42
(lp1400
F0.0
aF1.0
asg44
I58
sg45
g1198
sg46
I19
sa(dp1401
g5
F81.3211562591508
sg6
I0
sg7
I2
sg8
(iTFClasses
function
p1402
(dp1403
g11
(lp1404
F9.959425801693385
aF0.20226284090089308
aF0.16990950413808825
aF0.3292646250772293
aF0.2712968955919659
asg13
(lp1405
F664.6691668492572
aF73.74306618132155
aF8.41520458546774
aF71.47831298975112
aF7.479223010253611
asg15
(lp1406
g17
ag18
asg19
F0.7
sg20
(lp1407
g22
ag23
ag24
ag25
asg26
I01
sg27
g28
sg29
(lp1408
g31
ag32
ag33
ag34
ag35
asg36
g37
sg38
(lp1409
g40
ag41
asbsg42
(lp1410
F0.0
aF1.0
asg44
I58
sg45
g1198
sg46
I20
sa(dp1411
g5
F83.37671175958587
sg6
I0
sg7
I2
sg8
(iTFClasses
function
p1412
(dp1413
g11
(lp1414
F9.977428159696942
aF0.20582550606687278
aF0.16862298732389647
aF0.33608516558373225
aF0.27297890621497123
asg13
(lp1415
F668.965323121959
aF75.67502802582536
aF8.485336318974191
aF73.10858856179361
aF7.725335808509981
asg15
(lp1416
g17
ag18
asg19
F0.7
sg20
(lp1417
g22
ag23
ag24
ag25
asg26
I01
sg27
g28
sg29
(lp1418
g31
ag32
ag33
ag34
ag35
asg36
g37
sg38
(lp1419
g40
ag41
asbsg42
(lp1420
F0.0
aF1.0
asg44
I58
sg45
g1198
sg46
I21
sa(dp1421
g5
F85.44516660877514
sg6
I0
sg7
I2
sg8
(iTFClasses
function
p1422
(dp1423
g11
(lp1424
F10.34886823472412
aF0.19978188050581736
aF0.17095327192751064
aF0.32237954244217093
aF0.2680283634304277
asg13
(lp1425
F687.1634511955968
aF77.42925537584625
aF8.444258291933405
aF75.29491876646716
aF7.818300363253483
asg15
(lp1426
g17
ag18
asg19
F0.7
sg20
(lp1427
g22
ag23
ag24
ag25
asg26
I01
sg27
g28
sg29
(lp1428
g31
ag32
ag33
ag34
ag35
asg36
g37
sg38
(lp1429
g40
ag41
asbsg42
(lp1430
F0.0
aF1.0
asg44
I58
sg45
g1198
sg46
I22
sa(dp1431
g5
F87.54256372616271
sg6
I0
sg7
I2
sg8
(iTFClasses
function
p1432
(dp1433
g11
(lp1434
F10.682617502486055
aF0.20738411803041856
aF0.18437580199903714
aF0.33486395200388586
aF0.27509931611985294
asg13
(lp1435
F691.1097470980017
aF79.56527829937974
aF8.659176542723745
aF76.4937855132502
aF7.904916376827664
asg15
(lp1436
g17
ag18
asg19
F0.7
sg20
(lp1437
g22
ag23
ag24
ag25
asg26
I01
sg27
g28
sg29
(lp1438
g31
ag32
ag33
ag34
ag35
asg36
g37
sg38
(lp1439
g40
ag41
asbsg42
(lp1440
F0.0
aF1.0
asg44
I58
sg45
g1198
sg46
I23
sa(dp1441
g5
F89.66968930088132
sg6
I0
sg7
I2
sg8
(iTFClasses
function
p1442
(dp1443
g11
(lp1444
F10.507468078644314
aF0.21128211132024433
aF0.189239176741407
aF0.33804633948592766
aF0.27910087694899
asg13
(lp1445
F684.3166265696074
aF81.14783056279823
aF8.981335739141617
aF79.6055801620009
aF8.044185218450739
asg15
(lp1446
g17
ag18
asg19
F0.7
sg20
(lp1447
g22
ag23
ag24
ag25
asg26
I01
sg27
g28
sg29
(lp1448
g31
ag32
ag33
ag34
ag35
asg36
g37
sg38
(lp1449
g40
ag41
asbsg42
(lp1450
F0.0
aF1.0
asg44
I58
sg45
g1198
sg46
I24
sa(dp1451
g5
F91.82176455510802
sg6
I0
sg7
I2
sg8
(iTFClasses
function
p1452
(dp1453
g11
(lp1454
F11.031877401643097
aF0.20630449136879037
aF0.19016340429656076
aF0.33252358000326154
aF0.28074107176478913
asg13
(lp1455
F705.1508211277331
aF83.88985715507062
aF8.765093519135792
aF80.65207532577688
aF8.202122087753839
asg15
(lp1456
g17
ag18
asg19
F0.7
sg20
(lp1457
g22
ag23
ag24
ag25
asg26
I01
sg27
g28
sg29
(lp1458
g31
ag32
ag33
ag34
ag35
asg36
g37
sg38
(lp1459
g40
ag41
asbsg42
(lp1460
F0.0
aF1.0
asg44
I58
sg45
g1198
sg46
I25
sa(dp1461
g5
F94.01437704424052
sg6
I0
sg7
I2
sg8
(iTFClasses
function
p1462
(dp1463
g11
(lp1464
F10.44269499094647
aF0.22225257143650623
aF0.1871027559129379
aF0.35884460867692525
aF0.2958230993253541
asg13
(lp1465
F692.7247257445365
aF85.3462246007131
aF9.229779619288836
aF83.08896780340528
aF8.013342858708693
asg15
(lp1466
g17
ag18
asg19
F0.7
sg20
(lp1467
g22
ag23
ag24
ag25
asg26
I01
sg27
g28
sg29
(lp1468
g31
ag32
ag33
ag34
ag35
asg36
g37
sg38
(lp1469
g40
ag41
asbsg42
(lp1470
F0.0
aF1.0
asg44
I58
sg45
g1198
sg46
I26
sa(dp1471
g5
F96.22199810612992
sg6
I0
sg7
I2
sg8
(iTFClasses
function
p1472
(dp1473
g11
(lp1474
F10.755139183204967
aF0.21425996453115204
aF0.18450926406776702
aF0.34669400570223985
aF0.28614043496627506
asg13
(lp1475
F710.3754163027635
aF87.74294276087673
aF9.067404486043706
aF84.41052481201753
aF8.544410542240977
asg15
(lp1476
g17
ag18
asg19
F0.7
sg20
(lp1477
g22
ag23
ag24
ag25
asg26
I01
sg27
g28
sg29
(lp1478
g31
ag32
ag33
ag34
ag35
asg36
g37
sg38
(lp1479
g40
ag41
asbsg42
(lp1480
F0.0
aF1.0
asg44
I58
sg45
g1198
sg46
I27
sa(dp1481
g5
F98.4582604659662
sg6
I0
sg7
I2
sg8
(iTFClasses
function
p1482
(dp1483
g11
(lp1484
F10.956975076941234
aF0.2214647961926488
aF0.19061166406225638
aF0.35542891868762183
aF0.298585071311364
asg13
(lp1485
F722.8533992983388
aF89.81988800094277
aF9.298786623088029
aF86.27546752669723
aF8.44139892620499
asg15
(lp1486
g17
ag18
asg19
F0.7
sg20
(lp1487
g22
ag23
ag24
ag25
asg26
I01
sg27
g28
sg29
(lp1488
g31
ag32
ag33
ag34
ag35
asg36
g37
sg38
(lp1489
g40
ag41
asbsg42
(lp1490
F0.0
aF1.0
asg44
I58
sg45
g1198
sg46
I28
sa(dp1491
g5
F100.74482058069243
sg6
I0
sg7
I2
sg8
(iTFClasses
function
p1492
(dp1493
g11
(lp1494
F10.703728663151509
aF0.22967373141972303
aF0.18444913482729142
aF0.37472333413316505
aF0.30271776494100777
asg13
(lp1495
F726.5312072590198
aF92.04495404867275
aF9.498340822903796
aF88.13728910170055
aF8.471151027397816
asg15
(lp1496
g17
ag18
asg19
F0.7
sg20
(lp1497
g22
ag23
ag24
ag25
asg26
I01
sg27
g28
sg29
(lp1498
g31
ag32
ag33
ag34
ag35
asg36
g37
sg38
(lp1499
g40
ag41
asbsg42
(lp1500
F0.0
aF1.0
asg44
I58
sg45
g1198
sg46
I29
sa(dp1501
g5
F103.07876542307868
sg6
I0
sg7
I2
sg8
(iTFClasses
function
p1502
(dp1503
g11
(lp1504
F10.909662296947921
aF0.2346224043887304
aF0.1896567745346962
aF0.3793499764578172
aF0.31021094859401366
asg13
(lp1505
F735.0449590729858
aF93.56502530035547
aF9.627625962739582
aF90.78212705658724
aF8.10348850922804
asg15
(lp1506
g17
ag18
asg19
F0.7
sg20
(lp1507
g22
ag23
ag24
ag25
asg26
I01
sg27
g28
sg29
(lp1508
g31
ag32
ag33
ag34
ag35
asg36
g37
sg38
(lp1509
g40
ag41
asbsg42
(lp1510
F0.0
aF1.0
asg44
I58
sg45
g1198
sg46
I30
sa(dp1511
g5
F105.46554426828712
sg6
I0
sg7
I2
sg8
(iTFClasses
function
p1512
(dp1513
g11
(lp1514
F10.814136038303477
aF0.2372150795415422
aF0.19792025117998424
aF0.3805026746473885
aF0.3119346246306387
asg13
(lp1515
F733.9738430452766
aF95.99117387856481
aF10.056597546083124
aF93.28865544419139
aF8.10447178609186
asg15
(lp1516
g17
ag18
asg19
F0.7
sg20
(lp1517
g22
ag23
ag24
ag25
asg26
I01
sg27
g28
sg29
(lp1518
g31
ag32
ag33
ag34
ag35
asg36
g37
sg38
(lp1519
g40
ag41
asbsg42
(lp1520
F0.0
aF1.0
asg44
I58
sg45
g1198
sg46
I31
sa(dp1521
g5
F107.9125120318288
sg6
I0
sg7
I2
sg8
(iTFClasses
function
p1522
(dp1523
g11
(lp1524
F11.123761243717162
aF0.2280519956222662
aF0.19001720077760353
aF0.36243818168861
aF0.3061660121545513
asg13
(lp1525
F757.581474869212
aF98.39038277790874
aF9.813646268190258
aF94.98873367913225
aF8.834332591761363
asg15
(lp1526
g17
ag18
asg19
F0.7
sg20
(lp1527
g22
ag23
ag24
ag25
asg26
I01
sg27
g28
sg29
(lp1528
g31
ag32
ag33
ag34
ag35
asg36
g37
sg38
(lp1529
g40
ag41
asbsg42
(lp1530
F0.0
aF1.0
asg44
I58
sg45
g1198
sg46
I32
sa(dp1531
g5
F110.42748767486515
sg6
I0
sg7
I2
sg8
(iTFClasses
function
p1532
(dp1533
g11
(lp1534
F11.332903869361155
aF0.24127673513207526
aF0.1989245679513969
aF0.385281020380674
aF0.3219701723443098
asg13
(lp1535
F760.5746771374177
aF101.02521559711252
aF10.039740134524244
aF96.59053470348715
aF8.783353315062193
asg15
(lp1536
g17
ag18
asg19
F0.7
sg20
(lp1537
g22
ag23
ag24
ag25
asg26
I01
sg27
g28
sg29
(lp1538
g31
ag32
ag33
ag34
ag35
asg36
g37
sg38
(lp1539
g40
ag41
asbsg42
(lp1540
F0.0
aF1.0
asg44
I58
sg45
g1198
sg46
I33
sa(dp1541
g5
F112.98799449524506
sg6
I0
sg7
I2
sg8
(iTFClasses
function
p1542
(dp1543
g11
(lp1544
F11.520344600613909
aF0.24411051764923286
aF0.20640326639170858
aF0.3881246157979419
aF0.3191160058071967
asg13
(lp1545
F760.0200534474582
aF103.32145708001084
aF10.131396823352844
aF99.36265496452542
aF9.247016162276967
asg15
(lp1546
g17
ag18
asg19
F0.7
sg20
(lp1547
g22
ag23
ag24
ag25
asg26
I01
sg27
g28
sg29
(lp1548
g31
ag32
ag33
ag34
ag35
asg36
g37
sg38
(lp1549
g40
ag41
asbsg42
(lp1550
F0.0
aF1.0
asg44
I58
sg45
g1198
sg46
I34
sa(dp1551
g5
F115.6243797940032
sg6
I0
sg7
I2
sg8
(iTFClasses
function
p1552
(dp1553
g11
(lp1554
F11.254640961154411
aF0.24253594402511425
aF0.20302438839048254
aF0.38566986737922093
aF0.3236017467458385
asg13
(lp1555
F760.7453626464212
aF105.55166736004469
aF10.381908935045647
aF101.71635624211198
aF9.593013690986197
asg15
(lp1556
g17
ag18
asg19
F0.7
sg20
(lp1557
g22
ag23
ag24
ag25
asg26
I01
sg27
g28
sg29
(lp1558
g31
ag32
ag33
ag34
ag35
asg36
g37
sg38
(lp1559
g40
ag41
asbsg42
(lp1560
F0.0
aF1.0
asg44
I58
sg45
g1198
sg46
I35
sa(dp1561
g5
F118.34241057534247
sg6
I0
sg7
I2
sg8
(iTFClasses
function
p1562
(dp1563
g11
(lp1564
F11.259102983366109
aF0.24834579286237357
aF0.2046797487961225
aF0.395634274606536
aF0.3259423513128361
asg13
(lp1565
F768.2368802930388
aF108.35727350916258
aF10.610539211206582
aF104.11417154112901
aF9.250139278114911
asg15
(lp1566
g17
ag18
asg19
F0.7
sg20
(lp1567
g22
ag23
ag24
ag25
asg26
I01
sg27
g28
sg29
(lp1568
g31
ag32
ag33
ag34
ag35
asg36
g37
sg38
(lp1569
g40
ag41
asbsg42
(lp1570
F0.0
aF1.0
asg44
I58
sg45
g1198
sg46
I36
sa(dp1571
g5
F121.13582494739731
sg6
I0
sg7
I2
sg8
(iTFClasses
function
p1572
(dp1573
g11
(lp1574
F11.231037711767748
aF0.2583092946367884
aF0.20842068401305447
aF0.4134610469652884
aF0.3464708989229788
asg13
(lp1575
F767.8088408398598
aF110.95157778419981
aF10.871301559153611
aF106.36192184258658
aF9.109576052568569
asg15
(lp1576
g17
ag18
asg19
F0.7
sg20
(lp1577
g22
ag23
ag24
ag25
asg26
I01
sg27
g28
sg29
(lp1578
g31
ag32
ag33
ag34
ag35
asg36
g37
sg38
(lp1579
g40
ag41
asbsg42
(lp1580
F0.0
aF1.0
asg44
I58
sg45
g1198
sg46
I37
sa(dp1581
g5
F124.01849728171334
sg6
I0
sg7
I2
sg8
(iTFClasses
function
p1582
(dp1583
g11
(lp1584
F11.816566221722633
aF0.2437771957950403
aF0.2073533208451499
aF0.39381841077092616
aF0.3246502422655224
asg13
(lp1585
F800.3493749762545
aF113.75186842038734
aF10.585981341246997
aF108.47701538678608
aF9.901624259017083
asg15
(lp1586
g17
ag18
asg19
F0.7
sg20
(lp1587
g22
ag23
ag24
ag25
asg26
I01
sg27
g28
sg29
(lp1588
g31
ag32
ag33
ag34
ag35
asg36
g37
sg38
(lp1589
g40
ag41
asbsg42
(lp1590
F0.0
aF1.0
asg44
I58
sg45
g1198
sg46
I38
sa(dp1591
g5
F127.0214697655286
sg6
I0
sg7
I2
sg8
(iTFClasses
function
p1592
(dp1593
g11
(lp1594
F11.767165578218062
aF0.26086104144103217
aF0.21560681184057362
aF0.42166746549866474
aF0.34694786185851534
asg13
(lp1595
F796.0090421795246
aF116.18284925104405
aF11.003509165046887
aF110.87755197003828
aF9.476011294431096
asg15
(lp1596
g17
ag18
asg19
F0.7
sg20
(lp1597
g22
ag23
ag24
ag25
asg26
I01
sg27
g28
sg29
(lp1598
g31
ag32
ag33
ag34
ag35
asg36
g37
sg38
(lp1599
g40
ag41
asbsg42
(lp1600
F0.0
aF1.0
asg44
I58
sg45
g1198
sg46
I39
sa(dp1601
g5
F130.13007097127723
sg6
I0
sg7
I2
sg8
(iTFClasses
function
p1602
(dp1603
g11
(lp1604
F11.755343369317908
aF0.2523976801513399
aF0.20332673069117835
aF0.4065020632624581
aF0.33197049680949764
asg13
(lp1605
F811.3055754256694
aF119.29562160974162
aF10.856485321181776
aF113.87127118052496
aF9.831329944962164
asg15
(lp1606
g17
ag18
asg19
F0.7
sg20
(lp1607
g22
ag23
ag24
ag25
asg26
I01
sg27
g28
sg29
(lp1608
g31
ag32
ag33
ag34
ag35
asg36
g37
sg38
(lp1609
g40
ag41
asbsg42
(lp1610
F0.0
aF1.0
asg44
I58
sg45
g1198
sg46
I40
sa(dp1611
g5
F133.3882984302778
sg6
I0
sg7
I2
sg8
(iTFClasses
function
p1612
(dp1613
g11
(lp1614
F12.505831019880407
aF0.24528140903987605
aF0.2147384674650592
aF0.39255020827494747
aF0.33410004955125494
asg13
(lp1615
F840.3885976537409
aF122.28684507471843
aF10.844058800033585
aF116.88676837007897
aF9.78118644932524
asg15
(lp1616
g17
ag18
asg19
F0.7
sg20
(lp1617
g22
ag23
ag24
ag25
asg26
I01
sg27
g28
sg29
(lp1618
g31
ag32
ag33
ag34
ag35
asg36
g37
sg38
(lp1619
g40
ag41
asbsg42
(lp1620
F0.0
aF1.0
asg44
I58
sg45
g1198
sg46
I41
sa(dp1621
g5
F136.81197059846266
sg6
I0
sg7
I2
sg8
(iTFClasses
function
p1622
(dp1623
g11
(lp1624
F11.980237801218335
aF0.26218790751285326
aF0.20839746143497262
aF0.41697253698031744
aF0.35106594562700444
asg13
(lp1625
F838.5682540937051
aF125.38589171891466
aF11.356326521299366
aF119.9757538056534
aF9.509133012698957
asg15
(lp1626
g17
ag18
asg19
F0.7
sg20
(lp1627
g22
ag23
ag24
ag25
asg26
I01
sg27
g28
sg29
(lp1628
g31
ag32
ag33
ag34
ag35
asg36
g37
sg38
(lp1629
g40
ag41
asbsg42
(lp1630
F0.0
aF1.0
asg44
I58
sg45
g1198
sg46
I42
sa(dp1631
g5
F140.36922272103868
sg6
I0
sg7
I2
sg8
(iTFClasses
function
p1632
(dp1633
g11
(lp1634
F12.438067963071415
aF0.2601450361385105
aF0.2126350829844137
aF0.4281676205968026
aF0.36038706270297105
asg13
(lp1635
F862.3802120633635
aF129.58578265956945
aF11.333169754047855
aF121.98992605281613
aF9.96026338440581
asg15
(lp1636
g17
ag18
asg19
F0.7
sg20
(lp1637
g22
ag23
ag24
ag25
asg26
I01
sg27
g28
sg29
(lp1638
g31
ag32
ag33
ag34
ag35
asg36
g37
sg38
(lp1639
g40
ag41
asbsg42
(lp1640
F0.0
aF1.0
asg44
I58
sg45
g1198
sg46
I43
sa(dp1641
g5
F144.1236742259567
sg6
I0
sg7
I2
sg8
(iTFClasses
function
p1642
(dp1643
g11
(lp1644
F12.789748652909157
aF0.2554348537512965
aF0.2086180610673125
aF0.4168050424128822
aF0.35092004154779843
asg13
(lp1645
F889.6645550188041
aF133.15929870337226
aF11.274641812285434
aF125.09008950452017
aF9.951828618215863
asg15
(lp1646
g17
ag18
asg19
F0.7
sg20
(lp1647
g22
ag23
ag24
ag25
asg26
I01
sg27
g28
sg29
(lp1648
g31
ag32
ag33
ag34
ag35
asg36
g37
sg38
(lp1649
g40
ag41
asbsg42
(lp1650
F0.0
aF1.0
asg44
I58
sg45
g1198
sg46
I44
sa(dp1651
g5
F148.12428549743964
sg6
I0
sg7
I2
sg8
(iTFClasses
function
p1652
(dp1653
g11
(lp1654
F12.715812272178365
aF0.2604813413854288
aF0.21833858110598126
aF0.42319883495179056
aF0.3612100020168869
asg13
(lp1655
F878.5141557813039
aF136.1148161113769
aF11.610692539842592
aF129.301220552797
aF10.251141915137318
asg15
(lp1656
g17
ag18
asg19
F0.7
sg20
(lp1657
g22
ag23
ag24
ag25
asg26
I01
sg27
g28
sg29
(lp1658
g31
ag32
ag33
ag34
ag35
asg36
g37
sg38
(lp1659
g40
ag41
asbsg42
(lp1660
F0.0
aF1.0
asg44
I58
sg45
g1198
sg46
I45
sa(dp1661
g5
F152.39512214494877
sg6
I0
sg7
I2
sg8
(iTFClasses
function
p1662
(dp1663
g11
(lp1664
F13.23978123870233
aF0.2638394207293402
aF0.23322519079871284
aF0.43000841342640683
aF0.3638880702092617
asg13
(lp1665
F880.1783603204766
aF140.00280470817592
aF11.620939270602593
aF132.62498149651583
aF10.926203753308105
asg15
(lp1666
g17
ag18
asg19
F0.7
sg20
(lp1667
g22
ag23
ag24
ag25
asg26
I01
sg27
g28
sg29
(lp1668
g31
ag32
ag33
ag34
ag35
asg36
g37
sg38
(lp1669
g40
ag41
asbsg42
(lp1670
F0.0
aF1.0
asg44
I58
sg45
g1198
sg46
I46
sa(dp1671
g5
F156.98459004615876
sg6
I0
sg7
I2
sg8
(iTFClasses
function
p1672
(dp1673
g11
(lp1674
F12.96318938668774
aF0.2739049292917457
aF0.22129208618903995
aF0.44225418335454947
aF0.3809836118117138
asg13
(lp1675
F906.6365606016386
aF144.21914313696118
aF12.097726768214635
aF136.423468652937
aF10.313374008511067
asg15
(lp1676
g17
ag18
asg19
F0.7
sg20
(lp1677
g22
ag23
ag24
ag25
asg26
I01
sg27
g28
sg29
(lp1678
g31
ag32
ag33
ag34
ag35
asg36
g37
sg38
(lp1679
g40
ag41
asbsg42
(lp1680
F0.0
aF1.0
asg44
I58
sg45
g1198
sg46
I47
sa(dp1681
g5
F161.93654695389682
sg6
I0
sg7
I2
sg8
(iTFClasses
function
p1682
(dp1683
g11
(lp1684
F13.226910687948834
aF0.2841645070665777
aF0.23329819078465874
aF0.4576019190198082
aF0.38141006097591656
asg13
(lp1685
F910.7011455632213
aF148.6981291487411
aF12.340911750942652
aF141.52912955477194
aF10.612351943442233
asg15
(lp1686
g17
ag18
asg19
F0.7
sg20
(lp1687
g22
ag23
ag24
ag25
asg26
I01
sg27
g28
sg29
(lp1688
g31
ag32
ag33
ag34
ag35
asg36
g37
sg38
(lp1689
g40
ag41
asbsg42
(lp1690
F0.0
aF1.0
asg44
I58
sg45
g1198
sg46
I48
sa(dp1691
g5
F167.34597633563365
sg6
I0
sg7
I2
sg8
(iTFClasses
function
p1692
(dp1693
g11
(lp1694
F13.013435766651742
aF0.29967114407550355
aF0.2377510459972143
aF0.4845191867433556
aF0.405830402645857
asg13
(lp1695
F915.0864020658173
aF153.4870916777165
aF13.020396507156807
aF145.52686217708037
aF10.404479481686991
asg15
(lp1696
g17
ag18
asg19
F0.7
sg20
(lp1697
g22
ag23
ag24
ag25
asg26
I01
sg27
g28
sg29
(lp1698
g31
ag32
ag33
ag34
ag35
asg36
g37
sg38
(lp1699
g40
ag41
asbsg42
(lp1700
F0.0
aF1.0
asg44
I58
sg45
g1198
sg46
I49
sa(dp1701
g5
F173.36634122650568
sg6
I0
sg7
I2
sg8
(iTFClasses
function
p1702
(dp1703
g11
(lp1704
F13.379855500793736
aF0.2869371669973191
aF0.23373151110478396
aF0.4645191550297625
aF0.3896865544439354
asg13
(lp1705
F934.867499055336
aF159.00866474709753
aF12.799942987236857
aF151.08484501500698
aF11.39407145296445
asg15
(lp1706
g17
ag18
asg19
F0.7
sg20
(lp1707
g22
ag23
ag24
ag25
asg26
I01
sg27
g28
sg29
(lp1708
g31
ag32
ag33
ag34
ag35
asg36
g37
sg38
(lp1709
g40
ag41
asbsg42
(lp1710
F0.0
aF1.0
asg44
I58
sg45
g1198
sg46
I50
sa(dp1711
g5
F180.16165686059279
sg6
I0
sg7
I2
sg8
(iTFClasses
function
p1712
(dp1713
g11
(lp1714
F13.774562361336914
aF0.3031293948307763
aF0.2631044108514784
aF0.49595509349403244
aF0.4211433927970294
asg13
(lp1715
F936.1899521866883
aF165.76736648255687
aF13.537345577255167
aF156.44021201811134
aF10.941232543022927
asg15
(lp1716
g17
ag18
asg19
F0.7
sg20
(lp1717
g22
ag23
ag24
ag25
asg26
I01
sg27
g28
sg29
(lp1718
g31
ag32
ag33
ag34
ag35
asg36
g37
sg38
(lp1719
g40
ag41
asbsg42
(lp1720
F0.0
aF1.0
asg44
I58
sg45
g1198
sg46
I51
sa(dp1721
g5
F187.91199363686232
sg6
I0
sg7
I2
sg8
(iTFClasses
function
p1722
(dp1723
g11
(lp1724
F13.365706406064268
aF0.32043472427078257
aF0.25277550682262273
aF0.5193927019148958
aF0.4433729621158289
asg13
(lp1725
F935.0746006658002
aF172.67515649593608
aF13.905430547151543
aF163.69878927499389
aF11.92332565610943
asg15
(lp1726
g17
ag18
asg19
F0.7
sg20
(lp1727
g22
ag23
ag24
ag25
asg26
I01
sg27
g28
sg29
(lp1728
g31
ag32
ag33
ag34
ag35
asg36
g37
sg38
(lp1729
g40
ag41
asbsg42
(lp1730
F0.0
aF1.0
asg44
I58
sg45
g1198
sg46
I52
sa(dp1731
g5
F197.0409912137143
sg6
I0
sg7
I2
sg8
(iTFClasses
function
p1732
(dp1733
g11
(lp1734
F14.125071401743908
aF0.31332083132846833
aF0.2527081903496704
aF0.5136279782666264
aF0.433087532814902
asg13
(lp1735
F983.1365194999469
aF181.6595412747305
aF13.850720563304053
aF171.04904446793768
aF12.527578410902795
asg15
(lp1736
g17
ag18
asg19
F0.7
sg20
(lp1737
g22
ag23
ag24
ag25
asg26
I01
sg27
g28
sg29
(lp1738
g31
ag32
ag33
ag34
ag35
asg36
g37
sg38
(lp1739
g40
ag41
asbsg42
(lp1740
F0.0
aF1.0
asg44
I58
sg45
g1198
sg46
I53
sa(dp1741
g5
F208.23932018466041
sg6
I0
sg7
I2
sg8
(iTFClasses
function
p1742
(dp1743
g11
(lp1744
F13.708681207630713
aF0.3347119608021103
aF0.2549301020891015
aF0.5490871373992263
aF0.44924005385860166
asg13
(lp1745
F980.3372533355757
aF191.4358649899771
aF14.788697372373537
aF179.8718547886567
aF13.04800637651027
asg15
(lp1746
g17
ag18
asg19
F0.7
sg20
(lp1747
g22
ag23
ag24
ag25
asg26
I01
sg27
g28
sg29
(lp1748
g31
ag32
ag33
ag34
ag35
asg36
g37
sg38
(lp1749
g40
ag41
asbsg42
(lp1750
F0.0
aF1.0
asg44
I58
sg45
g1198
sg46
I54
sa(dp1751
g5
F222.57953873519594
sg6
I0
sg7
I2
sg8
(iTFClasses
function
p1752
(dp1753
g11
(lp1754
F13.700505193378097
aF0.3634369746943946
aF0.2880038103286182
aF0.5959369626417867
aF0.5049354720926269
asg13
(lp1755
F973.2131045082706
aF204.5298188015739
aF16.26527785524967
aF192.9450889494797
aF13.28496392920031
asg15
(lp1756
g17
ag18
asg19
F0.7
sg20
(lp1757
g22
ag23
ag24
ag25
asg26
I01
sg27
g28
sg29
(lp1758
g31
ag32
ag33
ag34
ag35
asg36
g37
sg38
(lp1759
g40
ag41
asbsg42
(lp1760
F0.0
aF1.0
asg44
I58
sg45
g1198
sg46
I55
sa(dp1761
g5
F242.39524469135804
sg6
I0
sg7
I2
sg8
(iTFClasses
function
p1762
(dp1763
g11
(lp1764
F14.311915136715442
aF0.3850995819551031
aF0.30959227366128594
aF0.6322656762247902
aF0.5356585406179892
asg13
(lp1765
F1011.7626128003341
aF222.48371283157385
aF17.322174746699393
aF209.76641152564844
aF14.513098365221744
asg15
(lp1766
g17
ag18
asg19
F0.7
sg20
(lp1767
g22
ag23
ag24
ag25
asg26
I01
sg27
g28
sg29
(lp1768
g31
ag32
ag33
ag34
ag35
asg36
g37
sg38
(lp1769
g40
ag41
asbsg42
(lp1770
F0.0
aF1.0
asg44
I58
sg45
g1198
sg46
I56
sa(dp1771
g5
F274.6941617941567
sg6
I0
sg7
I2
sg8
(iTFClasses
function
p1772
(dp1773
g11
(lp1774
F14.555484906327113
aF0.46151734611068207
aF0.3673517437079443
aF0.7607754338021664
aF0.6341449106190824
asg13
(lp1775
F1033.0521988743692
aF252.8244058506632
aF20.376464884313993
aF238.7689472690989
aF16.349101306976866
asg15
(lp1776
g17
ag18
asg19
F0.7
sg20
(lp1777
g22
ag23
ag24
ag25
asg26
I01
sg27
g28
sg29
(lp1778
g31
ag32
ag33
ag34
ag35
asg36
g37
sg38
(lp1779
g40
ag41
asbsg42
(lp1780
F0.0
aF1.0
asg44
I58
sg45
g1198
sg46
I57
saa(lp1781
(dp1782
g5
F34.36295863235687
sg6
I1
sg7
I2
sg8
(iTFClasses
function
p1783
(dp1784
g11
(lp1785
F11.999398955900045
aF0.39840144444329617
aF0.2466771598452211
aF1.354856533516232
aF0.37835721924522936
asg13
(lp1786
F501.4000534047331
aF30.94333277001737
aF4.89069940008191
aF20.000000026834044
aF9.414042706101245
asg15
(lp1787
g17
ag18
asg19
F0.7
sg20
(lp1788
g22
ag23
ag24
ag25
asg26
I01
sg27
g28
sg29
(lp1789
g31
ag32
ag33
ag34
ag35
asg36
g37
sg38
(lp1790
g40
ag41
asbsg42
(lp1791
F1.0
aF2.5
asg44
I58
sg45
g1198
sg46
I0
sa(dp1792
g5
F39.05101524471784
sg6
I1
sg7
I2
sg8
(iTFClasses
function
p1793
(dp1794
g11
(lp1795
F13.043872669196215
aF0.14447302849692534
aF0.10100723188771754
aF0.39747518702690243
aF0.3452273608523515
asg13
(lp1796
F432.94984250802526
aF34.32848735733488
aF2.954776286053118
aF38.57929706291268
aF3.659709627197305
asg15
(lp1797
g17
ag18
asg19
F0.7
sg20
(lp1798
g22
ag23
ag24
ag25
asg26
I01
sg27
g28
sg29
(lp1799
g31
ag32
ag33
ag34
ag35
asg36
g37
sg38
(lp1800
g40
ag41
asbsg42
(lp1801
F1.0
aF2.5
asg44
I58
sg45
g1198
sg46
I1
sa(dp1802
g5
F42.18504635124298
sg6
I1
sg7
I2
sg8
(iTFClasses
function
p1803
(dp1804
g11
(lp1805
F7.377712644488253
aF0.15060338913028914
aF0.1568754926732363
aF1.0290141201091387
aF0.3369544653469285
asg13
(lp1806
F366.20622228266626
aF36.80794852895883
aF5.432381592956115
aF20.00000001149944
aF12.581988073087969
asg15
(lp1807
g17
ag18
asg19
F0.7
sg20
(lp1808
g22
ag23
ag24
ag25
asg26
I01
sg27
g28
sg29
(lp1809
g31
ag32
ag33
ag34
ag35
asg36
g37
sg38
(lp1810
g40
ag41
asbsg42
(lp1811
F1.0
aF2.5
asg44
I58
sg45
g1198
sg46
I2
sa(dp1812
g5
F44.82121570233221
sg6
I1
sg7
I2
sg8
(iTFClasses
function
p1813
(dp1814
g11
(lp1815
F6.936191263543099
aF0.14277625265189187
aF0.1309133186357947
aF0.5378334942702736
aF0.3564699771350659
asg13
(lp1816
F353.3953895060964
aF39.18271032101656
aF5.647611516804152
aF20.00000000591404
aF13.678013933780985
asg15
(lp1817
g17
ag18
asg19
F0.7
sg20
(lp1818
g22
ag23
ag24
ag25
asg26
I01
sg27
g28
sg29
(lp1819
g31
ag32
ag33
ag34
ag35
asg36
g37
sg38
(lp1820
g40
ag41
asbsg42
(lp1821
F1.0
aF2.5
asg44
I58
sg45
g1198
sg46
I3
sa(dp1822
g5
F47.21182632423756
sg6
I1
sg7
I2
sg8
(iTFClasses
function
p1823
(dp1824
g11
(lp1825
F6.583297326862331
aF0.17326856176175198
aF0.1617863702478295
aF0.8471852016566164
aF0.4138626563811023
asg13
(lp1826
F334.0266647961155
aF40.59995345388174
aF6.467247626734007
aF20.000000006191236
aF14.694202501496223
asg15
(lp1827
g17
ag18
asg19
F0.7
sg20
(lp1828
g22
ag23
ag24
ag25
asg26
I01
sg27
g28
sg29
(lp1829
g31
ag32
ag33
ag34
ag35
asg36
g37
sg38
(lp1830
g40
ag41
asbsg42
(lp1831
F1.0
aF2.5
asg44
I58
sg45
g1198
sg46
I4
sa(dp1832
g5
F49.42309987533393
sg6
I1
sg7
I2
sg8
(iTFClasses
function
p1833
(dp1834
g11
(lp1835
F6.986108379295885
aF0.3414471782439925
aF0.15122458844368802
aF0.8109966235468278
aF0.5711109457077201
asg13
(lp1836
F304.39689073925916
aF41.04463621209913
aF6.194522525416746
aF44.964580186155644
aF3.455961599368562
asg15
(lp1837
g17
ag18
asg19
F0.7
sg20
(lp1838
g22
ag23
ag24
ag25
asg26
I01
sg27
g28
sg29
(lp1839
g31
ag32
ag33
ag34
ag35
asg36
g37
sg38
(lp1840
g40
ag41
asbsg42
(lp1841
F1.0
aF2.5
asg44
I58
sg45
g1198
sg46
I5
sa(dp1842
g5
F51.53584888571938
sg6
I1
sg7
I2
sg8
(iTFClasses
function
p1843
(dp1844
g11
(lp1845
F5.694646077727529
aF0.31288393990353214
aF0.191230458470526
aF1.0772031469035284
aF0.7679583565363135
asg13
(lp1846
F291.29593325236453
aF43.94842599105294
aF6.485617636983965
aF42.57833492779349
aF6.14467968847443
asg15
(lp1847
g17
ag18
asg19
F0.7
sg20
(lp1848
g22
ag23
ag24
ag25
asg26
I01
sg27
g28
sg29
(lp1849
g31
ag32
ag33
ag34
ag35
asg36
g37
sg38
(lp1850
g40
ag41
asbsg42
(lp1851
F1.0
aF2.5
asg44
I58
sg45
g1198
sg46
I6
sa(dp1852
g5
F53.555005471395475
sg6
I1
sg7
I2
sg8
(iTFClasses
function
p1853
(dp1854
g11
(lp1855
F5.544244549517824
aF0.3755898210980142
aF0.2428590253119589
aF1.021536318923495
aF0.8076599496966708
asg13
(lp1856
F289.8230676853115
aF45.47924838598826
aF7.175949958299288
aF44.50416190387713
aF4.346434079055994
asg15
(lp1857
g17
ag18
asg19
F0.7
sg20
(lp1858
g22
ag23
ag24
ag25
asg26
I01
sg27
g28
sg29
(lp1859
g31
ag32
ag33
ag34
ag35
asg36
g37
sg38
(lp1860
g40
ag41
asbsg42
(lp1861
F1.0
aF2.5
asg44
I58
sg45
g1198
sg46
I7
sa(dp1862
g5
F55.548894025604554
sg6
I1
sg7
I2
sg8
(iTFClasses
function
p1863
(dp1864
g11
(lp1865
F5.655822656520201
aF0.2872194115158635
aF0.19977479376576124
aF0.7714146134293642
aF0.6368611653634892
asg13
(lp1866
F292.2857909313622
aF47.343188433526855
aF6.985009753665783
aF45.38320036931658
aF6.082431140212008
asg15
(lp1867
g17
ag18
asg19
F0.7
sg20
(lp1868
g22
ag23
ag24
ag25
asg26
I01
sg27
g28
sg29
(lp1869
g31
ag32
ag33
ag34
ag35
asg36
g37
sg38
(lp1870
g40
ag41
asbsg42
(lp1871
F1.0
aF2.5
asg44
I58
sg45
g1198
sg46
I8
sa(dp1872
g5
F57.47080208667737
sg6
I1
sg7
I2
sg8
(iTFClasses
function
p1873
(dp1874
g11
(lp1875
F6.063048432979118
aF0.26318815118371575
aF0.20693378731617695
aF0.5788973434516791
aF0.5069309104784869
asg13
(lp1876
F302.071177760467
aF48.8113961776593
aF6.977703112727385
aF48.66994728863676
aF6.149045290664179
asg15
(lp1877
g17
ag18
asg19
F0.7
sg20
(lp1878
g22
ag23
ag24
ag25
asg26
I01
sg27
g28
sg29
(lp1879
g31
ag32
ag33
ag34
ag35
asg36
g37
sg38
(lp1880
g40
ag41
asbsg42
(lp1881
F1.0
aF2.5
asg44
I58
sg45
g1198
sg46
I9
sa(dp1882
g5
F59.39132398609502
sg6
I1
sg7
I2
sg8
(iTFClasses
function
p1883
(dp1884
g11
(lp1885
F6.503543688488446
aF0.3188261735858937
aF0.1378863905702188
aF0.6161590379707
aF0.45082267205670545
asg13
(lp1886
F305.5524652878967
aF48.676161920253406
aF7.6334072611825565
aF55.204491225084375
aF2.4648325116044534
asg15
(lp1887
g17
ag18
asg19
F0.7
sg20
(lp1888
g22
ag23
ag24
ag25
asg26
I01
sg27
g28
sg29
(lp1889
g31
ag32
ag33
ag34
ag35
asg36
g37
sg38
(lp1890
g40
ag41
asbsg42
(lp1891
F1.0
aF2.5
asg44
I58
sg45
g1198
sg46
I10
sa(dp1892
g5
F61.28732395396557
sg6
I1
sg7
I2
sg8
(iTFClasses
function
p1893
(dp1894
g11
(lp1895
F6.018453536866391
aF0.26496526369914974
aF0.21737972772317704
aF0.6075439432778609
aF0.5237580626525351
asg13
(lp1896
F294.23210764056654
aF52.512560053757454
aF7.430886355766719
aF50.203191844284376
aF7.342577229783598
asg15
(lp1897
g17
ag18
asg19
F0.7
sg20
(lp1898
g22
ag23
ag24
ag25
asg26
I01
sg27
g28
sg29
(lp1899
g31
ag32
ag33
ag34
ag35
asg36
g37
sg38
(lp1900
g40
ag41
asbsg42
(lp1901
F1.0
aF2.5
asg44
I58
sg45
g1198
sg46
I11
sa(dp1902
g5
F63.162827409905915
sg6
I1
sg7
I2
sg8
(iTFClasses
function
p1903
(dp1904
g11
(lp1905
F6.167520030853969
aF0.2547314564111609
aF0.21000619725697334
aF0.500435245916087
aF0.451924652933533
asg13
(lp1906
F302.2741603550466
aF54.235747850386275
aF7.389804723642923
aF52.7873321067572
aF7.319952762785853
asg15
(lp1907
g17
ag18
asg19
F0.7
sg20
(lp1908
g22
ag23
ag24
ag25
asg26
I01
sg27
g28
sg29
(lp1909
g31
ag32
ag33
ag34
ag35
asg36
g37
sg38
(lp1910
g40
ag41
asbsg42
(lp1911
F1.0
aF2.5
asg44
I58
sg45
g1198
sg46
I12
sa(dp1912
g5
F65.05548182142857
sg6
I1
sg7
I2
sg8
(iTFClasses
function
p1913
(dp1914
g11
(lp1915
F5.868073148969889
aF0.29039491973056286
aF0.232296521073871
aF0.5168870512579069
aF0.4833038569971859
asg13
(lp1916
F293.7296979166926
aF55.59366556043503
aF8.136891830166304
aF55.001035560390626
aF6.000611438570891
asg15
(lp1917
g17
ag18
asg19
F0.7
sg20
(lp1918
g22
ag23
ag24
ag25
asg26
I01
sg27
g28
sg29
(lp1919
g31
ag32
ag33
ag34
ag35
asg36
g37
sg38
(lp1920
g40
ag41
asbsg42
(lp1921
F1.0
aF2.5
asg44
I58
sg45
g1198
sg46
I13
sa(dp1922
g5
F66.9317258222658
sg6
I1
sg7
I2
sg8
(iTFClasses
function
p1923
(dp1924
g11
(lp1925
F6.143300850896994
aF0.2641473022165748
aF0.2208418930870759
aF0.5018527802582611
aF0.46196371550255577
asg13
(lp1926
F299.9056200438535
aF58.04638008064032
aF7.854132315525675
aF54.39551799050053
aF7.549958809190072
asg15
(lp1927
g17
ag18
asg19
F0.7
sg20
(lp1928
g22
ag23
ag24
ag25
asg26
I01
sg27
g28
sg29
(lp1929
g31
ag32
ag33
ag34
ag35
asg36
g37
sg38
(lp1930
g40
ag41
asbsg42
(lp1931
F1.0
aF2.5
asg44
I58
sg45
g1198
sg46
I14
sa(dp1932
g5
F68.81486526935427
sg6
I1
sg7
I2
sg8
(iTFClasses
function
p1933
(dp1934
g11
(lp1935
F6.12059599308173
aF0.2862765273255121
aF0.23204608813531813
aF0.4909062360844665
aF0.4541481841981998
asg13
(lp1936
F303.46424867968165
aF59.583081010245095
aF8.293318616784283
aF57.480019822567975
aF6.5113960068617915
asg15
(lp1937
g17
ag18
asg19
F0.7
sg20
(lp1938
g22
ag23
ag24
ag25
asg26
I01
sg27
g28
sg29
(lp1939
g31
ag32
ag33
ag34
ag35
asg36
g37
sg38
(lp1940
g40
ag41
asbsg42
(lp1941
F1.0
aF2.5
asg44
I58
sg45
g1198
sg46
I15
sa(dp1942
g5
F70.70878079487863
sg6
I1
sg7
I2
sg8
(iTFClasses
function
p1943
(dp1944
g11
(lp1945
F5.900360272731404
aF0.3426095948951833
aF0.2695714472785715
aF0.5791650691370123
aF0.5333584982037953
asg13
(lp1946
F296.25309036078073
aF60.22126541895151
aF9.07748828783439
aF61.33497036930965
aF4.38224017622757
asg15
(lp1947
g17
ag18
asg19
F0.7
sg20
(lp1948
g22
ag23
ag24
ag25
asg26
I01
sg27
g28
sg29
(lp1949
g31
ag32
ag33
ag34
ag35
asg36
g37
sg38
(lp1950
g40
ag41
asbsg42
(lp1951
F1.0
aF2.5
asg44
I58
sg45
g1198
sg46
I16
sa(dp1952
g5
F72.59398196575098
sg6
I1
sg7
I2
sg8
(iTFClasses
function
p1953
(dp1954
g11
(lp1955
F6.182211931725012
aF0.2913299884458773
aF0.23532236720774602
aF0.4869676583870195
aF0.44300320214779587
asg13
(lp1956
F305.9814858333602
aF62.65039063266506
aF8.497472806302309
aF61.495291073099104
aF6.332104522097315
asg15
(lp1957
g17
ag18
asg19
F0.7
sg20
(lp1958
g22
ag23
ag24
ag25
asg26
I01
sg27
g28
sg29
(lp1959
g31
ag32
ag33
ag34
ag35
asg36
g37
sg38
(lp1960
g40
ag41
asbsg42
(lp1961
F1.0
aF2.5
asg44
I58
sg45
g1198
sg46
I17
sa(dp1962
g5
F74.51511780016045
sg6
I1
sg7
I2
sg8
(iTFClasses
function
p1963
(dp1964
g11
(lp1965
F6.429510108019262
aF0.30498945427946467
aF0.23952910155972162
aF0.5140076210648026
aF0.4682480722225657
asg13
(lp1966
F319.64319319717976
aF64.79564399663576
aF8.66262094858894
aF61.454201216950175
aF6.20374237529886
asg15
(lp1967
g17
ag18
asg19
F0.7
sg20
(lp1968
g22
ag23
ag24
ag25
asg26
I01
sg27
g28
sg29
(lp1969
g31
ag32
ag33
ag34
ag35
asg36
g37
sg38
(lp1970
g40
ag41
asbsg42
(lp1971
F1.0
aF2.5
asg44
I58
sg45
g1198
sg46
I18
sa(dp1972
g5
F76.44028671714923
sg6
I1
sg7
I2
sg8
(iTFClasses
function
p1973
(dp1974
g11
(lp1975
F6.488609657397709
aF0.3011252476979678
aF0.24658893891221823
aF0.4959041541462952
aF0.4488826769462606
asg13
(lp1976
F314.994882898563
aF66.37996110318724
aF8.735286533799957
aF63.86912872329842
aF6.94409628252135
asg15
(lp1977
g17
ag18
asg19
F0.7
sg20
(lp1978
g22
ag23
ag24
ag25
asg26
I01
sg27
g28
sg29
(lp1979
g31
ag32
ag33
ag34
ag35
asg36
g37
sg38
(lp1980
g40
ag41
asbsg42
(lp1981
F1.0
aF2.5
asg44
I58
sg45
g1198
sg46
I19
sa(dp1982
g5
F78.36995240384616
sg6
I1
sg7
I2
sg8
(iTFClasses
function
p1983
(dp1984
g11
(lp1985
F6.293641725943915
aF0.3652529265233113
aF0.2783315494528926
aF0.6384871885423706
aF0.5374615170070651
asg13
(lp1986
F309.31510346866105
aF68.08827155520541
aF9.593354397565701
aF65.91919204644753
aF5.40085071378571
asg15
(lp1987
g17
ag18
asg19
F0.7
sg20
(lp1988
g22
ag23
ag24
ag25
asg26
I01
sg27
g28
sg29
(lp1989
g31
ag32
ag33
ag34
ag35
asg36
g37
sg38
(lp1990
g40
ag41
asbsg42
(lp1991
F1.0
aF2.5
asg44
I58
sg45
g1198
sg46
I20
sa(dp1992
g5
F80.32439004460304
sg6
I1
sg7
I2
sg8
(iTFClasses
function
p1993
(dp1994
g11
(lp1995
F6.4349482080953
aF0.2946175436079983
aF0.23530567711799133
aF0.48128769548196004
aF0.40421424816283746
asg13
(lp1996
F322.39379962222563
aF69.49112175462425
aF8.958568929821165
aF69.20545515967962
aF7.285084462946068
asg15
(lp1997
g17
ag18
asg19
F0.7
sg20
(lp1998
g22
ag23
ag24
ag25
asg26
I01
sg27
g28
sg29
(lp1999
g31
ag32
ag33
ag34
ag35
asg36
g37
sg38
(lp2000
g40
ag41
asbsg42
(lp2001
F1.0
aF2.5
asg44
I58
sg45
g1198
sg46
I21
sa(dp2002
g5
F82.28035981450103
sg6
I1
sg7
I2
sg8
(iTFClasses
function
p2003
(dp2004
g11
(lp2005
F6.597194008321134
aF0.29950456771396716
aF0.2501588495777973
aF0.4891404314683001
aF0.43153510329191347
asg13
(lp2006
F325.12730752815474
aF71.65301639758377
aF9.139843082819677
aF69.45118245360297
aF7.387063798813154
asg15
(lp2007
g17
ag18
asg19
F0.7
sg20
(lp2008
g22
ag23
ag24
ag25
asg26
I01
sg27
g28
sg29
(lp2009
g31
ag32
ag33
ag34
ag35
asg36
g37
sg38
(lp2010
g40
ag41
asbsg42
(lp2011
F1.0
aF2.5
asg44
I58
sg45
g1198
sg46
I22
sa(dp2012
g5
F84.28189643938046
sg6
I1
sg7
I2
sg8
(iTFClasses
function
p2013
(dp2014
g11
(lp2015
F6.991735689737874
aF0.3206053742068917
aF0.261951285121631
aF0.5397471042000319
aF0.4501807149688286
asg13
(lp2016
F336.2197454688109
aF73.91746706912848
aF9.187339886294499
aF70.21871942702204
aF6.46280692529233
asg15
(lp2017
g17
ag18
asg19
F0.7
sg20
(lp2018
g22
ag23
ag24
ag25
asg26
I01
sg27
g28
sg29
(lp2019
g31
ag32
ag33
ag34
ag35
asg36
g37
sg38
(lp2020
g40
ag41
asbsg42
(lp2021
F1.0
aF2.5
asg44
I58
sg45
g1198
sg46
I23
sa(dp2022
g5
F86.29767978249242
sg6
I1
sg7
I2
sg8
(iTFClasses
function
p2023
(dp2024
g11
(lp2025
F7.246908593513393
aF0.303944276495443
aF0.2724952356306094
aF0.4968220465702231
aF0.42598023765816384
asg13
(lp2026
F338.58860596296694
aF75.59773649844978
aF9.164036625532113
aF72.9970797346142
aF7.599513830947036
asg15
(lp2027
g17
ag18
asg19
F0.7
sg20
(lp2028
g22
ag23
ag24
ag25
asg26
I01
sg27
g28
sg29
(lp2029
g31
ag32
ag33
ag34
ag35
asg36
g37
sg38
(lp2030
g40
ag41
asbsg42
(lp2031
F1.0
aF2.5
asg44
I58
sg45
g1198
sg46
I24
sa(dp2032
g5
F88.3232579743681
sg6
I1
sg7
I2
sg8
(iTFClasses
function
p2033
(dp2034
g11
(lp2035
F6.741398617135605
aF0.32748588870501294
aF0.2779983254572187
aF0.5373159380032462
aF0.4574154642607575
asg13
(lp2036
F331.07211572337843
aF76.52443695470444
aF9.9304028200915
aF75.39628904784966
aF6.714933864814809
asg15
(lp2037
g17
ag18
asg19
F0.7
sg20
(lp2038
g22
ag23
ag24
ag25
asg26
I01
sg27
g28
sg29
(lp2039
g31
ag32
ag33
ag34
ag35
asg36
g37
sg38
(lp2040
g40
ag41
asbsg42
(lp2041
F1.0
aF2.5
asg44
I58
sg45
g1198
sg46
I25
sa(dp2042
g5
F90.43705203527212
sg6
I1
sg7
I2
sg8
(iTFClasses
function
p2043
(dp2044
g11
(lp2045
F7.0965248312319025
aF0.3229619441713538
aF0.2608706256921334
aF0.5151416274986005
aF0.42659421503909956
asg13
(lp2046
F338.21308980659575
aF79.00301339181782
aF9.306509931363172
aF76.95281419390537
aF7.950666078238355
asg15
(lp2047
g17
ag18
asg19
F0.7
sg20
(lp2048
g22
ag23
ag24
ag25
asg26
I01
sg27
g28
sg29
(lp2049
g31
ag32
ag33
ag34
ag35
asg36
g37
sg38
(lp2050
g40
ag41
asbsg42
(lp2051
F1.0
aF2.5
asg44
I58
sg45
g1198
sg46
I26
sa(dp2052
g5
F92.55702711773633
sg6
I1
sg7
I2
sg8
(iTFClasses
function
p2053
(dp2054
g11
(lp2055
F6.823690063917887
aF0.3327386792969449
aF0.2738674926404121
aF0.5357943622924424
aF0.44550131514453595
asg13
(lp2056
F330.8141069149476
aF80.59447747242858
aF9.926135430290529
aF79.39890623774193
aF7.955781302431686
asg15
(lp2057
g17
ag18
asg19
F0.7
sg20
(lp2058
g22
ag23
ag24
ag25
asg26
I01
sg27
g28
sg29
(lp2059
g31
ag32
ag33
ag34
ag35
asg36
g37
sg38
(lp2060
g40
ag41
asbsg42
(lp2061
F1.0
aF2.5
asg44
I58
sg45
g1198
sg46
I27
sa(dp2062
g5
F94.73601536678848
sg6
I1
sg7
I2
sg8
(iTFClasses
function
p2063
(dp2064
g11
(lp2065
F7.167462247502873
aF0.3221624021683738
aF0.26856208568493045
aF0.5179850783202014
aF0.4320266968003139
asg13
(lp2066
F344.66171605029274
aF82.85065315142634
aF9.64876822577021
aF80.46949901597392
aF8.19441897659534
asg15
(lp2067
g17
ag18
asg19
F0.7
sg20
(lp2068
g22
ag23
ag24
ag25
asg26
I01
sg27
g28
sg29
(lp2069
g31
ag32
ag33
ag34
ag35
asg36
g37
sg38
(lp2070
g40
ag41
asbsg42
(lp2071
F1.0
aF2.5
asg44
I58
sg45
g1198
sg46
I28
sa(dp2072
g5
F96.9503581035403
sg6
I1
sg7
I2
sg8
(iTFClasses
function
p2073
(dp2074
g11
(lp2075
F7.4210493819685075
aF0.34879909966149825
aF0.27697956804867463
aF0.5888581461302138
aF0.48695930864534054
asg13
(lp2076
F360.4865837804776
aF85.42094630799926
aF9.920060759222803
aF81.12427228881475
aF7.058647422775399
asg15
(lp2077
g17
ag18
asg19
F0.7
sg20
(lp2078
g22
ag23
ag24
ag25
asg26
I01
sg27
g28
sg29
(lp2079
g31
ag32
ag33
ag34
ag35
asg36
g37
sg38
(lp2080
g40
ag41
asbsg42
(lp2081
F1.0
aF2.5
asg44
I58
sg45
g1198
sg46
I29
sa(dp2082
g5
F99.18065604925054
sg6
I1
sg7
I2
sg8
(iTFClasses
function
p2083
(dp2084
g11
(lp2085
F7.313245103351109
aF0.3343338693625384
aF0.2861342516737313
aF0.5410087262977328
aF0.4413106704596603
asg13
(lp2086
F349.6594745196838
aF87.14954952820736
aF10.105036369735032
aF84.93229994015826
aF8.144980099136777
asg15
(lp2087
g17
ag18
asg19
F0.7
sg20
(lp2088
g22
ag23
ag24
ag25
asg26
I01
sg27
g28
sg29
(lp2089
g31
ag32
ag33
ag34
ag35
asg36
g37
sg38
(lp2090
g40
ag41
asbsg42
(lp2091
F1.0
aF2.5
asg44
I58
sg45
g1198
sg46
I30
sa(dp2092
g5
F101.46200607626515
sg6
I1
sg7
I2
sg8
(iTFClasses
function
p2093
(dp2094
g11
(lp2095
F7.332143031057929
aF0.35053077956445833
aF0.28295270172889975
aF0.5707993482042326
aF0.46358431263648914
asg13
(lp2096
F354.3468109836919
aF89.27634184127736
aF10.240227904647071
aF85.79228899360851
aF8.071209035711458
asg15
(lp2097
g17
ag18
asg19
F0.7
sg20
(lp2098
g22
ag23
ag24
ag25
asg26
I01
sg27
g28
sg29
(lp2099
g31
ag32
ag33
ag34
ag35
asg36
g37
sg38
(lp2100
g40
ag41
asbsg42
(lp2101
F1.0
aF2.5
asg44
I58
sg45
g1198
sg46
I31
sa(dp2102
g5
F103.8325376838727
sg6
I1
sg7
I2
sg8
(iTFClasses
function
p2103
(dp2104
g11
(lp2105
F7.083027909491332
aF0.3983963303347551
aF0.29143233194883855
aF0.6954900702813518
aF0.5689667517955743
asg13
(lp2106
F357.88341929639927
aF91.86151645989075
aF10.906910530109503
aF87.04154933276331
aF6.526880465930307
asg15
(lp2107
g17
ag18
asg19
F0.7
sg20
(lp2108
g22
ag23
ag24
ag25
asg26
I01
sg27
g28
sg29
(lp2109
g31
ag32
ag33
ag34
ag35
asg36
g37
sg38
(lp2110
g40
ag41
asbsg42
(lp2111
F1.0
aF2.5
asg44
I58
sg45
g1198
sg46
I32
sa(dp2112
g5
F106.26270408981556
sg6
I1
sg7
I2
sg8
(iTFClasses
function
p2113
(dp2114
g11
(lp2115
F7.315450127134516
aF0.34163291750069646
aF0.2715610972728877
aF0.5522167301147718
aF0.4541284493874693
asg13
(lp2116
F363.60959761118266
aF94.11656097360262
aF10.348773340031258
aF90.59030886225464
aF8.453632337662498
asg15
(lp2117
g17
ag18
asg19
F0.7
sg20
(lp2118
g22
ag23
ag24
ag25
asg26
I01
sg27
g28
sg29
(lp2119
g31
ag32
ag33
ag34
ag35
asg36
g37
sg38
(lp2120
g40
ag41
asbsg42
(lp2121
F1.0
aF2.5
asg44
I58
sg45
g1198
sg46
I33
sa(dp2122
g5
F108.737124161253
sg6
I1
sg7
I2
sg8
(iTFClasses
function
p2123
(dp2124
g11
(lp2125
F7.464103206844668
aF0.37540731131522165
aF0.2949037572401165
aF0.6243512793125987
aF0.5125559384234757
asg13
(lp2126
F362.97503150696895
aF96.09517821650891
aF10.698856739192909
aF92.17478465205794
aF7.402858385375688
asg15
(lp2127
g17
ag18
asg19
F0.7
sg20
(lp2128
g22
ag23
ag24
ag25
asg26
I01
sg27
g28
sg29
(lp2129
g31
ag32
ag33
ag34
ag35
asg36
g37
sg38
(lp2130
g40
ag41
asbsg42
(lp2131
F1.0
aF2.5
asg44
I58
sg45
g1198
sg46
I34
sa(dp2132
g5
F111.27639354608665
sg6
I1
sg7
I2
sg8
(iTFClasses
function
p2133
(dp2134
g11
(lp2135
F7.835091721868598
aF0.33727301623165573
aF0.2869682288758062
aF0.5446570765793979
aF0.44726441363590563
asg13
(lp2136
F382.20265301748026
aF98.07918922269056
aF10.459724828105532
aF94.70908701252961
aF8.92838741605695
asg15
(lp2137
g17
ag18
asg19
F0.7
sg20
(lp2138
g22
ag23
ag24
ag25
asg26
I01
sg27
g28
sg29
(lp2139
g31
ag32
ag33
ag34
ag35
asg36
g37
sg38
(lp2140
g40
ag41
asbsg42
(lp2141
F1.0
aF2.5
asg44
I58
sg45
g1198
sg46
I35
sa(dp2142
g5
F113.84494394938514
sg6
I1
sg7
I2
sg8
(iTFClasses
function
p2143
(dp2144
g11
(lp2145
F7.391702024533004
aF0.3670482713024583
aF0.29404192282095387
aF0.5919505786415371
aF0.48301133837352905
asg13
(lp2146
F366.89729071459453
aF100.1879382865215
aF11.114517677244141
aF97.19421189521357
aF8.457153463506838
asg15
(lp2147
g17
ag18
asg19
F0.7
sg20
(lp2148
g22
ag23
ag24
ag25
asg26
I01
sg27
g28
sg29
(lp2149
g31
ag32
ag33
ag34
ag35
asg36
g37
sg38
(lp2150
g40
ag41
asbsg42
(lp2151
F1.0
aF2.5
asg44
I58
sg45
g1198
sg46
I36
sa(dp2152
g5
F116.50279369826436
sg6
I1
sg7
I2
sg8
(iTFClasses
function
p2153
(dp2154
g11
(lp2155
F7.487431889010018
aF0.38005410413487084
aF0.29805573461888457
aF0.6220698042606259
aF0.5395253325049536
asg13
(lp2156
F378.5634639668718
aF103.06801693733351
aF11.373599888155672
aF98.33469016789702
aF7.666822967806519
asg15
(lp2157
g17
ag18
asg19
F0.7
sg20
(lp2158
g22
ag23
ag24
ag25
asg26
I01
sg27
g28
sg29
(lp2159
g31
ag32
ag33
ag34
ag35
asg36
g37
sg38
(lp2160
g40
ag41
asbsg42
(lp2161
F1.0
aF2.5
asg44
I58
sg45
g1198
sg46
I37
sa(dp2162
g5
F119.26182695706507
sg6
I1
sg7
I2
sg8
(iTFClasses
function
p2163
(dp2164
g11
(lp2165
F7.7029475107364656
aF0.37316157302609554
aF0.28933520360646625
aF0.6162700976806263
aF0.5148211721435203
asg13
(lp2166
F389.5874631840291
aF106.01200475902358
aF11.193859281832253
aF100.78574420977182
aF8.077137724489702
asg15
(lp2167
g17
ag18
asg19
F0.7
sg20
(lp2168
g22
ag23
ag24
ag25
asg26
I01
sg27
g28
sg29
(lp2169
g31
ag32
ag33
ag34
ag35
asg36
g37
sg38
(lp2170
g40
ag41
asbsg42
(lp2171
F1.0
aF2.5
asg44
I58
sg45
g1198
sg46
I38
sa(dp2172
g5
F122.14293055877374
sg6
I1
sg7
I2
sg8
(iTFClasses
function
p2173
(dp2174
g11
(lp2175
F8.361724860416805
aF0.3505952381011994
aF0.31186674590966135
aF0.5685818822965985
aF0.464056803854473
asg13
(lp2176
F397.8804523061457
aF108.84987531298307
aF10.935778426681363
aF103.39843077283246
aF8.993406835092532
asg15
(lp2177
g17
ag18
asg19
F0.7
sg20
(lp2178
g22
ag23
ag24
ag25
asg26
I01
sg27
g28
sg29
(lp2179
g31
ag32
ag33
ag34
ag35
asg36
g37
sg38
(lp2180
g40
ag41
asbsg42
(lp2181
F1.0
aF2.5
asg44
I58
sg45
g1198
sg46
I39
sa(dp2182
g5
F125.15528557692309
sg6
I1
sg7
I2
sg8
(iTFClasses
function
p2183
(dp2184
g11
(lp2185
F8.266127689979339
aF0.3709454647506547
aF0.3047310040353306
aF0.6026919862996252
aF0.5005596238378818
asg13
(lp2186
F400.5949634357308
aF111.72853234363221
aF11.12989007226528
aF105.75468438646378
aF9.120772186185121
asg15
(lp2187
g17
ag18
asg19
F0.7
sg20
(lp2188
g22
ag23
ag24
ag25
asg26
I01
sg27
g28
sg29
(lp2189
g31
ag32
ag33
ag34
ag35
asg36
g37
sg38
(lp2190
g40
ag41
asbsg42
(lp2191
F1.0
aF2.5
asg44
I58
sg45
g1198
sg46
I40
sa(dp2192
g5
F128.30697450788279
sg6
I1
sg7
I2
sg8
(iTFClasses
function
p2193
(dp2194
g11
(lp2195
F8.550247873361934
aF0.3767166200280698
aF0.3267316177956161
aF0.6134702998678705
aF0.503115820535637
asg13
(lp2196
F405.6914973981125
aF113.8041329815948
aF11.366598589854672
aF108.1591979287867
aF9.64949799761805
asg15
(lp2197
g17
ag18
asg19
F0.7
sg20
(lp2198
g22
ag23
ag24
ag25
asg26
I01
sg27
g28
sg29
(lp2199
g31
ag32
ag33
ag34
ag35
asg36
g37
sg38
(lp2200
g40
ag41
asbsg42
(lp2201
F1.0
aF2.5
asg44
I58
sg45
g1198
sg46
I41
sa(dp2202
g5
F131.560062201213
sg6
I1
sg7
I2
sg8
(iTFClasses
function
p2203
(dp2204
g11
(lp2205
F8.482903984170283
aF0.4229876627049691
aF0.33343432279153795
aF0.7458689396555727
aF0.6057928914267596
asg13
(lp2206
F409.77216549555106
aF117.7185397512718
aF11.903445931204626
aF110.27262430648697
aF7.741064793055252
asg15
(lp2207
g17
ag18
asg19
F0.7
sg20
(lp2208
g22
ag23
ag24
ag25
asg26
I01
sg27
g28
sg29
(lp2209
g31
ag32
ag33
ag34
ag35
asg36
g37
sg38
(lp2210
g40
ag41
asbsg42
(lp2211
F1.0
aF2.5
asg44
I58
sg45
g1198
sg46
I42
sa(dp2212
g5
F134.98625250133523
sg6
I1
sg7
I2
sg8
(iTFClasses
function
p2213
(dp2214
g11
(lp2215
F8.240425533209258
aF0.4024828340649762
aF0.3179845123404412
aF0.660621933903343
aF0.5459140498608175
asg13
(lp2216
F411.2550329270419
aF119.97067194701214
aF12.08560014600879
aF113.62459127680691
aF9.172361168986786
asg15
(lp2217
g17
ag18
asg19
F0.7
sg20
(lp2218
g22
ag23
ag24
ag25
asg26
I01
sg27
g28
sg29
(lp2219
g31
ag32
ag33
ag34
ag35
asg36
g37
sg38
(lp2220
g40
ag41
asbsg42
(lp2221
F1.0
aF2.5
asg44
I58
sg45
g1198
sg46
I43
sa(dp2222
g5
F138.54756838254974
sg6
I1
sg7
I2
sg8
(iTFClasses
function
p2223
(dp2224
g11
(lp2225
F8.823136917908359
aF0.3908092341355953
aF0.3233429609771905
aF0.6449423250273298
aF0.5474424565463103
asg13
(lp2226
F429.8241684565907
aF123.65795514355804
aF11.818442029568942
aF116.25324072152532
aF8.991509124891328
asg15
(lp2227
g17
ag18
asg19
F0.7
sg20
(lp2228
g22
ag23
ag24
ag25
asg26
I01
sg27
g28
sg29
(lp2229
g31
ag32
ag33
ag34
ag35
asg36
g37
sg38
(lp2230
g40
ag41
asbsg42
(lp2231
F1.0
aF2.5
asg44
I58
sg45
g1198
sg46
I44
sa(dp2232
g5
F142.34410618097615
sg6
I1
sg7
I2
sg8
(iTFClasses
function
p2233
(dp2234
g11
(lp2235
F8.812082081438767
aF0.37674053882134473
aF0.3075808091246852
aF0.6175572843434693
aF0.5099552817951487
asg13
(lp2236
F431.24826061030035
aF126.96088925561976
aF11.520268055890458
aF119.45768662215825
aF10.65668632209038
asg15
(lp2237
g17
ag18
asg19
F0.7
sg20
(lp2238
g22
ag23
ag24
ag25
asg26
I01
sg27
g28
sg29
(lp2239
g31
ag32
ag33
ag34
ag35
asg36
g37
sg38
(lp2240
g40
ag41
asbsg42
(lp2241
F1.0
aF2.5
asg44
I58
sg45
g1198
sg46
I45
sa(dp2242
g5
F146.426771191876
sg6
I1
sg7
I2
sg8
(iTFClasses
function
p2243
(dp2244
g11
(lp2245
F8.517442580533821
aF0.40509546725128587
aF0.3289224397306496
aF0.6670968466233234
aF0.5415980541798033
asg13
(lp2246
F429.28466578571266
aF130.2214235833472
aF12.607052416482967
aF123.90251156549022
aF9.5298117371998
asg15
(lp2247
g17
ag18
asg19
F0.7
sg20
(lp2248
g22
ag23
ag24
ag25
asg26
I01
sg27
g28
sg29
(lp2249
g31
ag32
ag33
ag34
ag35
asg36
g37
sg38
(lp2250
g40
ag41
asbsg42
(lp2251
F1.0
aF2.5
asg44
I58
sg45
g1198
sg46
I46
sa(dp2252
g5
F150.76031785141637
sg6
I1
sg7
I2
sg8
(iTFClasses
function
p2253
(dp2254
g11
(lp2255
F9.19769249026099
aF0.3798344485666121
aF0.3206793954482201
aF0.6128904249013658
aF0.501534087184119
asg13
(lp2256
F448.12819482956047
aF134.32473923670705
aF11.874685870595702
aF126.74828283627258
aF10.779933442154555
asg15
(lp2257
g17
ag18
asg19
F0.7
sg20
(lp2258
g22
ag23
ag24
ag25
asg26
I01
sg27
g28
sg29
(lp2259
g31
ag32
ag33
ag34
ag35
asg36
g37
sg38
(lp2260
g40
ag41
asbsg42
(lp2261
F1.0
aF2.5
asg44
I58
sg45
g1198
sg46
I47
sa(dp2262
g5
F155.4775249219795
sg6
I1
sg7
I2
sg8
(iTFClasses
function
p2263
(dp2264
g11
(lp2265
F8.94729646046805
aF0.4025911870397607
aF0.3123653914130502
aF0.6763207596339385
aF0.5741292223041539
asg13
(lp2266
F448.4596013241999
aF139.16836055941928
aF12.30784548445829
aF128.90843315409558
aF10.411895014615812
asg15
(lp2267
g17
ag18
asg19
F0.7
sg20
(lp2268
g22
ag23
ag24
ag25
asg26
I01
sg27
g28
sg29
(lp2269
g31
ag32
ag33
ag34
ag35
asg36
g37
sg38
(lp2270
g40
ag41
asbsg42
(lp2271
F1.0
aF2.5
asg44
I58
sg45
g1198
sg46
I48
sa(dp2272
g5
F160.6474749888701
sg6
I1
sg7
I2
sg8
(iTFClasses
function
p2273
(dp2274
g11
(lp2275
F9.703251659669279
aF0.4003725796819282
aF0.343003363259764
aF0.653754337376597
aF0.5429666467989822
asg13
(lp2276
F460.257202621052
aF143.2983072712314
aF12.145209246950618
aF134.85608436707054
aF11.28246832865132
asg15
(lp2277
g17
ag18
asg19
F0.7
sg20
(lp2278
g22
ag23
ag24
ag25
asg26
I01
sg27
g28
sg29
(lp2279
g31
ag32
ag33
ag34
ag35
asg36
g37
sg38
(lp2280
g40
ag41
asbsg42
(lp2281
F1.0
aF2.5
asg44
I58
sg45
g1198
sg46
I49
sa(dp2282
g5
F166.37050198876304
sg6
I1
sg7
I2
sg8
(iTFClasses
function
p2283
(dp2284
g11
(lp2285
F9.762670549184522
aF0.41829926151747543
aF0.3628044106077084
aF0.6865209760724156
aF0.5791796333024513
asg13
(lp2286
F465.6597141070574
aF148.06392145044205
aF12.860885471822069
aF139.92782986145446
aF10.70697495295847
asg15
(lp2287
g17
ag18
asg19
F0.7
sg20
(lp2288
g22
ag23
ag24
ag25
asg26
I01
sg27
g28
sg29
(lp2289
g31
ag32
ag33
ag34
ag35
asg36
g37
sg38
(lp2290
g40
ag41
asbsg42
(lp2291
F1.0
aF2.5
asg44
I58
sg45
g1198
sg46
I50
sa(dp2292
g5
F172.82793825180434
sg6
I1
sg7
I2
sg8
(iTFClasses
function
p2293
(dp2294
g11
(lp2295
F9.199793167961943
aF0.43178285059300947
aF0.34349181951126617
aF0.7340446372795384
aF0.6049017607032692
asg13
(lp2296
F467.5107399288955
aF154.23360924917782
aF13.61086422131419
aF143.31217031352168
aF10.416679142913665
asg15
(lp2297
g17
ag18
asg19
F0.7
sg20
(lp2298
g22
ag23
ag24
ag25
asg26
I01
sg27
g28
sg29
(lp2299
g31
ag32
ag33
ag34
ag35
asg36
g37
sg38
(lp2300
g40
ag41
asbsg42
(lp2301
F1.0
aF2.5
asg44
I58
sg45
g1198
sg46
I51
sa(dp2302
g5
F180.1607799572421
sg6
I1
sg7
I2
sg8
(iTFClasses
function
p2303
(dp2304
g11
(lp2305
F9.835175672344237
aF0.43520452799316445
aF0.3542453312824776
aF0.7068738241187447
aF0.5854219572545283
asg13
(lp2306
F483.41257483084075
aF160.7122560354393
aF13.45890497804958
aF150.47210832300536
aF11.444420364955633
asg15
(lp2307
g17
ag18
asg19
F0.7
sg20
(lp2308
g22
ag23
ag24
ag25
asg26
I01
sg27
g28
sg29
(lp2309
g31
ag32
ag33
ag34
ag35
asg36
g37
sg38
(lp2310
g40
ag41
asbsg42
(lp2311
F1.0
aF2.5
asg44
I58
sg45
g1198
sg46
I52
sa(dp2312
g5
F188.95723982529637
sg6
I1
sg7
I2
sg8
(iTFClasses
function
p2313
(dp2314
g11
(lp2315
F9.47754509465351
aF0.45420656719349495
aF0.36467396459555257
aF0.7582458251570898
aF0.6407085248875113
asg13
(lp2316
F480.6618530035928
aF168.68902929115606
aF14.524720841651906
aF157.13928230613774
aF11.31412219483563
asg15
(lp2317
g17
ag18
asg19
F0.7
sg20
(lp2318
g22
ag23
ag24
ag25
asg26
I01
sg27
g28
sg29
(lp2319
g31
ag32
ag33
ag34
ag35
asg36
g37
sg38
(lp2320
g40
ag41
asbsg42
(lp2321
F1.0
aF2.5
asg44
I58
sg45
g1198
sg46
I53
sa(dp2322
g5
F199.61312910986368
sg6
I1
sg7
I2
sg8
(iTFClasses
function
p2323
(dp2324
g11
(lp2325
F9.868482766090054
aF0.4894894537173258
aF0.4080220866753965
aF0.8348371734323479
aF0.714410530204157
asg13
(lp2326
F480.49184060498726
aF178.8278666876536
aF15.105225960122537
aF164.86461426180145
aF12.759378409990418
asg15
(lp2327
g17
ag18
asg19
F0.7
sg20
(lp2328
g22
ag23
ag24
ag25
asg26
I01
sg27
g28
sg29
(lp2329
g31
ag32
ag33
ag34
ag35
asg36
g37
sg38
(lp2330
g40
ag41
asbsg42
(lp2331
F1.0
aF2.5
asg44
I58
sg45
g1198
sg46
I54
sa(dp2332
g5
F213.27970344827585
sg6
I1
sg7
I2
sg8
(iTFClasses
function
p2333
(dp2334
g11
(lp2335
F10.017333506977296
aF0.5106069258867763
aF0.41171044270443957
aF0.8804878253238826
aF0.7458942446088024
asg13
(lp2336
F496.60696950944384
aF190.78262961894856
aF15.886692072305642
aF175.3644271345897
aF12.735097159212172
asg15
(lp2337
g17
ag18
asg19
F0.7
sg20
(lp2338
g22
ag23
ag24
ag25
asg26
I01
sg27
g28
sg29
(lp2339
g31
ag32
ag33
ag34
ag35
asg36
g37
sg38
(lp2340
g40
ag41
asbsg42
(lp2341
F1.0
aF2.5
asg44
I58
sg45
g1198
sg46
I55
sa(dp2342
g5
F232.91297827868854
sg6
I1
sg7
I2
sg8
(iTFClasses
function
p2343
(dp2344
g11
(lp2345
F10.058342979938924
aF0.5573914446498094
aF0.42955606733879925
aF0.9542482204590073
aF0.8152112309683934
asg13
(lp2346
F512.3849300483377
aF209.39921450709184
aF17.633695028176245
aF191.8784442546352
aF13.083950668407397
asg15
(lp2347
g17
ag18
asg19
F0.7
sg20
(lp2348
g22
ag23
ag24
ag25
asg26
I01
sg27
g28
sg29
(lp2349
g31
ag32
ag33
ag34
ag35
asg36
g37
sg38
(lp2350
g40
ag41
asbsg42
(lp2351
F1.0
aF2.5
asg44
I58
sg45
g1198
sg46
I56
sa(dp2352
g5
F268.3629980573873
sg6
I1
sg7
I2
sg8
(iTFClasses
function
p2353
(dp2354
g11
(lp2355
F9.066307993203441
aF0.7921646132574125
aF0.6016847169515458
aF1.3845045035899375
aF1.152249840509822
asg13
(lp2356
F469.89798557400525
aF238.0413271289326
aF23.66114056713098
aF222.85048618504504
aF14.597632411552318
asg15
(lp2357
g17
ag18
asg19
F0.7
sg20
(lp2358
g22
ag23
ag24
ag25
asg26
I01
sg27
g28
sg29
(lp2359
g31
ag32
ag33
ag34
ag35
asg36
g37
sg38
(lp2360
g40
ag41
asbsg42
(lp2361
F1.0
aF2.5
asg44
I58
sg45
g1198
sg46
I57
saas.