ccopy_reg
_reconstructor
p0
(cPhysicsTools.HeppyCore.statistics.counter
Counter
p1
c__builtin__
list
p2
(lp3
(lp4
S'processed'
p5
aI100
aa(lp6
S'passes'
p7
aI23
aa(lp8
S'sl'
p9
aI20
aa(lp10
S'dl'
p11
aI3
aa(lp12
S'slanddl'
p13
aI0
aatp14
Rp15
(dp16
S'name'
p17
S'processing'
p18
sS'dico'
p19
(dp20
g7
I1
sg11
I3
sg13
I4
sg5
I0
sg9
I2
ssb.