ccopy_reg
_reconstructor
p0
(cPhysicsTools.HeppyCore.statistics.counter
Counter
p1
c__builtin__
list
p2
(lp3
(lp4
S'processed'
p5
aI93
aa(lp6
S'passes'
p7
aI93
aatp8
Rp9
(dp10
S'name'
p11
S'processing'
p12
sS'dico'
p13
(dp14
g7
I1
sg5
I0
ssb.