ccopy_reg
_reconstructor
p0
(cPhysicsTools.HeppyCore.statistics.counter
Counter
p1
c__builtin__
list
p2
(lp3
(lp4
S'any'
p5
aI129
aa(lp6
S'good'
p7
aI84
aa(lp8
S'CSVL'
p9
aI41
aa(lp10
S'CSVM'
p11
aI27
aa(lp12
S'CSVT'
p13
aI16
aatp14
Rp15
(dp16
S'name'
p17
S'jets'
p18
sS'dico'
p19
(dp20
g9
I2
sg11
I3
sg7
I1
sg13
I4
sg5
I0
ssb.