(dp0
S'Use_limited_entries'
p1
I00
sS'events_used'
p2
I1499312
sS'quark_Flavour_str'
p3
S'Quark_pdgId'
p4
sS'mc_Pt_str'
p5
S'Jet_mcPt'
p6
sS'DG_rel_weight'
p7
F0.7
sS'SBF_n_bins'
p8
(dp9
S'b'
p10
(lp11
(lp12
I100
aI100
aI100
aI100
aI100
aI100
aI100
aI100
aI100
aI100
aI100
aI100
aI100
aI100
aI100
aI100
aI100
aI100
aI100
aI100
aI100
aI100
aI100
aI100
aI100
aI100
aI100
aI100
aI100
aI100
aI100
aI100
aI100
aI100
aI100
aI100
aI100
aI100
aI100
aI100
aI100
aI100
aI100
aI100
aI100
aI100
aI100
aI100
aI100
aI100
aI100
aI100
aI100
aI100
aI100
aI100
aI100
aI100
aa(lp13
I100
aI100
aI100
aI100
aI100
aI100
aI100
aI100
aI100
aI100
aI100
aI100
aI100
aI100
aI100
aI100
aI100
aI100
aI100
aI100
aI100
aI100
aI100
aI100
aI100
aI100
aI100
aI100
aI100
aI100
aI100
aI100
aI100
aI100
aI100
aI100
aI100
aI100
aI100
aI100
aI100
aI100
aI100
aI100
aI100
aI100
aI100
aI100
aI100
aI100
aI100
aI100
aI100
aI100
aI100
aI100
aI100
aI100
aasS'l'
p14
(lp15
(lp16
I100
aI100
aI100
aI100
aI100
aI100
aI100
aI100
aI100
aI100
aI100
aI100
aI100
aI100
aI100
aI100
aI100
aI100
aI100
aI100
aI100
aI100
aI100
aI100
aI100
aI100
aI100
aI100
aI100
aI100
aI100
aI100
aI100
aI100
aI100
aI100
aI100
aI100
aI100
aI100
aI100
aI100
aI100
aI100
aI100
aI100
aI100
aI100
aI100
aI100
aI100
aI100
aI100
aI100
aI100
aI100
aI100
aI100
aa(lp17
I100
aI100
aI100
aI100
aI100
aI100
aI100
aI100
aI100
aI100
aI100
aI100
aI100
aI100
aI100
aI100
aI100
aI100
aI100
aI100
aI100
aI100
aI100
aI100
aI100
aI100
aI100
aI100
aI100
aI100
aI100
aI100
aI100
aI100
aI100
aI100
aI100
aI100
aI100
aI100
aI100
aI100
aI100
aI100
aI100
aI100
aI100
aI100
aI100
aI100
aI100
aI100
aI100
aI100
aI100
aI100
aI100
aI100
aassS'selection_string'
p18
(dp19
g10
S'abs(Quark_pdgId)==5 && abs(Quark_eta)>=1.5 && abs(Quark_eta)<=2.5 && abs(Quark_pt)>=30.0 && abs(Quark_pt)<=300.0'
p20
sg14
S'abs(Quark_pdgId)!=5 && abs(Quark_eta)>=1.5 && abs(Quark_eta)<=2.5 && abs(Quark_pt)>=30.0 && abs(Quark_pt)<=300.0'
p21
ssS'Draw_ABF_in_single_bins'
p22
I01
sS'reco_Pt_str'
p23
S'Jet_pt'
p24
sS'outputdir'
p25
S'V11_full_TF_subjets_0.3delR'
p26
sS'quark_Phi_str'
p27
S'Quark_phi'
p28
sS'n_E_hist_bins'
p29
I50000
sS'input_root_file_name'
p30
S'/scratch/tklijnsm/V11_full_subjets_0.3delR.root'
p31
sS'input_tree_name'
p32
S'tree'
p33
sS'particles'
p34
(lp35
g10
ag14
asS'E_bounds'
p36
(lp37
F30.0
aF300.0
asS'mc_Eta_str'
p38
S'Jet_mcEta'
p39
sS'mc_Flavour_str'
p40
S'Jet_mcFlavour'
p41
sS'ABFunctions'
p42
(dp43
g10
(lp44
(iTFClasses
function
p45
(dp46
S'par_errors'
p47
(lp48
sS'par_values'
p49
(lp50
sS'abspars'
p51
(lp52
sS'str'
p53
S'1'
p54
sS'par_initials'
p55
(lp56
sba(iTFClasses
function
p57
(dp58
g47
(lp59
sg49
(lp60
sg51
g52
sg53
S'[0]+[1]*x'
p61
sg55
(lp62
S'0'
p63
ag54
asba(iTFClasses
function
p64
(dp65
g47
(lp66
sg49
(lp67
sg51
g52
sg53
S'sqrt([0]*[0] + x*[1]*[1] + x*x*[2]*[2])'
p68
sg55
(lp69
g63
ag63
ag63
asba(iTFClasses
function
p70
(dp71
g47
(lp72
sg49
(lp73
sg51
g52
sg53
g61
sg55
(lp74
g63
ag54
asba(iTFClasses
function
p75
(dp76
g47
(lp77
sg49
(lp78
sg51
g52
sg53
g68
sg55
(lp79
g63
ag63
ag63
asbasg14
(lp80
(iTFClasses
function
p81
(dp82
g47
(lp83
sg49
(lp84
sg51
g52
sg53
g54
sg55
g56
sba(iTFClasses
function
p85
(dp86
g47
(lp87
sg49
(lp88
sg51
g52
sg53
g61
sg55
(lp89
g63
ag54
asba(iTFClasses
function
p90
(dp91
g47
(lp92
sg49
(lp93
sg51
g52
sg53
g68
sg55
(lp94
g63
ag63
ag63
asbassS'quark_E_str'
p95
S'Quark_pt'
p96
sS'reco_Phi_str'
p97
S'Jet_phi'
p98
sS'eta_axis'
p99
(lp100
F0.0
aF1.5
aF2.5
asS'n_entries_limited'
p101
I50000
sS'quark_Pt_str'
p102
g96
sS'SBF_plot_ranges'
p103
(dp104
g10
(lp105
(lp106
(lp107
I0
aF90.7476
aa(lp108
I0
aF101.0832
aa(lp109
I0
aF108.9672
aa(lp110
I0
aF115.7064
aa(lp111
I0
aF121.83000000000001
aa(lp112
I0
aF127.53240000000001
aa(lp113
I0
aF132.8784
aa(lp114
I0
aF138.0192
aa(lp115
I0
aF143.0304
aa(lp116
I0
aF147.9336
aa(lp117
I0
aF152.6964
aa(lp118
I0
aF157.3728
aa(lp119
I0
aF161.9952
aa(lp120
I0
aF166.5528
aa(lp121
I0
aF171.0672
aa(lp122
I0
aF175.67880000000002
aa(lp123
I0
aF180.2256
aa(lp124
I0
aF184.78320000000002
aa(lp125
I0
aF189.3192
aa(lp126
I0
aF193.8552
aa(lp127
I0
aF198.4668
aa(lp128
I0
aF203.0892
aa(lp129
I0
aF207.75480000000002
aa(lp130
I0
aF212.43120000000002
aa(lp131
I0
aF217.1292
aa(lp132
I0
aF221.9136
aa(lp133
I0
aF226.77360000000002
aa(lp134
I0
aF231.7632
aa(lp135
I0
aF236.7744
aa(lp136
I0
aF241.9368
aa(lp137
I0
aF247.0668
aa(lp138
I0
aF252.3588
aa(lp139
I0
aF257.7156
aa(lp140
I0
aF263.1804
aa(lp141
I0
aF268.7964
aa(lp142
I0
aF274.55280000000005
aa(lp143
I0
aF280.4712
aa(lp144
I0
aF286.50840000000005
aa(lp145
I0
aF292.74
aa(lp146
I0
aF299.37120000000004
aa(lp147
I0
aF306.0996
aa(lp148
I0
aF313.1196
aa(lp149
I0
aF320.52840000000003
aa(lp150
I0
aF328.1856
aa(lp151
I0
aF336.3288
aa(lp152
I0
aF345.1308
aa(lp153
I0
aF354.4728
aa(lp154
I0
aF364.5708
aa(lp155
I0
aF375.2952
aa(lp156
I0
aF387.26160000000004
aa(lp157
I0
aF400.2432
aa(lp158
I0
aF414.9852
aa(lp159
I0
aF431.7576
aa(lp160
I0
aF451.23
aa(lp161
I0
aF474.504
aa(lp162
I0
aF503.8476
aa(lp163
I0
aF542.3388
aa(lp164
I0
aF600.0
aaa(lp165
(lp166
I0
aF90.3372
aa(lp167
I0
aF99.67920000000001
aa(lp168
I0
aF106.3644
aa(lp169
I0
aF112.11
aa(lp170
I0
aF117.3696
aa(lp171
I0
aF122.316
aa(lp172
I0
aF127.15440000000001
aa(lp173
I0
aF131.7012
aa(lp174
I0
aF136.2804
aa(lp175
I0
aF140.6004
aa(lp176
I0
aF144.726
aa(lp177
I0
aF148.776
aa(lp178
I0
aF152.8908
aa(lp179
I0
aF157.08120000000002
aa(lp180
I0
aF161.25
aa(lp181
I0
aF165.2244
aa(lp182
I0
aF169.296
aa(lp183
I0
aF173.2812
aa(lp184
I0
aF177.4284
aa(lp185
I0
aF181.5972
aa(lp186
I0
aF185.7768
aa(lp187
I0
aF189.978
aa(lp188
I0
aF194.2224
aa(lp189
I0
aF198.5856
aa(lp190
I0
aF202.9164
aa(lp191
I0
aF207.3984
aa(lp192
I0
aF211.8372
aa(lp193
I0
aF216.4164
aa(lp194
I0
aF221.1468
aa(lp195
I0
aF225.73680000000002
aa(lp196
I0
aF230.5428
aa(lp197
I0
aF235.446
aa(lp198
I0
aF240.5436
aa(lp199
I0
aF245.6952
aa(lp200
I0
aF251.0412
aa(lp201
I0
aF256.452
aa(lp202
I0
aF262.3056
aa(lp203
I0
aF268.062
aa(lp204
I0
aF274.05600000000004
aa(lp205
I0
aF280.374
aa(lp206
I0
aF286.7352
aa(lp207
I0
aF293.25840000000005
aa(lp208
I0
aF300.192
aa(lp209
I0
aF307.5792
aa(lp210
I0
aF314.91240000000005
aa(lp211
I0
aF323.0448
aa(lp212
I0
aF331.6848
aa(lp213
I0
aF341.0808
aa(lp214
I0
aF351.384
aa(lp215
I0
aF362.4108
aa(lp216
I0
aF374.3772
aa(lp217
I0
aF388.59000000000003
aa(lp218
I0
aF404.3256
aa(lp219
I0
aF422.90160000000003
aa(lp220
I0
aF445.4304
aa(lp221
I0
aF475.91880000000003
aa(lp222
I0
aF519.4104
aa(lp223
I0
aF600.0
aaasg14
(lp224
(lp225
(lp226
I0
aF74.4396
aa(lp227
I0
aF81.8808
aa(lp228
I0
aF87.8532
aa(lp229
I0
aF93.1344
aa(lp230
I0
aF98.08080000000001
aa(lp231
I0
aF102.6708
aa(lp232
I0
aF107.09880000000001
aa(lp233
I0
aF111.3972
aa(lp234
I0
aF115.5768
aa(lp235
I0
aF119.6808
aa(lp236
I0
aF123.774
aa(lp237
I0
aF127.7916
aa(lp238
I0
aF131.8092
aa(lp239
I0
aF135.8268
aa(lp240
I0
aF139.812
aa(lp241
I0
aF143.78640000000001
aa(lp242
I0
aF147.8256
aa(lp243
I0
aF151.8
aa(lp244
I0
aF155.8392
aa(lp245
I0
aF159.85680000000002
aa(lp246
I0
aF163.89600000000002
aa(lp247
I0
aF167.9892
aa(lp248
I0
aF172.1148
aa(lp249
I0
aF176.3268
aa(lp250
I0
aF180.6036
aa(lp251
I0
aF184.902
aa(lp252
I0
aF189.29760000000002
aa(lp253
I0
aF193.7364
aa(lp254
I0
aF198.22920000000002
aa(lp255
I0
aF202.8084
aa(lp256
I0
aF207.5388
aa(lp257
I0
aF212.3556
aa(lp258
I0
aF217.2696
aa(lp259
I0
aF222.34560000000002
aa(lp260
I0
aF227.49720000000002
aa(lp261
I0
aF232.8
aa(lp262
I0
aF238.2756
aa(lp263
I0
aF243.924
aa(lp264
I0
aF249.76680000000002
aa(lp265
I0
aF255.9336
aa(lp266
I0
aF262.2084
aa(lp267
I0
aF268.8828
aa(lp268
I0
aF275.7948
aa(lp269
I0
aF283.06320000000005
aa(lp270
I0
aF290.7744
aa(lp271
I0
aF298.9824
aa(lp272
I0
aF307.7628
aa(lp273
I0
aF317.2668
aa(lp274
I0
aF327.49440000000004
aa(lp275
I0
aF338.8236
aa(lp276
I0
aF351.50280000000004
aa(lp277
I0
aF365.8668
aa(lp278
I0
aF382.488
aa(lp279
I0
aF402.4572
aa(lp280
I0
aF427.29720000000003
aa(lp281
I0
aF460.2264
aa(lp282
I0
aF508.82640000000004
aa(lp283
I0
aF600.0
aaa(lp284
(lp285
I0
aF73.986
aa(lp286
I0
aF80.94120000000001
aa(lp287
I0
aF86.3304
aa(lp288
I0
aF91.1688
aa(lp289
I0
aF95.5536
aa(lp290
I0
aF99.7116
aa(lp291
I0
aF103.7292
aa(lp292
I0
aF107.5632
aa(lp293
I0
aF111.3432
aa(lp294
I0
aF114.9504
aa(lp295
I0
aF118.6872
aa(lp296
I0
aF122.30520000000001
aa(lp297
I0
aF125.9016
aa(lp298
I0
aF129.5736
aa(lp299
I0
aF133.1808
aa(lp300
I0
aF136.7988
aa(lp301
I0
aF140.48160000000001
aa(lp302
I0
aF144.0888
aa(lp303
I0
aF147.804
aa(lp304
I0
aF151.56240000000003
aa(lp305
I0
aF155.28840000000002
aa(lp306
I0
aF159.1116
aa(lp307
I0
aF162.9672
aa(lp308
I0
aF166.9092
aa(lp309
I0
aF170.9916
aa(lp310
I0
aF174.8796
aa(lp311
I0
aF178.8972
aa(lp312
I0
aF183.1092
aa(lp313
I0
aF187.3536
aa(lp314
I0
aF191.7276
aa(lp315
I0
aF196.1664
aa(lp316
I0
aF200.6592
aa(lp317
I0
aF205.26000000000002
aa(lp318
I0
aF210.0444
aa(lp319
I0
aF214.98000000000002
aa(lp320
I0
aF219.9588
aa(lp321
I0
aF225.08880000000002
aa(lp322
I0
aF230.4024
aa(lp323
I0
aF235.81320000000002
aa(lp324
I0
aF241.55880000000002
aa(lp325
I0
aF247.46640000000002
aa(lp326
I0
aF253.65480000000002
aa(lp327
I0
aF260.1024
aa(lp328
I0
aF266.84159999999997
aa(lp329
I0
aF274.01279999999997
aa(lp330
I0
aF281.5188
aa(lp331
I0
aF289.7052
aa(lp332
I0
aF298.3344
aa(lp333
I0
aF307.752
aa(lp334
I0
aF318.4116
aa(lp335
I0
aF329.9028
aa(lp336
I0
aF343.38120000000004
aa(lp337
I0
aF358.5876
aa(lp338
I0
aF377.13120000000004
aa(lp339
I0
aF400.23240000000004
aa(lp340
I0
aF431.16360000000003
aa(lp341
I0
aF478.9212
aa(lp342
I0
aF600.0
aaassS'date'
p343
S'2015-04-11 16:58:47'
p344
sS'enddate'
p345
S'2015-04-11 17:02:07'
p346
sS'quark_Eta_str'
p347
S'Quark_eta'
p348
sS'n_total_events'
p349
L3096153L
sS'info'
p350
S'*** Information on this config.dat ***\nThis config file contains the input parameters (and some output parameters) used in the creation of TFMat.dat, the matrix of transfer functions. \n\nSome html-overviews are produced in the output directory.\n\n This config.dat was created on: 2015-04-11 16:58:47'
p351
sS'E_or_Pt_str'
p352
S'Pt'
p353
sS'Use_mc_values'
p354
I00
sS'E_value_mean_or_center'
p355
S'm'
p356
sS'reco_E_str'
p357
g24
sS'SBF_pickle_filename'
p358
S'V11_full_TF_subjets_0.3delR/pickleSBFfitdata.dat'
p359
sS'reco_Eta_str'
p360
S'Jet_eta'
p361
sS'mc_Phi_str'
p362
S'Jet_mcPhi'
p363
sS'bin_functions'
p364
(dp365
g10
(lp366
(iTFClasses
function
p367
(dp368
S'DG_rel_weight'
p369
F0.7
sg49
(lp370
sg51
(lp371
I1
aI2
aI3
aI4
asS'DG_mean'
p372
(lp373
S'[1]'
p374
aS'[3]'
p375
asg47
(lp376
sS'Is_DG'
p377
I01
sg53
S'[0]*(0.7*exp(-0.5*((x-([1]))/([2]))**2)+(1-0.7)*exp(-0.5*((x-([3]))/([2]+[4]))**2))'
p378
sg55
(lp379
g63
aS'1.2*mean'
p380
aS'0.5*rms'
p381
aS'0.8*mean'
p382
aS'1.0*rms'
p383
asS'DG_rms'
p384
(lp385
S'[2]'
p386
aS'[2]+[4]'
p387
asbag367
asg14
(lp388
(iTFClasses
function
p389
(dp390
g49
(lp391
sg51
g52
sg47
(lp392
sS'Is_SG'
p393
I01
sS'SG_mean'
p394
g374
sg53
S'[0]*exp(-0.5*((x-([1]))/([2]))**2)'
p395
sg55
(lp396
g63
aS'mean'
p397
aS'rms'
p398
asS'SG_rms'
p399
g386
sbag389
assS'n_E_bins'
p400
I58
sS'mc_E_str'
p401
g6
sS'Use_Pt'
p402
I01
s.