(dp0
S'b'
p1
(lp2
(lp3
(dp4
S'E_value'
p5
F40.67016454078436
sS'i_eta'
p6
I0
sS'n_eta_bins'
p7
I2
sS'single_bin_func'
p8
(iTFClasses
function
p9
(dp10
S'par_errors'
p11
(lp12
F13.042410976258454
aF0.33440613696922306
aF0.2059135863645145
aF0.5054585559694513
aF0.4334701132373553
asS'par_values'
p13
(lp14
F718.2506882610611
aF32.22285059172392
aF6.539867095212704
aF2.1519785953216797e-08
aF18.161360760443834
asS'abspars'
p15
(lp16
I1
aI2
aI3
aI4
asS'DG_mean'
p17
(lp18
S'[1]'
p19
aS'[3]'
p20
asS'DG_rel_weight'
p21
F0.7
sS'Is_DG'
p22
I01
sS'str'
p23
S'[0]*(0.7*exp(-0.5*((x-([1]))/([2]))**2)+(1-0.7)*exp(-0.5*((x-([3]))/([2]+[4]))**2))'
p24
sS'par_initials'
p25
(lp26
S'0'
p27
aS'1.2*mean'
p28
aS'0.5*rms'
p29
aS'0.8*mean'
p30
aS'1.0*rms'
p31
asS'DG_rms'
p32
(lp33
S'[2]'
p34
aS'[2]+[4]'
p35
asbsS'eta_bounds'
p36
(lp37
F0.0
aF1.5
asS'n_E_bins'
p38
I58
sS'type'
p39
g1
sS'i_E'
p40
I0
sa(dp41
g5
F48.11592941545409
sg6
I0
sg7
I2
sg8
(iTFClasses
function
p42
(dp43
g11
(lp44
F9.789053344942015
aF0.34087634429952374
aF0.13495501821852995
aF0.9436436483849491
aF0.6069901459751503
asg13
(lp45
F480.96292811138153
aF38.957676769616924
aF5.7886371655949675
aF41.40661441707982
aF3.159866312572923
asg15
(lp46
I1
aI2
aI3
aI4
asg17
(lp47
g19
ag20
asg21
F0.7
sg22
I01
sg23
g24
sg25
(lp48
g27
ag28
ag29
ag30
ag31
asg32
(lp49
g34
ag35
asbsg36
(lp50
F0.0
aF1.5
asg38
I58
sg39
g1
sg40
I1
sa(dp51
g5
F52.565006723954085
sg6
I0
sg7
I2
sg8
(iTFClasses
function
p52
(dp53
g11
(lp54
F7.532262956693951
aF0.29182566939195453
aF0.17851097990928544
aF1.1411517546332526
aF0.7804219959989256
asg13
(lp55
F447.04009165906444
aF43.18598014349917
aF6.595768741727515
aF40.175867484478104
aF5.2679036658676015
asg15
(lp56
I1
aI2
aI3
aI4
asg17
(lp57
g19
ag20
asg21
F0.7
sg22
I01
sg23
g24
sg25
(lp58
g27
ag28
ag29
ag30
ag31
asg32
(lp59
g34
ag35
asbsg36
(lp60
F0.0
aF1.5
asg38
I58
sg39
g1
sg40
I2
sa(dp61
g5
F56.204992969043744
sg6
I0
sg7
I2
sg8
(iTFClasses
function
p62
(dp63
g11
(lp64
F12.133694260495021
aF0.316271152034755
aF0.12000929875893851
aF0.6742872953476855
aF0.4129339563818113
asg13
(lp65
F477.426628702139
aF44.54300326210969
aF6.831777669360273
aF50.85328988412685
aF1.7619979998122481
asg15
(lp66
I1
aI2
aI3
aI4
asg17
(lp67
g19
ag20
asg21
F0.7
sg22
I01
sg23
g24
sg25
(lp68
g27
ag28
ag29
ag30
ag31
asg32
(lp69
g34
ag35
asbsg36
(lp70
F0.0
aF1.5
asg38
I58
sg39
g1
sg40
I3
sa(dp71
g5
F59.40059333458859
sg6
I0
sg7
I2
sg8
(iTFClasses
function
p72
(dp73
g11
(lp74
F7.088483745673404
aF0.30929157927306505
aF0.23810769334392567
aF0.6427840393546411
aF0.6857510906094211
asg13
(lp75
F426.6393465998581
aF49.345560202056824
aF7.825125985429282
aF46.66129464578339
aF3.8909363184239654
asg15
(lp76
I1
aI2
aI3
aI4
asg17
(lp77
g19
ag20
asg21
F0.7
sg22
I01
sg23
g24
sg25
(lp78
g27
ag28
ag29
ag30
ag31
asg32
(lp79
g34
ag35
asbsg36
(lp80
F0.0
aF1.5
asg38
I58
sg39
g1
sg40
I4
sa(dp81
g5
F62.3587812633162
sg6
I0
sg7
I2
sg8
(iTFClasses
function
p82
(dp83
g11
(lp84
F8.016307757879499
aF0.20748160001071625
aF0.17208104382088196
aF0.44057451904838985
aF0.4178146592835885
asg13
(lp85
F452.255756204374
aF53.16535390559285
aF7.0189539005652835
aF46.73559361638091
aF6.985712872049188
asg15
(lp86
I1
aI2
aI3
aI4
asg17
(lp87
g19
ag20
asg21
F0.7
sg22
I01
sg23
g24
sg25
(lp88
g27
ag28
ag29
ag30
ag31
asg32
(lp89
g34
ag35
asbsg36
(lp90
F0.0
aF1.5
asg38
I58
sg39
g1
sg40
I5
sa(dp91
g5
F65.10344276225092
sg6
I0
sg7
I2
sg8
(iTFClasses
function
p92
(dp93
g11
(lp94
F7.392223043974425
aF0.24220579486344818
aF0.19070932567966148
aF0.44501815339420503
aF0.42607790577858795
asg13
(lp95
F435.00031595099557
aF54.918375740464654
aF7.843754672647973
aF51.325805001195214
aF5.68666257663919
asg15
(lp96
I1
aI2
aI3
aI4
asg17
(lp97
g19
ag20
asg21
F0.7
sg22
I01
sg23
g24
sg25
(lp98
g27
ag28
ag29
ag30
ag31
asg32
(lp99
g34
ag35
asbsg36
(lp100
F0.0
aF1.5
asg38
I58
sg39
g1
sg40
I6
sa(dp101
g5
F67.73100843903052
sg6
I0
sg7
I2
sg8
(iTFClasses
function
p102
(dp103
g11
(lp104
F7.572276942535408
aF0.2540246241846127
aF0.19700117891019442
aF0.44509948316179404
aF0.4291730632209889
asg13
(lp105
F448.74851608977883
aF57.222215722576905
aF8.112262750405996
aF53.783462107310996
aF5.263468168912877
asg15
(lp106
I1
aI2
aI3
aI4
asg17
(lp107
g19
ag20
asg21
F0.7
sg22
I01
sg23
g24
sg25
(lp108
g27
ag28
ag29
ag30
ag31
asg32
(lp109
g34
ag35
asbsg36
(lp110
F0.0
aF1.5
asg38
I58
sg39
g1
sg40
I7
sa(dp111
g5
F70.26364722100382
sg6
I0
sg7
I2
sg8
(iTFClasses
function
p112
(dp113
g11
(lp114
F7.520388107064378
aF0.2636566546545538
aF0.20607711058079303
aF0.4681093023429206
aF0.440445626111563
asg13
(lp115
F446.59337410771633
aF59.52401275647779
aF8.514336389317979
aF55.810803204513036
aF5.320649800203525
asg15
(lp116
I1
aI2
aI3
aI4
asg17
(lp117
g19
ag20
asg21
F0.7
sg22
I01
sg23
g24
sg25
(lp118
g27
ag28
ag29
ag30
ag31
asg32
(lp119
g34
ag35
asbsg36
(lp120
F0.0
aF1.5
asg38
I58
sg39
g1
sg40
I8
sa(dp121
g5
F72.74892610169492
sg6
I0
sg7
I2
sg8
(iTFClasses
function
p122
(dp123
g11
(lp124
F8.064686694077423
aF0.24735444490264769
aF0.193166486600449
aF0.4384308482474637
aF0.4143594110375681
asg13
(lp125
F469.2260392252554
aF62.485884358621455
aF8.113878710733768
aF57.15978472561578
aF6.061754555353849
asg15
(lp126
I1
aI2
aI3
aI4
asg17
(lp127
g19
ag20
asg21
F0.7
sg22
I01
sg23
g24
sg25
(lp128
g27
ag28
ag29
ag30
ag31
asg32
(lp129
g34
ag35
asbsg36
(lp130
F0.0
aF1.5
asg38
I58
sg39
g1
sg40
I9
sa(dp131
g5
F75.16019425675675
sg6
I0
sg7
I2
sg8
(iTFClasses
function
p132
(dp133
g11
(lp134
F7.9146771946261625
aF0.29660388237601154
aF0.2187330497479536
aF0.5537748390083692
aF0.4806206081877096
asg13
(lp135
F456.4410878281179
aF64.29008238294797
aF8.764755873458263
aF59.725412551140835
aF5.141151061750837
asg15
(lp136
I1
aI2
aI3
aI4
asg17
(lp137
g19
ag20
asg21
F0.7
sg22
I01
sg23
g24
sg25
(lp138
g27
ag28
ag29
ag30
ag31
asg32
(lp139
g34
ag35
asbsg36
(lp140
F0.0
aF1.5
asg38
I58
sg39
g1
sg40
I10
sa(dp141
g5
F77.51439329981145
sg6
I0
sg7
I2
sg8
(iTFClasses
function
p142
(dp143
g11
(lp144
F8.399826451289865
aF0.23721159517669577
aF0.19991324435708613
aF0.42027613059580915
aF0.3878060899805136
asg13
(lp145
F483.85183440181703
aF66.96812890162163
aF8.298582358172823
aF61.01244576446263
aF6.395607753882038
asg15
(lp146
I1
aI2
aI3
aI4
asg17
(lp147
g19
ag20
asg21
F0.7
sg22
I01
sg23
g24
sg25
(lp148
g27
ag28
ag29
ag30
ag31
asg32
(lp149
g34
ag35
asbsg36
(lp150
F0.0
aF1.5
asg38
I58
sg39
g1
sg40
I11
sa(dp151
g5
F79.85828733701103
sg6
I0
sg7
I2
sg8
(iTFClasses
function
p152
(dp153
g11
(lp154
F8.058705777035536
aF0.3085483167777312
aF0.22645440058727218
aF0.5615802428803853
aF0.45310438836937417
asg13
(lp155
F456.6116148800876
aF68.21102304354542
aF9.171095641501426
aF64.10518478564397
aF5.606383926260561
asg15
(lp156
I1
aI2
aI3
aI4
asg17
(lp157
g19
ag20
asg21
F0.7
sg22
I01
sg23
g24
sg25
(lp158
g27
ag28
ag29
ag30
ag31
asg32
(lp159
g34
ag35
asbsg36
(lp160
F0.0
aF1.5
asg38
I58
sg39
g1
sg40
I12
sa(dp161
g5
F82.13996039579159
sg6
I0
sg7
I2
sg8
(iTFClasses
function
p162
(dp163
g11
(lp164
F8.092204896464331
aF0.2542716697096523
aF0.19733339882471768
aF0.4403514778714168
aF0.3901975250987788
asg13
(lp165
F483.8719933841194
aF71.19784468713507
aF8.916383308131714
aF64.90485820732484
aF6.7620242893550175
asg15
(lp166
I1
aI2
aI3
aI4
asg17
(lp167
g19
ag20
asg21
F0.7
sg22
I01
sg23
g24
sg25
(lp168
g27
ag28
ag29
ag30
ag31
asg32
(lp169
g34
ag35
asbsg36
(lp170
F0.0
aF1.5
asg38
I58
sg39
g1
sg40
I13
sa(dp171
g5
F84.39928851368316
sg6
I0
sg7
I2
sg8
(iTFClasses
function
p172
(dp173
g11
(lp174
F8.263037027840944
aF0.29906461453904853
aF0.20372075352742502
aF0.5568701402173843
aF0.4580234352242196
asg13
(lp175
F489.95887083191394
aF73.2394255276172
aF9.234241643201857
aF66.38916407767836
aF5.9104624459085375
asg15
(lp176
I1
aI2
aI3
aI4
asg17
(lp177
g19
ag20
asg21
F0.7
sg22
I01
sg23
g24
sg25
(lp178
g27
ag28
ag29
ag30
ag31
asg32
(lp179
g34
ag35
asbsg36
(lp180
F0.0
aF1.5
asg38
I58
sg39
g1
sg40
I14
sa(dp181
g5
F86.68316141781682
sg6
I0
sg7
I2
sg8
(iTFClasses
function
p182
(dp183
g11
(lp184
F9.208168839588131
aF0.37233196707558847
aF0.22728717739350923
aF0.7950763034546
aF0.6042348331319336
asg13
(lp185
F506.2113952648963
aF75.73350037672056
aF9.337983102737258
aF68.21326563143448
aF5.428713191341306
asg15
(lp186
I1
aI2
aI3
aI4
asg17
(lp187
g19
ag20
asg21
F0.7
sg22
I01
sg23
g24
sg25
(lp188
g27
ag28
ag29
ag30
ag31
asg32
(lp189
g34
ag35
asbsg36
(lp190
F0.0
aF1.5
asg38
I58
sg39
g1
sg40
I15
sa(dp191
g5
F88.96998804790871
sg6
I0
sg7
I2
sg8
(iTFClasses
function
p192
(dp193
g11
(lp194
F9.013982936297293
aF0.33458440958395386
aF0.23112377183054456
aF0.6708145043610187
aF0.5106554334639579
asg13
(lp195
F502.2593267789974
aF77.77554660845631
aF9.471790821399706
aF70.63234219416192
aF5.913427552889927
asg15
(lp196
I1
aI2
aI3
aI4
asg17
(lp197
g19
ag20
asg21
F0.7
sg22
I01
sg23
g24
sg25
(lp198
g27
ag28
ag29
ag30
ag31
asg32
(lp199
g34
ag35
asbsg36
(lp200
F0.0
aF1.5
asg38
I58
sg39
g1
sg40
I16
sa(dp201
g5
F91.25296770513384
sg6
I0
sg7
I2
sg8
(iTFClasses
function
p202
(dp203
g11
(lp204
F8.962467143217658
aF0.29718744412932097
aF0.22205949362602606
aF0.558368448132839
aF0.4532916897622141
asg13
(lp205
F508.5757291893893
aF79.72581667649736
aF9.358685216476093
aF72.12246540156497
aF6.68775897387619
asg15
(lp206
I1
aI2
aI3
aI4
asg17
(lp207
g19
ag20
asg21
F0.7
sg22
I01
sg23
g24
sg25
(lp208
g27
ag28
ag29
ag30
ag31
asg32
(lp209
g34
ag35
asbsg36
(lp210
F0.0
aF1.5
asg38
I58
sg39
g1
sg40
I17
sa(dp211
g5
F93.50892040586245
sg6
I0
sg7
I2
sg8
(iTFClasses
function
p212
(dp213
g11
(lp214
F9.045171057647181
aF0.2985175243577771
aF0.21511333846579994
aF0.5776746286643188
aF0.4448046888181345
asg13
(lp215
F521.129148683077
aF82.06837185938332
aF9.339891124243493
aF74.20205317839445
aF6.65033655775904
asg15
(lp216
I1
aI2
aI3
aI4
asg17
(lp217
g19
ag20
asg21
F0.7
sg22
I01
sg23
g24
sg25
(lp218
g27
ag28
ag29
ag30
ag31
asg32
(lp219
g34
ag35
asbsg36
(lp220
F0.0
aF1.5
asg38
I58
sg39
g1
sg40
I18
sa(dp221
g5
F95.79876285732236
sg6
I0
sg7
I2
sg8
(iTFClasses
function
p222
(dp223
g11
(lp224
F9.178158064928946
aF0.2763252112001311
aF0.22133132073326411
aF0.4929490757318291
aF0.3941145254883205
asg13
(lp225
F522.1420438803268
aF83.79948778765257
aF9.33315162163073
aF76.6380228039133
aF7.430251896423767
asg15
(lp226
I1
aI2
aI3
aI4
asg17
(lp227
g19
ag20
asg21
F0.7
sg22
I01
sg23
g24
sg25
(lp228
g27
ag28
ag29
ag30
ag31
asg32
(lp229
g34
ag35
asbsg36
(lp230
F0.0
aF1.5
asg38
I58
sg39
g1
sg40
I19
sa(dp231
g5
F98.07504078947369
sg6
I0
sg7
I2
sg8
(iTFClasses
function
p232
(dp233
g11
(lp234
F9.832176512454893
aF0.285436527439785
aF0.22856895898071272
aF0.5486472113291399
aF0.43966384964555516
asg13
(lp235
F540.6104453278539
aF86.56009950159049
aF9.149040707849165
aF77.668371263934
aF7.5351089970143725
asg15
(lp236
I1
aI2
aI3
aI4
asg17
(lp237
g19
ag20
asg21
F0.7
sg22
I01
sg23
g24
sg25
(lp238
g27
ag28
ag29
ag30
ag31
asg32
(lp239
g34
ag35
asbsg36
(lp240
F0.0
aF1.5
asg38
I58
sg39
g1
sg40
I20
sa(dp241
g5
F100.37771364776718
sg6
I0
sg7
I2
sg8
(iTFClasses
function
p242
(dp243
g11
(lp244
F8.916531208537608
aF0.30015522782977655
aF0.2259961690624923
aF0.5372041617611742
aF0.4277644147607229
asg13
(lp245
F514.0186639071009
aF87.92085962808017
aF9.89775661199932
aF80.14377890494306
aF7.663643070347725
asg15
(lp246
I1
aI2
aI3
aI4
asg17
(lp247
g19
ag20
asg21
F0.7
sg22
I01
sg23
g24
sg25
(lp248
g27
ag28
ag29
ag30
ag31
asg32
(lp249
g34
ag35
asbsg36
(lp250
F0.0
aF1.5
asg38
I58
sg39
g1
sg40
I21
sa(dp251
g5
F102.70124280067759
sg6
I0
sg7
I2
sg8
(iTFClasses
function
p252
(dp253
g11
(lp254
F8.94702052053625
aF0.32445036923761705
aF0.2385189695904293
aF0.5907075731138036
aF0.47524123412084895
asg13
(lp255
F518.9238337981953
aF89.50376637982981
aF10.379303060933488
aF82.25675015198719
aF6.937658008372316
asg15
(lp256
I1
aI2
aI3
aI4
asg17
(lp257
g19
ag20
asg21
F0.7
sg22
I01
sg23
g24
sg25
(lp258
g27
ag28
ag29
ag30
ag31
asg32
(lp259
g34
ag35
asbsg36
(lp260
F0.0
aF1.5
asg38
I58
sg39
g1
sg40
I22
sa(dp261
g5
F105.0427254860153
sg6
I0
sg7
I2
sg8
(iTFClasses
function
p262
(dp263
g11
(lp264
F9.259640340672131
aF0.3210886216352691
aF0.2212054526198326
aF0.6223342178862694
aF0.48900502706406
asg13
(lp265
F545.1307458195383
aF92.53786243266005
aF10.164611944676105
aF83.1622174900215
aF7.0098089286649845
asg15
(lp266
I1
aI2
aI3
aI4
asg17
(lp267
g19
ag20
asg21
F0.7
sg22
I01
sg23
g24
sg25
(lp268
g27
ag28
ag29
ag30
ag31
asg32
(lp269
g34
ag35
asbsg36
(lp270
F0.0
aF1.5
asg38
I58
sg39
g1
sg40
I23
sa(dp271
g5
F107.3786836938123
sg6
I0
sg7
I2
sg8
(iTFClasses
function
p272
(dp273
g11
(lp274
F9.102950880355703
aF0.38735284575518847
aF0.23809192144802438
aF0.7822884610644323
aF0.5702538194897189
asg13
(lp275
F528.4117136833042
aF94.2129915293266
aF10.793254839982946
aF85.63092276945372
aF6.520755204392659
asg15
(lp276
I1
aI2
aI3
aI4
asg17
(lp277
g19
ag20
asg21
F0.7
sg22
I01
sg23
g24
sg25
(lp278
g27
ag28
ag29
ag30
ag31
asg32
(lp279
g34
ag35
asbsg36
(lp280
F0.0
aF1.5
asg38
I58
sg39
g1
sg40
I24
sa(dp281
g5
F109.76116296342686
sg6
I0
sg7
I2
sg8
(iTFClasses
function
p282
(dp283
g11
(lp284
F9.431118423039093
aF0.32107045901280173
aF0.23306712222897996
aF0.6025346034548846
aF0.4703100785359844
asg13
(lp285
F551.4545706187844
aF96.65967240350093
aF10.442389175262967
aF87.66487075660268
aF7.528552241366393
asg15
(lp286
I1
aI2
aI3
aI4
asg17
(lp287
g19
ag20
asg21
F0.7
sg22
I01
sg23
g24
sg25
(lp288
g27
ag28
ag29
ag30
ag31
asg32
(lp289
g34
ag35
asbsg36
(lp290
F0.0
aF1.5
asg38
I58
sg39
g1
sg40
I25
sa(dp291
g5
F112.16747160060211
sg6
I0
sg7
I2
sg8
(iTFClasses
function
p292
(dp293
g11
(lp294
F9.682260503588864
aF0.30819903274537097
aF0.23546020815690127
aF0.5916477051528517
aF0.48837595658202115
asg13
(lp295
F564.3191778791597
aF99.28996703319804
aF10.3287205497532
aF89.20951682958345
aF7.6994925932866165
asg15
(lp296
I1
aI2
aI3
aI4
asg17
(lp297
g19
ag20
asg21
F0.7
sg22
I01
sg23
g24
sg25
(lp298
g27
ag28
ag29
ag30
ag31
asg32
(lp299
g34
ag35
asbsg36
(lp300
F0.0
aF1.5
asg38
I58
sg39
g1
sg40
I26
sa(dp301
g5
F114.61807692500786
sg6
I0
sg7
I2
sg8
(iTFClasses
function
p302
(dp303
g11
(lp304
F10.069535852396335
aF0.2909850486989498
aF0.24723453195796274
aF0.49213747493142534
aF0.4080836081936656
asg13
(lp305
F570.4616917436861
aF100.65352320390065
aF10.336571031474563
aF92.82084078092268
aF8.550201120113176
asg15
(lp306
I1
aI2
aI3
aI4
asg17
(lp307
g19
ag20
asg21
F0.7
sg22
I01
sg23
g24
sg25
(lp308
g27
ag28
ag29
ag30
ag31
asg32
(lp309
g34
ag35
asbsg36
(lp310
F0.0
aF1.5
asg38
I58
sg39
g1
sg40
I27
sa(dp311
g5
F117.13580362110011
sg6
I0
sg7
I2
sg8
(iTFClasses
function
p312
(dp313
g11
(lp314
F9.79036011033882
aF0.345670830587558
aF0.2310680413118984
aF0.6778787615362418
aF0.5196665002599188
asg13
(lp315
F570.6143147855876
aF104.16310922528626
aF10.870314528595992
aF93.2814672990846
aF7.346236556898367
asg15
(lp316
I1
aI2
aI3
aI4
asg17
(lp317
g19
ag20
asg21
F0.7
sg22
I01
sg23
g24
sg25
(lp318
g27
ag28
ag29
ag30
ag31
asg32
(lp319
g34
ag35
asbsg36
(lp320
F0.0
aF1.5
asg38
I58
sg39
g1
sg40
I28
sa(dp321
g5
F119.66949209932281
sg6
I0
sg7
I2
sg8
(iTFClasses
function
p322
(dp323
g11
(lp324
F9.629120914489327
aF0.3107711047604056
aF0.23292073026764992
aF0.554481860728373
aF0.42678939244694636
asg13
(lp325
F569.202073155328
aF105.64174027230978
aF10.720948048124178
aF96.19086140919997
aF8.489967275796651
asg15
(lp326
I1
aI2
aI3
aI4
asg17
(lp327
g19
ag20
asg21
F0.7
sg22
I01
sg23
g24
sg25
(lp328
g27
ag28
ag29
ag30
ag31
asg32
(lp329
g34
ag35
asbsg36
(lp330
F0.0
aF1.5
asg38
I58
sg39
g1
sg40
I29
sa(dp331
g5
F122.24067494356659
sg6
I0
sg7
I2
sg8
(iTFClasses
function
p332
(dp333
g11
(lp334
F9.984593929955393
aF0.33500952135240425
aF0.2538176807340147
aF0.6439215897313133
aF0.5015304862747705
asg13
(lp335
F576.8035507060047
aF108.16258638014153
aF11.026392800459694
aF97.86340050150677
aF8.426242211739376
asg15
(lp336
I1
aI2
aI3
aI4
asg17
(lp337
g19
ag20
asg21
F0.7
sg22
I01
sg23
g24
sg25
(lp338
g27
ag28
ag29
ag30
ag31
asg32
(lp339
g34
ag35
asbsg36
(lp340
F0.0
aF1.5
asg38
I58
sg39
g1
sg40
I30
sa(dp341
g5
F124.84278637817498
sg6
I0
sg7
I2
sg8
(iTFClasses
function
p342
(dp343
g11
(lp344
F10.39417065390904
aF0.3107670064707051
aF0.2573587136381894
aF0.5801222382208522
aF0.4794053856952978
asg13
(lp345
F587.2103945941004
aF111.24376697113325
aF10.776022655522244
aF100.03692859774105
aF8.87839999778739
asg15
(lp346
I1
aI2
aI3
aI4
asg17
(lp347
g19
ag20
asg21
F0.7
sg22
I01
sg23
g24
sg25
(lp348
g27
ag28
ag29
ag30
ag31
asg32
(lp349
g34
ag35
asbsg36
(lp350
F0.0
aF1.5
asg38
I58
sg39
g1
sg40
I31
sa(dp351
g5
F127.49814539287733
sg6
I0
sg7
I2
sg8
(iTFClasses
function
p352
(dp353
g11
(lp354
F10.151374610212677
aF0.3439853538416173
aF0.2533232094091282
aF0.6363598329828761
aF0.5091325663279522
asg13
(lp355
F586.9465639911699
aF112.91430200113962
aF11.323319386630892
aF102.27335448086916
aF8.351855054346323
asg15
(lp356
I1
aI2
aI3
aI4
asg17
(lp357
g19
ag20
asg21
F0.7
sg22
I01
sg23
g24
sg25
(lp358
g27
ag28
ag29
ag30
ag31
asg32
(lp359
g34
ag35
asbsg36
(lp360
F0.0
aF1.5
asg38
I58
sg39
g1
sg40
I32
sa(dp361
g5
F130.21340687323945
sg6
I0
sg7
I2
sg8
(iTFClasses
function
p362
(dp363
g11
(lp364
F10.489405305893282
aF0.31607181449838606
aF0.2621643859385676
aF0.5472735491935978
aF0.45464098875119774
asg13
(lp365
F599.8465745275197
aF115.24231791218476
aF11.1984454366858
aF105.14168408029023
aF9.375339178479546
asg15
(lp366
I1
aI2
aI3
aI4
asg17
(lp367
g19
ag20
asg21
F0.7
sg22
I01
sg23
g24
sg25
(lp368
g27
ag28
ag29
ag30
ag31
asg32
(lp369
g34
ag35
asbsg36
(lp370
F0.0
aF1.5
asg38
I58
sg39
g1
sg40
I33
sa(dp371
g5
F132.97433869025218
sg6
I0
sg7
I2
sg8
(iTFClasses
function
p372
(dp373
g11
(lp374
F10.673334992872668
aF0.30216402429523015
aF0.25596377719522234
aF0.5429021245123025
aF0.4488084001486037
asg13
(lp375
F612.7736722989634
aF118.34173777470613
aF10.958171382482007
aF107.0076666226466
aF9.651077501759087
asg15
(lp376
I1
aI2
aI3
aI4
asg17
(lp377
g19
ag20
asg21
F0.7
sg22
I01
sg23
g24
sg25
(lp378
g27
ag28
ag29
ag30
ag31
asg32
(lp379
g34
ag35
asbsg36
(lp380
F0.0
aF1.5
asg38
I58
sg39
g1
sg40
I34
sa(dp381
g5
F135.8301509114828
sg6
I0
sg7
I2
sg8
(iTFClasses
function
p382
(dp383
g11
(lp384
F10.411485831566862
aF0.3330720421695901
aF0.2610509504140097
aF0.6451117859360167
aF0.5061635045634496
asg13
(lp385
F604.4308460106026
aF120.78271569266951
aF11.498947603948316
aF108.38045626111115
aF9.127892323054665
asg15
(lp386
I1
aI2
aI3
aI4
asg17
(lp387
g19
ag20
asg21
F0.7
sg22
I01
sg23
g24
sg25
(lp388
g27
ag28
ag29
ag30
ag31
asg32
(lp389
g34
ag35
asbsg36
(lp390
F0.0
aF1.5
asg38
I58
sg39
g1
sg40
I35
sa(dp391
g5
F138.74320414859514
sg6
I0
sg7
I2
sg8
(iTFClasses
function
p392
(dp393
g11
(lp394
F10.345773373700238
aF0.32409852587450416
aF0.26469332890499686
aF0.5803010491354783
aF0.46513750218746264
asg13
(lp395
F608.2999710873704
aF123.23712726679491
aF11.731690304212727
aF112.65286069670366
aF9.703180012082147
asg15
(lp396
I1
aI2
aI3
aI4
asg17
(lp397
g19
ag20
asg21
F0.7
sg22
I01
sg23
g24
sg25
(lp398
g27
ag28
ag29
ag30
ag31
asg32
(lp399
g34
ag35
asbsg36
(lp400
F0.0
aF1.5
asg38
I58
sg39
g1
sg40
I36
sa(dp401
g5
F141.73041328903656
sg6
I0
sg7
I2
sg8
(iTFClasses
function
p402
(dp403
g11
(lp404
F10.111532380693053
aF0.3372863193855693
aF0.2669954105614103
aF0.5818659110815574
aF0.4910330638939753
asg13
(lp405
F589.3714583604293
aF126.09398431223772
aF12.124765581854824
aF114.03402643020166
aF9.954040722529921
asg15
(lp406
I1
aI2
aI3
aI4
asg17
(lp407
g19
ag20
asg21
F0.7
sg22
I01
sg23
g24
sg25
(lp408
g27
ag28
ag29
ag30
ag31
asg32
(lp409
g34
ag35
asbsg36
(lp410
F0.0
aF1.5
asg38
I58
sg39
g1
sg40
I37
sa(dp411
g5
F144.8184867985972
sg6
I0
sg7
I2
sg8
(iTFClasses
function
p412
(dp413
g11
(lp414
F10.891199815130006
aF0.38627938309628007
aF0.28127452591553137
aF0.8160957398827264
aF0.6051632670797669
asg13
(lp415
F625.6337886112901
aF129.1302338569169
aF12.25516918196079
aF116.55999344783486
aF8.460127976204435
asg15
(lp416
I1
aI2
aI3
aI4
asg17
(lp417
g19
ag20
asg21
F0.7
sg22
I01
sg23
g24
sg25
(lp418
g27
ag28
ag29
ag30
ag31
asg32
(lp419
g34
ag35
asbsg36
(lp420
F0.0
aF1.5
asg38
I58
sg39
g1
sg40
I38
sa(dp421
g5
F148.00904788944723
sg6
I0
sg7
I2
sg8
(iTFClasses
function
p422
(dp423
g11
(lp424
F10.885835073918315
aF0.33729877555855126
aF0.26739443995316137
aF0.6405662577632114
aF0.5295123923757528
asg13
(lp425
F626.3479089645067
aF131.85563726416748
aF11.82172129554193
aF117.85029819089543
aF9.788954344188916
asg15
(lp426
I1
aI2
aI3
aI4
asg17
(lp427
g19
ag20
asg21
F0.7
sg22
I01
sg23
g24
sg25
(lp428
g27
ag28
ag29
ag30
ag31
asg32
(lp429
g34
ag35
asbsg36
(lp430
F0.0
aF1.5
asg38
I58
sg39
g1
sg40
I39
sa(dp431
g5
F151.35720082717134
sg6
I0
sg7
I2
sg8
(iTFClasses
function
p432
(dp433
g11
(lp434
F10.585031909972281
aF0.3351652848935345
aF0.24829462380382417
aF0.5891816156524143
aF0.49512349576696835
asg13
(lp435
F634.0786783304499
aF134.8721736973315
aF12.086908385377516
aF121.08177279403442
aF10.227007258994615
asg15
(lp436
I1
aI2
aI3
aI4
asg17
(lp437
g19
ag20
asg21
F0.7
sg22
I01
sg23
g24
sg25
(lp438
g27
ag28
ag29
ag30
ag31
asg32
(lp439
g34
ag35
asbsg36
(lp440
F0.0
aF1.5
asg38
I58
sg39
g1
sg40
I40
sa(dp441
g5
F154.79097952321206
sg6
I0
sg7
I2
sg8
(iTFClasses
function
p442
(dp443
g11
(lp444
F10.780817904007845
aF0.3452746137083693
aF0.26934132112033105
aF0.6153610333676838
aF0.5059391277097429
asg13
(lp445
F631.4753216547793
aF137.67959404617292
aF12.285875343668206
aF124.71444224850003
aF10.389881292168335
asg15
(lp446
I1
aI2
aI3
aI4
asg17
(lp447
g19
ag20
asg21
F0.7
sg22
I01
sg23
g24
sg25
(lp448
g27
ag28
ag29
ag30
ag31
asg32
(lp449
g34
ag35
asbsg36
(lp450
F0.0
aF1.5
asg38
I58
sg39
g1
sg40
I41
sa(dp451
g5
F158.38716914393228
sg6
I0
sg7
I2
sg8
(iTFClasses
function
p452
(dp453
g11
(lp454
F11.112833632864312
aF0.31333074260398064
aF0.25591033967942245
aF0.5484578172311743
aF0.4536134594187997
asg13
(lp455
F661.2361381449367
aF141.2827757060401
aF12.01544331169757
aF127.15259475738716
aF10.811124023088702
asg15
(lp456
I1
aI2
aI3
aI4
asg17
(lp457
g19
ag20
asg21
F0.7
sg22
I01
sg23
g24
sg25
(lp458
g27
ag28
ag29
ag30
ag31
asg32
(lp459
g34
ag35
asbsg36
(lp460
F0.0
aF1.5
asg38
I58
sg39
g1
sg40
I42
sa(dp461
g5
F162.16039662695925
sg6
I0
sg7
I2
sg8
(iTFClasses
function
p462
(dp463
g11
(lp464
F10.920178329929998
aF0.3447575661514293
aF0.26975024362929645
aF0.629579720903152
aF0.5081798649139708
asg13
(lp465
F652.4067465814929
aF144.65869414640687
aF12.697241963186222
aF130.0361136576974
aF10.62996414761519
asg15
(lp466
I1
aI2
aI3
aI4
asg17
(lp467
g19
ag20
asg21
F0.7
sg22
I01
sg23
g24
sg25
(lp468
g27
ag28
ag29
ag30
ag31
asg32
(lp469
g34
ag35
asbsg36
(lp470
F0.0
aF1.5
asg38
I58
sg39
g1
sg40
I43
sa(dp471
g5
F166.1198613012411
sg6
I0
sg7
I2
sg8
(iTFClasses
function
p472
(dp473
g11
(lp474
F11.178953697735954
aF0.35901800072413437
aF0.28896080435569793
aF0.6507632278987501
aF0.5426656456627983
asg13
(lp475
F651.0760658294635
aF147.88202958186235
aF13.002451529302018
aF133.06105707422145
aF10.917673765300616
asg15
(lp476
I1
aI2
aI3
aI4
asg17
(lp477
g19
ag20
asg21
F0.7
sg22
I01
sg23
g24
sg25
(lp478
g27
ag28
ag29
ag30
ag31
asg32
(lp479
g34
ag35
asbsg36
(lp480
F0.0
aF1.5
asg38
I58
sg39
g1
sg40
I44
sa(dp481
g5
F170.33390115432874
sg6
I0
sg7
I2
sg8
(iTFClasses
function
p482
(dp483
g11
(lp484
F11.518761542961336
aF0.3541411324849406
aF0.30260364547674
aF0.6313218753490872
aF0.5311063909991249
asg13
(lp485
F656.2042447721365
aF151.5411806196021
aF12.985123693794897
aF136.63683033464747
aF11.727650077214879
asg15
(lp486
I1
aI2
aI3
aI4
asg17
(lp487
g19
ag20
asg21
F0.7
sg22
I01
sg23
g24
sg25
(lp488
g27
ag28
ag29
ag30
ag31
asg32
(lp489
g34
ag35
asbsg36
(lp490
F0.0
aF1.5
asg38
I58
sg39
g1
sg40
I45
sa(dp491
g5
F174.86772112128435
sg6
I0
sg7
I2
sg8
(iTFClasses
function
p492
(dp493
g11
(lp494
F10.992146433096055
aF0.3578696793458107
aF0.2782536174030241
aF0.6326657428160587
aF0.5294335991821715
asg13
(lp495
F661.1059771040026
aF155.44806146122014
aF13.391210555845245
aF140.01428840512776
aF11.601851229140813
asg15
(lp496
I1
aI2
aI3
aI4
asg17
(lp497
g19
ag20
asg21
F0.7
sg22
I01
sg23
g24
sg25
(lp498
g27
ag28
ag29
ag30
ag31
asg32
(lp499
g34
ag35
asbsg36
(lp500
F0.0
aF1.5
asg38
I58
sg39
g1
sg40
I46
sa(dp501
g5
F179.70457930385703
sg6
I0
sg7
I2
sg8
(iTFClasses
function
p502
(dp503
g11
(lp504
F11.339775330951896
aF0.3561098195563659
aF0.29394202284521675
aF0.6224631585878342
aF0.5068704474532328
asg13
(lp505
F672.219797921519
aF159.14579847314403
aF13.430675638575028
aF145.0419978208708
aF12.750681880260073
asg15
(lp506
I1
aI2
aI3
aI4
asg17
(lp507
g19
ag20
asg21
F0.7
sg22
I01
sg23
g24
sg25
(lp508
g27
ag28
ag29
ag30
ag31
asg32
(lp509
g34
ag35
asbsg36
(lp510
F0.0
aF1.5
asg38
I58
sg39
g1
sg40
I47
sa(dp511
g5
F184.9186213094193
sg6
I0
sg7
I2
sg8
(iTFClasses
function
p512
(dp513
g11
(lp514
F11.66572579250061
aF0.3694878480738879
aF0.30549453029810003
aF0.693514458361193
aF0.574100644217757
asg13
(lp515
F680.2449431415629
aF164.709647970565
aF13.913028331340893
aF147.2170278995486
aF10.980368547821584
asg15
(lp516
I1
aI2
aI3
aI4
asg17
(lp517
g19
ag20
asg21
F0.7
sg22
I01
sg23
g24
sg25
(lp518
g27
ag28
ag29
ag30
ag31
asg32
(lp519
g34
ag35
asbsg36
(lp520
F0.0
aF1.5
asg38
I58
sg39
g1
sg40
I48
sa(dp521
g5
F190.606041434213
sg6
I0
sg7
I2
sg8
(iTFClasses
function
p522
(dp523
g11
(lp524
F11.75664456094305
aF0.368209257334442
aF0.3045529969646905
aF0.6375341287447753
aF0.5435834954730661
asg13
(lp525
F685.4462960416752
aF169.77810814826955
aF13.983291389229823
aF152.64117787526743
aF12.418764708297726
asg15
(lp526
I1
aI2
aI3
aI4
asg17
(lp527
g19
ag20
asg21
F0.7
sg22
I01
sg23
g24
sg25
(lp528
g27
ag28
ag29
ag30
ag31
asg32
(lp529
g34
ag35
asbsg36
(lp530
F0.0
aF1.5
asg38
I58
sg39
g1
sg40
I49
sa(dp531
g5
F196.82335980429056
sg6
I0
sg7
I2
sg8
(iTFClasses
function
p532
(dp533
g11
(lp534
F11.835755022825035
aF0.3741353266352121
aF0.3100198295555856
aF0.6619261450185405
aF0.5480961302204435
asg13
(lp535
F691.0547957615968
aF175.25124441406192
aF14.061907511913386
aF157.82782470669198
aF13.500016585866526
asg15
(lp536
I1
aI2
aI3
aI4
asg17
(lp537
g19
ag20
asg21
F0.7
sg22
I01
sg23
g24
sg25
(lp538
g27
ag28
ag29
ag30
ag31
asg32
(lp539
g34
ag35
asbsg36
(lp540
F0.0
aF1.5
asg38
I58
sg39
g1
sg40
I50
sa(dp541
g5
F203.6998298990406
sg6
I0
sg7
I2
sg8
(iTFClasses
function
p542
(dp543
g11
(lp544
F11.51075531008756
aF0.3865818509240597
aF0.3218088250180884
aF0.6779549786126182
aF0.5711432976616688
asg13
(lp545
F678.8211139738836
aF181.13503963190914
aF15.186572180713732
aF161.7881563205552
aF13.156814793553796
asg15
(lp546
I1
aI2
aI3
aI4
asg17
(lp547
g19
ag20
asg21
F0.7
sg22
I01
sg23
g24
sg25
(lp548
g27
ag28
ag29
ag30
ag31
asg32
(lp549
g34
ag35
asbsg36
(lp550
F0.0
aF1.5
asg38
I58
sg39
g1
sg40
I51
sa(dp551
g5
F211.5700702570533
sg6
I0
sg7
I2
sg8
(iTFClasses
function
p552
(dp553
g11
(lp554
F11.610498184221271
aF0.42353053167393284
aF0.3370393251525554
aF0.7685561136643315
aF0.662407868143088
asg13
(lp555
F686.7246969801104
aF188.51670026529854
aF16.014991559280656
aF167.59351086640373
aF13.13334392634269
asg15
(lp556
I1
aI2
aI3
aI4
asg17
(lp557
g19
ag20
asg21
F0.7
sg22
I01
sg23
g24
sg25
(lp558
g27
ag28
ag29
ag30
ag31
asg32
(lp559
g34
ag35
asbsg36
(lp560
F0.0
aF1.5
asg38
I58
sg39
g1
sg40
I52
sa(dp561
g5
F220.62512425820213
sg6
I0
sg7
I2
sg8
(iTFClasses
function
p562
(dp563
g11
(lp564
F11.728424246155855
aF0.4171378399749983
aF0.34817213312388073
aF0.7308072857757963
aF0.5976399402872197
asg13
(lp565
F684.7757622452217
aF196.2667443963263
aF15.897040309431066
aF176.10815443367744
aF15.508736639902821
asg15
(lp566
I1
aI2
aI3
aI4
asg17
(lp567
g19
ag20
asg21
F0.7
sg22
I01
sg23
g24
sg25
(lp568
g27
ag28
ag29
ag30
ag31
asg32
(lp569
g34
ag35
asbsg36
(lp570
F0.0
aF1.5
asg38
I58
sg39
g1
sg40
I53
sa(dp571
g5
F231.24462865203762
sg6
I0
sg7
I2
sg8
(iTFClasses
function
p572
(dp573
g11
(lp574
F11.797769246084455
aF0.4151233939349481
aF0.34011076081824676
aF0.755471950058535
aF0.6172448007604743
asg13
(lp575
F708.8499004093209
aF206.24712639421628
aF16.57702359778579
aF182.83401092240547
aF14.84080782363173
asg15
(lp576
I1
aI2
aI3
aI4
asg17
(lp577
g19
ag20
asg21
F0.7
sg22
I01
sg23
g24
sg25
(lp578
g27
ag28
ag29
ag30
ag31
asg32
(lp579
g34
ag35
asbsg36
(lp580
F0.0
aF1.5
asg38
I58
sg39
g1
sg40
I54
sa(dp581
g5
F244.32561977553453
sg6
I0
sg7
I2
sg8
(iTFClasses
function
p582
(dp583
g11
(lp584
F12.41316652741393
aF0.4341778934153808
aF0.37227345746465623
aF0.782042941179796
aF0.6457887834521738
asg13
(lp585
F727.9239763513905
aF217.62316087139743
aF16.924796519136255
aF194.44986493430605
aF16.72459342585808
asg15
(lp586
I1
aI2
aI3
aI4
asg17
(lp587
g19
ag20
asg21
F0.7
sg22
I01
sg23
g24
sg25
(lp588
g27
ag28
ag29
ag30
ag31
asg32
(lp589
g34
ag35
asbsg36
(lp590
F0.0
aF1.5
asg38
I58
sg39
g1
sg40
I55
sa(dp591
g5
F261.03748123941546
sg6
I0
sg7
I2
sg8
(iTFClasses
function
p592
(dp593
g11
(lp594
F12.197093536515522
aF0.4662238294831269
aF0.3763396082667736
aF0.8668430446298601
aF0.7133073667254237
asg13
(lp595
F734.0770465811053
aF233.26894222869464
aF18.403621009557725
aF206.38221197140894
aF16.188077085476536
asg15
(lp596
I1
aI2
aI3
aI4
asg17
(lp597
g19
ag20
asg21
F0.7
sg22
I01
sg23
g24
sg25
(lp598
g27
ag28
ag29
ag30
ag31
asg32
(lp599
g34
ag35
asbsg36
(lp600
F0.0
aF1.5
asg38
I58
sg39
g1
sg40
I56
sa(dp601
g5
F284.4492649319707
sg6
I0
sg7
I2
sg8
(iTFClasses
function
p602
(dp603
g11
(lp604
F12.326008713799041
aF0.5017340448896874
aF0.4398521258095478
aF0.9169787755240577
aF0.7455470593503168
asg13
(lp605
F732.7328095119647
aF253.50915207668757
aF20.26806509446566
aF226.61073894831074
aF19.534816575224045
asg15
(lp606
I1
aI2
aI3
aI4
asg17
(lp607
g19
ag20
asg21
F0.7
sg22
I01
sg23
g24
sg25
(lp608
g27
ag28
ag29
ag30
ag31
asg32
(lp609
g34
ag35
asbsg36
(lp610
F0.0
aF1.5
asg38
I58
sg39
g1
sg40
I57
saa(lp611
(dp612
g5
F40.72948560966679
sg6
I1
sg7
I2
sg8
(iTFClasses
function
p613
(dp614
g11
(lp615
F6.8983791445708045
aF0.7992897124099443
aF0.4725745044866225
aF2.8510273430800703
aF1.008729416922483
asg13
(lp616
F146.67148766993054
aF31.43832047255235
aF6.002725915759455
aF5.392490898259439e-07
aF17.474332064743912
asg15
(lp617
I1
aI2
aI3
aI4
asg17
(lp618
g19
ag20
asg21
F0.7
sg22
I01
sg23
g24
sg25
(lp619
g27
ag28
ag29
ag30
ag31
asg32
(lp620
g34
ag35
asbsg36
(lp621
F1.5
aF2.5
asg38
I58
sg39
g1
sg40
I0
sa(dp622
g5
F47.647379868228406
sg6
I1
sg7
I2
sg8
(iTFClasses
function
p623
(dp624
g11
(lp625
F4.071776628821971
aF0.3674780790024492
aF0.29347357728859436
aF6.824464967115251
aF1.2264120819289186
asg13
(lp626
F113.6681605345808
aF37.02644032635705
aF6.378157857195976
aF3.5800584718970185e-07
aF18.544483495423037
asg15
(lp627
I1
aI2
aI3
aI4
asg17
(lp628
g19
ag20
asg21
F0.7
sg22
I01
sg23
g24
sg25
(lp629
g27
ag28
ag29
ag30
ag31
asg32
(lp630
g34
ag35
asbsg36
(lp631
F1.5
aF2.5
asg38
I58
sg39
g1
sg40
I1
sa(dp632
g5
F51.559766447368425
sg6
I1
sg7
I2
sg8
(iTFClasses
function
p633
(dp634
g11
(lp635
F3.8987896927230747
aF0.30704004705339827
aF0.2863276844021212
aF6.374251758824556
aF1.229970069568985
asg13
(lp636
F99.93271556278111
aF40.561049360758105
aF6.676797800824863
aF2.2784840680856178e-07
aF20.97706827300494
asg15
(lp637
I1
aI2
aI3
aI4
asg17
(lp638
g19
ag20
asg21
F0.7
sg22
I01
sg23
g24
sg25
(lp639
g27
ag28
ag29
ag30
ag31
asg32
(lp640
g34
ag35
asbsg36
(lp641
F1.5
aF2.5
asg38
I58
sg39
g1
sg40
I2
sa(dp642
g5
F54.64038026412326
sg6
I1
sg7
I2
sg8
(iTFClasses
function
p643
(dp644
g11
(lp645
F6.533782080092526
aF0.3646529869890678
aF0.395027886585686
aF0.7436200713413221
aF1.4568510665693424
asg13
(lp646
F97.78530876728776
aF40.4612797250592
aF6.075405897268404
aF49.35682556316456
aF2.4854229785375992e-08
asg15
(lp647
I1
aI2
aI3
aI4
asg17
(lp648
g19
ag20
asg21
F0.7
sg22
I01
sg23
g24
sg25
(lp649
g27
ag28
ag29
ag30
ag31
asg32
(lp650
g34
ag35
asbsg36
(lp651
F1.5
aF2.5
asg38
I58
sg39
g1
sg40
I3
sa(dp652
g5
F57.38452894736842
sg6
I1
sg7
I2
sg8
(iTFClasses
function
p653
(dp654
g11
(lp655
F2.5367482185227646
aF4.398571042155517
aF0.8517938161729526
aF10.373682113232697
aF43.86056167175206
asg13
(lp656
F73.3855635254833
aF45.0399648014872
aF8.255554744904137
aF45.10460950430273
aF9.107492537907547e-09
asg15
(lp657
I1
aI2
aI3
aI4
asg17
(lp658
g19
ag20
asg21
F0.7
sg22
I01
sg23
g24
sg25
(lp659
g27
ag28
ag29
ag30
ag31
asg32
(lp660
g34
ag35
asbsg36
(lp661
F1.5
aF2.5
asg38
I58
sg39
g1
sg40
I4
sa(dp662
g5
F59.92572514662757
sg6
I1
sg7
I2
sg8
(iTFClasses
function
p663
(dp664
g11
(lp665
F3.139021170462588
aF0.6185816032314726
aF0.4363148070704592
aF1.4493148288625122
aF1.2697846995886608
asg13
(lp666
F81.11385636498862
aF46.956473476772565
aF6.916702166986366
aF45.555823996944355
aF4.40362562398644
asg15
(lp667
I1
aI2
aI3
aI4
asg17
(lp668
g19
ag20
asg21
F0.7
sg22
I01
sg23
g24
sg25
(lp669
g27
ag28
ag29
ag30
ag31
asg32
(lp670
g34
ag35
asbsg36
(lp671
F1.5
aF2.5
asg38
I58
sg39
g1
sg40
I5
sa(dp672
g5
F62.362810948905114
sg6
I1
sg7
I2
sg8
(iTFClasses
function
p673
(dp674
g11
(lp675
F2.9528970501838123
aF0.775632773313994
aF0.5503802310024568
aF1.7041361141625373
aF1.545135274318099
asg13
(lp676
F75.09625039258053
aF48.93592380334033
aF7.81751072785275
aF48.08758518416345
aF4.107989354427133
asg15
(lp677
I1
aI2
aI3
aI4
asg17
(lp678
g19
ag20
asg21
F0.7
sg22
I01
sg23
g24
sg25
(lp679
g27
ag28
ag29
ag30
ag31
asg32
(lp680
g34
ag35
asbsg36
(lp681
F1.5
aF2.5
asg38
I58
sg39
g1
sg40
I6
sa(dp682
g5
F64.73060433027524
sg6
I1
sg7
I2
sg8
(iTFClasses
function
p683
(dp684
g11
(lp685
F4.595808229357821
aF1.1339246099646978
aF0.3544431639633254
aF2.551830343584413
aF1.402844767300182
asg13
(lp686
F78.92866514345539
aF49.809367224252775
aF8.276513955978615
aF55.35297589752408
aF1.5913094589375953
asg15
(lp687
I1
aI2
aI3
aI4
asg17
(lp688
g19
ag20
asg21
F0.7
sg22
I01
sg23
g24
sg25
(lp689
g27
ag28
ag29
ag30
ag31
asg32
(lp690
g34
ag35
asbsg36
(lp691
F1.5
aF2.5
asg38
I58
sg39
g1
sg40
I7
sa(dp692
g5
F66.97554257425742
sg6
I1
sg7
I2
sg8
(iTFClasses
function
p693
(dp694
g11
(lp695
F3.0219659018815586
aF0.6594292930753873
aF0.5127006782102432
aF1.380111611640089
aF1.283981567746395
asg13
(lp696
F75.36758779137811
aF52.552270342840046
aF8.042975008420106
aF51.24304585596961
aF5.0595387408473025
asg15
(lp697
I1
aI2
aI3
aI4
asg17
(lp698
g19
ag20
asg21
F0.7
sg22
I01
sg23
g24
sg25
(lp699
g27
ag28
ag29
ag30
ag31
asg32
(lp700
g34
ag35
asbsg36
(lp701
F1.5
aF2.5
asg38
I58
sg39
g1
sg40
I8
sa(dp702
g5
F69.2417149761992
sg6
I1
sg7
I2
sg8
(iTFClasses
function
p703
(dp704
g11
(lp705
F3.750450733122031
aF0.8374020090941556
aF0.4772838535104791
aF1.7647044600518917
aF1.8282568962222356
asg13
(lp706
F82.07260426559374
aF57.536146956086
aF7.55670084402571
aF50.760745029337365
aF4.6896082423267815
asg15
(lp707
I1
aI2
aI3
aI4
asg17
(lp708
g19
ag20
asg21
F0.7
sg22
I01
sg23
g24
sg25
(lp709
g27
ag28
ag29
ag30
ag31
asg32
(lp710
g34
ag35
asbsg36
(lp711
F1.5
aF2.5
asg38
I58
sg39
g1
sg40
I9
sa(dp712
g5
F71.32007459736457
sg6
I1
sg7
I2
sg8
(iTFClasses
function
p713
(dp714
g11
(lp715
F3.105234026412357
aF1.0991770490004775
aF0.7229768028413348
aF2.3114010787379513
aF2.0326764515542495
asg13
(lp716
F76.18670940740026
aF57.828259355386265
aF9.158556556930098
aF54.606905196993964
aF2.830537159288715
asg15
(lp717
I1
aI2
aI3
aI4
asg17
(lp718
g19
ag20
asg21
F0.7
sg22
I01
sg23
g24
sg25
(lp719
g27
ag28
ag29
ag30
ag31
asg32
(lp720
g34
ag35
asbsg36
(lp721
F1.5
aF2.5
asg38
I58
sg39
g1
sg40
I10
sa(dp722
g5
F73.37565137412972
sg6
I1
sg7
I2
sg8
(iTFClasses
function
p723
(dp724
g11
(lp725
F3.3538512848103523
aF0.6938773038265857
aF0.48262176649532806
aF1.359115978309788
aF1.3559433106616336
asg13
(lp726
F80.63488856115389
aF60.73074284361657
aF8.251663929463415
aF54.236856812525104
aF5.764426186576577
asg15
(lp727
I1
aI2
aI3
aI4
asg17
(lp728
g19
ag20
asg21
F0.7
sg22
I01
sg23
g24
sg25
(lp729
g27
ag28
ag29
ag30
ag31
asg32
(lp730
g34
ag35
asbsg36
(lp731
F1.5
aF2.5
asg38
I58
sg39
g1
sg40
I11
sa(dp732
g5
F75.40837854265837
sg6
I1
sg7
I2
sg8
(iTFClasses
function
p733
(dp734
g11
(lp735
F3.1269300815053716
aF0.7487420320316218
aF0.577597826224574
aF1.3593478546601858
aF1.2572778118392636
asg13
(lp736
F76.90306150623782
aF61.59939275913617
aF9.218379284926858
aF58.889542561387564
aF4.403240259082786
asg15
(lp737
I1
aI2
aI3
aI4
asg17
(lp738
g19
ag20
asg21
F0.7
sg22
I01
sg23
g24
sg25
(lp739
g27
ag28
ag29
ag30
ag31
asg32
(lp740
g34
ag35
asbsg36
(lp741
F1.5
aF2.5
asg38
I58
sg39
g1
sg40
I12
sa(dp742
g5
F77.49213592090808
sg6
I1
sg7
I2
sg8
(iTFClasses
function
p743
(dp744
g11
(lp745
F3.641998680206618
aF0.5580189679938456
aF0.4918938139690794
aF1.0472152920029671
aF1.0104099126834187
asg13
(lp746
F83.64932790587845
aF65.34006690743377
aF7.895916799500413
aF58.20156022038381
aF6.53834059389391
asg15
(lp747
I1
aI2
aI3
aI4
asg17
(lp748
g19
ag20
asg21
F0.7
sg22
I01
sg23
g24
sg25
(lp749
g27
ag28
ag29
ag30
ag31
asg32
(lp750
g34
ag35
asbsg36
(lp751
F1.5
aF2.5
asg38
I58
sg39
g1
sg40
I13
sa(dp752
g5
F79.58918217677137
sg6
I1
sg7
I2
sg8
(iTFClasses
function
p753
(dp754
g11
(lp755
F3.6011806576053575
aF0.5486165983259497
aF0.40897374088949556
aF1.023243442154822
aF0.9752333091098131
asg13
(lp756
F87.78282188980161
aF67.28825230548819
aF7.720243698272844
aF58.76685507896939
aF6.704227770657933
asg15
(lp757
I1
aI2
aI3
aI4
asg17
(lp758
g19
ag20
asg21
F0.7
sg22
I01
sg23
g24
sg25
(lp759
g27
ag28
ag29
ag30
ag31
asg32
(lp760
g34
ag35
asbsg36
(lp761
F1.5
aF2.5
asg38
I58
sg39
g1
sg40
I14
sa(dp762
g5
F81.59505742574257
sg6
I1
sg7
I2
sg8
(iTFClasses
function
p763
(dp764
g11
(lp765
F3.5935498410032602
aF0.54550760916716
aF0.40936251297146775
aF0.8999099647659108
aF0.7871309698716522
asg13
(lp766
F91.24082353256699
aF67.0393217847327
aF8.045166554821792
aF63.23355403386854
aF6.632837577746242
asg15
(lp767
I1
aI2
aI3
aI4
asg17
(lp768
g19
ag20
asg21
F0.7
sg22
I01
sg23
g24
sg25
(lp769
g27
ag28
ag29
ag30
ag31
asg32
(lp770
g34
ag35
asbsg36
(lp771
F1.5
aF2.5
asg38
I58
sg39
g1
sg40
I15
sa(dp772
g5
F83.6210643956044
sg6
I1
sg7
I2
sg8
(iTFClasses
function
p773
(dp774
g11
(lp775
F3.2687518167196092
aF0.6823657430670735
aF0.5181428302724607
aF1.2353249114205909
aF1.052902449527493
asg13
(lp776
F81.0029574810255
aF69.40256315540961
aF9.23004980199127
aF64.95348106302768
aF5.934001455455085
asg15
(lp777
I1
aI2
aI3
aI4
asg17
(lp778
g19
ag20
asg21
F0.7
sg22
I01
sg23
g24
sg25
(lp779
g27
ag28
ag29
ag30
ag31
asg32
(lp780
g34
ag35
asbsg36
(lp781
F1.5
aF2.5
asg38
I58
sg39
g1
sg40
I16
sa(dp782
g5
F85.6402702524698
sg6
I1
sg7
I2
sg8
(iTFClasses
function
p783
(dp784
g11
(lp785
F3.5689256178364483
aF0.596431090157111
aF0.45229743745495155
aF0.9853533993947039
aF0.8723082510498914
asg13
(lp786
F86.63119324917831
aF71.76896171733715
aF8.41954078250473
aF66.93889679243792
aF7.223363492396384
asg15
(lp787
I1
aI2
aI3
aI4
asg17
(lp788
g19
ag20
asg21
F0.7
sg22
I01
sg23
g24
sg25
(lp789
g27
ag28
ag29
ag30
ag31
asg32
(lp790
g34
ag35
asbsg36
(lp791
F1.5
aF2.5
asg38
I58
sg39
g1
sg40
I17
sa(dp792
g5
F87.6692040307805
sg6
I1
sg7
I2
sg8
(iTFClasses
function
p793
(dp794
g11
(lp795
F3.842091271835406
aF0.8938772818821121
aF0.4864200534924201
aF1.9242853295214353
aF1.5393385017250516
asg13
(lp796
F90.21080176845514
aF74.10170255540905
aF9.232491436578227
aF65.8655757215938
aF5.090935495399518
asg15
(lp797
I1
aI2
aI3
aI4
asg17
(lp798
g19
ag20
asg21
F0.7
sg22
I01
sg23
g24
sg25
(lp799
g27
ag28
ag29
ag30
ag31
asg32
(lp800
g34
ag35
asbsg36
(lp801
F1.5
aF2.5
asg38
I58
sg39
g1
sg40
I18
sa(dp802
g5
F89.75740497257769
sg6
I1
sg7
I2
sg8
(iTFClasses
function
p803
(dp804
g11
(lp805
F3.6333565575399143
aF0.6993389011378213
aF0.6097045807740846
aF1.2508413591565386
aF1.116556404187563
asg13
(lp806
F82.26961798439434
aF75.64765673537066
aF9.547090720285144
aF70.27010154595492
aF6.666748069085404
asg15
(lp807
I1
aI2
aI3
aI4
asg17
(lp808
g19
ag20
asg21
F0.7
sg22
I01
sg23
g24
sg25
(lp809
g27
ag28
ag29
ag30
ag31
asg32
(lp810
g34
ag35
asbsg36
(lp811
F1.5
aF2.5
asg38
I58
sg39
g1
sg40
I19
sa(dp812
g5
F91.84381211009173
sg6
I1
sg7
I2
sg8
(iTFClasses
function
p813
(dp814
g11
(lp815
F3.9315446233303013
aF0.7449354200674847
aF0.46614296807517874
aF1.557420398646478
aF1.36431406719989
asg13
(lp816
F91.9297686264302
aF78.3701482393273
aF8.895893619970119
aF68.90764721825427
aF5.569759511929506
asg15
(lp817
I1
aI2
aI3
aI4
asg17
(lp818
g19
ag20
asg21
F0.7
sg22
I01
sg23
g24
sg25
(lp819
g27
ag28
ag29
ag30
ag31
asg32
(lp820
g34
ag35
asbsg36
(lp821
F1.5
aF2.5
asg38
I58
sg39
g1
sg40
I20
sa(dp822
g5
F93.90361186813186
sg6
I1
sg7
I2
sg8
(iTFClasses
function
p823
(dp824
g11
(lp825
F3.7996894012354474
aF0.9179080420286851
aF0.5354031709940976
aF1.8864131302035503
aF1.4948118187166903
asg13
(lp826
F91.9168181148298
aF79.98114037778359
aF9.507240078510225
aF73.61670964245259
aF4.742828006609412
asg15
(lp827
I1
aI2
aI3
aI4
asg17
(lp828
g19
ag20
asg21
F0.7
sg22
I01
sg23
g24
sg25
(lp829
g27
ag28
ag29
ag30
ag31
asg32
(lp830
g34
ag35
asbsg36
(lp831
F1.5
aF2.5
asg38
I58
sg39
g1
sg40
I21
sa(dp832
g5
F96.0586677631579
sg6
I1
sg7
I2
sg8
(iTFClasses
function
p833
(dp834
g11
(lp835
F6.810550873332782
aF0.8635882600782097
aF0.4195694451187837
aF2.4683492158606413
aF1.6546284768991226
asg13
(lp836
F100.51116189857683
aF83.17137320905599
aF9.541018702266978
aF69.75657777963862
aF3.5208129581723036
asg15
(lp837
I1
aI2
aI3
aI4
asg17
(lp838
g19
ag20
asg21
F0.7
sg22
I01
sg23
g24
sg25
(lp839
g27
ag28
ag29
ag30
ag31
asg32
(lp840
g34
ag35
asbsg36
(lp841
F1.5
aF2.5
asg38
I58
sg39
g1
sg40
I22
sa(dp842
g5
F98.19804197802198
sg6
I1
sg7
I2
sg8
(iTFClasses
function
p843
(dp844
g11
(lp845
F3.5280542316532033
aF0.6428600256874262
aF0.45595352024679947
aF1.0818242412793921
aF0.9295745488384077
asg13
(lp846
F90.4891776546866
aF82.69135401202288
aF9.268094475186729
aF78.23381342819047
aF6.946284430293992
asg15
(lp847
I1
aI2
aI3
aI4
asg17
(lp848
g19
ag20
asg21
F0.7
sg22
I01
sg23
g24
sg25
(lp849
g27
ag28
ag29
ag30
ag31
asg32
(lp850
g34
ag35
asbsg36
(lp851
F1.5
aF2.5
asg38
I58
sg39
g1
sg40
I23
sa(dp852
g5
F100.3722226290736
sg6
I1
sg7
I2
sg8
(iTFClasses
function
p853
(dp854
g11
(lp855
F4.294764852809706
aF1.0644070815107298
aF0.5342736154978489
aF2.2592518868762568
aF1.7427691376715737
asg13
(lp856
F93.32983966840641
aF85.38624782318793
aF9.825561017480444
aF77.35371075955189
aF5.286309582117177
asg15
(lp857
I1
aI2
aI3
aI4
asg17
(lp858
g19
ag20
asg21
F0.7
sg22
I01
sg23
g24
sg25
(lp859
g27
ag28
ag29
ag30
ag31
asg32
(lp860
g34
ag35
asbsg36
(lp861
F1.5
aF2.5
asg38
I58
sg39
g1
sg40
I24
sa(dp862
g5
F102.58789068914956
sg6
I1
sg7
I2
sg8
(iTFClasses
function
p863
(dp864
g11
(lp865
F3.7350720076982027
aF0.9601932163065285
aF0.6036896618851202
aF1.9509209789139206
aF1.5709980169479887
asg13
(lp866
F90.53406130123047
aF86.66858921192878
aF10.34999519418145
aF80.58058038110461
aF5.987537773662455
asg15
(lp867
I1
aI2
aI3
aI4
asg17
(lp868
g19
ag20
asg21
F0.7
sg22
I01
sg23
g24
sg25
(lp869
g27
ag28
ag29
ag30
ag31
asg32
(lp870
g34
ag35
asbsg36
(lp871
F1.5
aF2.5
asg38
I58
sg39
g1
sg40
I25
sa(dp872
g5
F104.78755944464743
sg6
I1
sg7
I2
sg8
(iTFClasses
function
p873
(dp874
g11
(lp875
F4.083545765590088
aF0.7190788635207923
aF0.47792970070353924
aF1.3990348681832643
aF1.1750326863448346
asg13
(lp876
F96.63494024589325
aF90.12407319290827
aF9.205910497157799
aF81.04198003066409
aF6.439223638904701
asg15
(lp877
I1
aI2
aI3
aI4
asg17
(lp878
g19
ag20
asg21
F0.7
sg22
I01
sg23
g24
sg25
(lp879
g27
ag28
ag29
ag30
ag31
asg32
(lp880
g34
ag35
asbsg36
(lp881
F1.5
aF2.5
asg38
I58
sg39
g1
sg40
I26
sa(dp882
g5
F107.05856278899083
sg6
I1
sg7
I2
sg8
(iTFClasses
function
p883
(dp884
g11
(lp885
F4.063477720873685
aF0.6213700882889981
aF0.4849902288365797
aF1.10634927336789
aF0.9613274761672286
asg13
(lp886
F101.12680467556818
aF90.85584423509452
aF9.255677077470326
aF82.65857031517687
aF7.41704008763755
asg15
(lp887
I1
aI2
aI3
aI4
asg17
(lp888
g19
ag20
asg21
F0.7
sg22
I01
sg23
g24
sg25
(lp889
g27
ag28
ag29
ag30
ag31
asg32
(lp890
g34
ag35
asbsg36
(lp891
F1.5
aF2.5
asg38
I58
sg39
g1
sg40
I27
sa(dp892
g5
F109.36226166239473
sg6
I1
sg7
I2
sg8
(iTFClasses
function
p893
(dp894
g11
(lp895
F4.002364947325952
aF0.6891814609604268
aF0.4860392006821872
aF1.1499177654192323
aF0.971941001539689
asg13
(lp896
F97.38936724833177
aF93.35055210058496
aF9.459846769567903
aF86.02843846770713
aF8.144708215463092
asg15
(lp897
I1
aI2
aI3
aI4
asg17
(lp898
g19
ag20
asg21
F0.7
sg22
I01
sg23
g24
sg25
(lp899
g27
ag28
ag29
ag30
ag31
asg32
(lp900
g34
ag35
asbsg36
(lp901
F1.5
aF2.5
asg38
I58
sg39
g1
sg40
I28
sa(dp902
g5
F111.7181723178323
sg6
I1
sg7
I2
sg8
(iTFClasses
function
p903
(dp904
g11
(lp905
F4.112565640275493
aF0.7757871849881042
aF0.6106515700289856
aF1.5045374359416428
aF1.3497430067577203
asg13
(lp906
F95.26270326602027
aF95.87887818386453
aF10.188630478752735
aF86.96239438683139
aF7.987140186551223
asg15
(lp907
I1
aI2
aI3
aI4
asg17
(lp908
g19
ag20
asg21
F0.7
sg22
I01
sg23
g24
sg25
(lp909
g27
ag28
ag29
ag30
ag31
asg32
(lp910
g34
ag35
asbsg36
(lp911
F1.5
aF2.5
asg38
I58
sg39
g1
sg40
I29
sa(dp912
g5
F114.072400292933
sg6
I1
sg7
I2
sg8
(iTFClasses
function
p913
(dp914
g11
(lp915
F6.577619251295244
aF0.7720539529949022
aF0.4372444896110217
aF2.2706855692121692
aF1.7036146003818753
asg13
(lp916
F109.30427098200117
aF99.8232034128137
aF9.531305122019496
aF84.82042961822889
aF4.668019440274729
asg15
(lp917
I1
aI2
aI3
aI4
asg17
(lp918
g19
ag20
asg21
F0.7
sg22
I01
sg23
g24
sg25
(lp919
g27
ag28
ag29
ag30
ag31
asg32
(lp920
g34
ag35
asbsg36
(lp921
F1.5
aF2.5
asg38
I58
sg39
g1
sg40
I30
sa(dp922
g5
F116.4641929696082
sg6
I1
sg7
I2
sg8
(iTFClasses
function
p923
(dp924
g11
(lp925
F7.072870100267042
aF1.3527446899975146
aF0.525474330482
aF3.600400764589345
aF2.5264592398946406
asg13
(lp926
F97.1479104268246
aF101.66194076162583
aF11.213999513531302
aF87.31785604552012
aF4.798139371543275
asg15
(lp927
I1
aI2
aI3
aI4
asg17
(lp928
g19
ag20
asg21
F0.7
sg22
I01
sg23
g24
sg25
(lp929
g27
ag28
ag29
ag30
ag31
asg32
(lp930
g34
ag35
asbsg36
(lp931
F1.5
aF2.5
asg38
I58
sg39
g1
sg40
I31
sa(dp932
g5
F118.98853238199781
sg6
I1
sg7
I2
sg8
(iTFClasses
function
p933
(dp934
g11
(lp935
F4.545010936018411
aF0.9271257663154842
aF0.5284340410135471
aF1.8801209513854005
aF1.6354107320615259
asg13
(lp936
F99.99328925923027
aF103.20791386204897
aF10.667888196438602
aF90.89078457845379
aF6.702340078504454
asg15
(lp937
I1
aI2
aI3
aI4
asg17
(lp938
g19
ag20
asg21
F0.7
sg22
I01
sg23
g24
sg25
(lp939
g27
ag28
ag29
ag30
ag31
asg32
(lp940
g34
ag35
asbsg36
(lp941
F1.5
aF2.5
asg38
I58
sg39
g1
sg40
I32
sa(dp942
g5
F121.5689599706745
sg6
I1
sg7
I2
sg8
(iTFClasses
function
p943
(dp944
g11
(lp945
F4.313793572533743
aF0.7525857109718075
aF0.539973834628837
aF1.4363116906272992
aF1.2074901534999132
asg13
(lp946
F105.92087012776324
aF105.4498878993696
aF10.17193487123913
aF96.00103941182093
aF8.400696896560312
asg15
(lp947
I1
aI2
aI3
aI4
asg17
(lp948
g19
ag20
asg21
F0.7
sg22
I01
sg23
g24
sg25
(lp949
g27
ag28
ag29
ag30
ag31
asg32
(lp950
g34
ag35
asbsg36
(lp951
F1.5
aF2.5
asg38
I58
sg39
g1
sg40
I33
sa(dp952
g5
F124.20212833089312
sg6
I1
sg7
I2
sg8
(iTFClasses
function
p953
(dp954
g11
(lp955
F3.9017878721624473
aF0.8297024727790259
aF0.5649530891071457
aF1.446270837265729
aF1.2783555214727067
asg13
(lp956
F97.21797978147058
aF106.0593994103004
aF11.238412493277616
aF97.78156952128103
aF6.703243240599344
asg15
(lp957
I1
aI2
aI3
aI4
asg17
(lp958
g19
ag20
asg21
F0.7
sg22
I01
sg23
g24
sg25
(lp959
g27
ag28
ag29
ag30
ag31
asg32
(lp960
g34
ag35
asbsg36
(lp961
F1.5
aF2.5
asg38
I58
sg39
g1
sg40
I34
sa(dp962
g5
F126.8550347125595
sg6
I1
sg7
I2
sg8
(iTFClasses
function
p963
(dp964
g11
(lp965
F4.114565834727192
aF0.8461383483831497
aF0.6122569308344987
aF1.5471903411641819
aF1.3289355881251348
asg13
(lp966
F98.89720352699254
aF108.47389709099231
aF11.098223855143917
aF100.54934855622977
aF8.135628725561617
asg15
(lp967
I1
aI2
aI3
aI4
asg17
(lp968
g19
ag20
asg21
F0.7
sg22
I01
sg23
g24
sg25
(lp969
g27
ag28
ag29
ag30
ag31
asg32
(lp970
g34
ag35
asbsg36
(lp971
F1.5
aF2.5
asg38
I58
sg39
g1
sg40
I35
sa(dp972
g5
F129.66363931185947
sg6
I1
sg7
I2
sg8
(iTFClasses
function
p973
(dp974
g11
(lp975
F4.081163353370812
aF0.7754094970249241
aF0.6295471808616675
aF1.3382686017344128
aF1.1078864842380964
asg13
(lp976
F98.61967502003368
aF110.59914142247096
aF11.431249659164312
aF102.57340231855905
aF9.432312703753443
asg15
(lp977
I1
aI2
aI3
aI4
asg17
(lp978
g19
ag20
asg21
F0.7
sg22
I01
sg23
g24
sg25
(lp979
g27
ag28
ag29
ag30
ag31
asg32
(lp980
g34
ag35
asbsg36
(lp981
F1.5
aF2.5
asg38
I58
sg39
g1
sg40
I36
sa(dp982
g5
F132.58276945054945
sg6
I1
sg7
I2
sg8
(iTFClasses
function
p983
(dp984
g11
(lp985
F5.189977766572757
aF0.6457640855400157
aF0.624979785878832
aF1.0857655797216808
aF0.9660048578036271
asg13
(lp986
F112.38384967715298
aF114.6278027752189
aF9.607543162434284
aF106.46699110439617
aF9.512332192080919
asg15
(lp987
I1
aI2
aI3
aI4
asg17
(lp988
g19
ag20
asg21
F0.7
sg22
I01
sg23
g24
sg25
(lp989
g27
ag28
ag29
ag30
ag31
asg32
(lp990
g34
ag35
asbsg36
(lp991
F1.5
aF2.5
asg38
I58
sg39
g1
sg40
I37
sa(dp992
g5
F135.5032404979861
sg6
I1
sg7
I2
sg8
(iTFClasses
function
p993
(dp994
g11
(lp995
F4.583359713969189
aF0.8307480921416754
aF0.5950345885107344
aF1.6837410208858117
aF1.4160416780230616
asg13
(lp996
F106.75871015101657
aF117.46500103890078
aF11.04122618949599
aF104.0795919669013
aF8.744366266401627
asg15
(lp997
I1
aI2
aI3
aI4
asg17
(lp998
g19
ag20
asg21
F0.7
sg22
I01
sg23
g24
sg25
(lp999
g27
ag28
ag29
ag30
ag31
asg32
(lp1000
g34
ag35
asbsg36
(lp1001
F1.5
aF2.5
asg38
I58
sg39
g1
sg40
I38
sa(dp1002
g5
F138.5810854945055
sg6
I1
sg7
I2
sg8
(iTFClasses
function
p1003
(dp1004
g11
(lp1005
F4.867808821684149
aF0.6947682947815466
aF0.6328952434096484
aF1.23198224970006
aF1.0975047756505711
asg13
(lp1006
F111.3453424184108
aF120.14537913586454
aF10.543962695586995
aF109.0683396616332
aF9.78969919018613
asg15
(lp1007
I1
aI2
aI3
aI4
asg17
(lp1008
g19
ag20
asg21
F0.7
sg22
I01
sg23
g24
sg25
(lp1009
g27
ag28
ag29
ag30
ag31
asg32
(lp1010
g34
ag35
asbsg36
(lp1011
F1.5
aF2.5
asg38
I58
sg39
g1
sg40
I39
sa(dp1012
g5
F141.7767181119649
sg6
I1
sg7
I2
sg8
(iTFClasses
function
p1013
(dp1014
g11
(lp1015
F4.227306816946106
aF0.8232186262227543
aF0.6067795854345919
aF1.5421420168388877
aF1.2920304731531278
asg13
(lp1016
F106.21886956712324
aF122.51698841482161
aF11.848622578754519
aF111.57579626868352
aF9.127404487298762
asg15
(lp1017
I1
aI2
aI3
aI4
asg17
(lp1018
g19
ag20
asg21
F0.7
sg22
I01
sg23
g24
sg25
(lp1019
g27
ag28
ag29
ag30
ag31
asg32
(lp1020
g34
ag35
asbsg36
(lp1021
F1.5
aF2.5
asg38
I58
sg39
g1
sg40
I40
sa(dp1022
g5
F144.9583331868132
sg6
I1
sg7
I2
sg8
(iTFClasses
function
p1023
(dp1024
g11
(lp1025
F4.712070866361207
aF0.7941600820983155
aF0.6269357232992485
aF1.6380561442249615
aF1.3241671230140861
asg13
(lp1026
F113.34063942122921
aF126.10550955573507
aF11.069207543449977
aF114.43050834583357
aF9.296056470712522
asg15
(lp1027
I1
aI2
aI3
aI4
asg17
(lp1028
g19
ag20
asg21
F0.7
sg22
I01
sg23
g24
sg25
(lp1029
g27
ag28
ag29
ag30
ag31
asg32
(lp1030
g34
ag35
asbsg36
(lp1031
F1.5
aF2.5
asg38
I58
sg39
g1
sg40
I41
sa(dp1032
g5
F148.33252979890312
sg6
I1
sg7
I2
sg8
(iTFClasses
function
p1033
(dp1034
g11
(lp1035
F4.959126922540443
aF0.761442692647833
aF0.5131484627517455
aF1.4884688827612749
aF1.2608207588484799
asg13
(lp1036
F121.43622920157055
aF130.36912205973616
aF10.889166460365306
aF115.46147851955813
aF8.460126258398425
asg15
(lp1037
I1
aI2
aI3
aI4
asg17
(lp1038
g19
ag20
asg21
F0.7
sg22
I01
sg23
g24
sg25
(lp1039
g27
ag28
ag29
ag30
ag31
asg32
(lp1040
g34
ag35
asbsg36
(lp1041
F1.5
aF2.5
asg38
I58
sg39
g1
sg40
I42
sa(dp1042
g5
F151.91900909757885
sg6
I1
sg7
I2
sg8
(iTFClasses
function
p1043
(dp1044
g11
(lp1045
F4.972076364394447
aF0.7070741929958757
aF0.6104376048972622
aF1.2780148183263478
aF1.1116072268997357
asg13
(lp1046
F119.22959141313952
aF131.78588666646672
aF10.954946605627235
aF120.42788305261499
aF9.977710684550779
asg15
(lp1047
I1
aI2
aI3
aI4
asg17
(lp1048
g19
ag20
asg21
F0.7
sg22
I01
sg23
g24
sg25
(lp1049
g27
ag28
ag29
ag30
ag31
asg32
(lp1050
g34
ag35
asbsg36
(lp1051
F1.5
aF2.5
asg38
I58
sg39
g1
sg40
I43
sa(dp1052
g5
F155.5962054924936
sg6
I1
sg7
I2
sg8
(iTFClasses
function
p1053
(dp1054
g11
(lp1055
F5.142141211219059
aF0.8491020599978327
aF0.7078868231147339
aF1.6998103927677306
aF1.394374146881705
asg13
(lp1056
F113.6565169583418
aF135.85360675578772
aF11.29460745800548
aF123.96048426358719
aF10.239609427926123
asg15
(lp1057
I1
aI2
aI3
aI4
asg17
(lp1058
g19
ag20
asg21
F0.7
sg22
I01
sg23
g24
sg25
(lp1059
g27
ag28
ag29
ag30
ag31
asg32
(lp1060
g34
ag35
asbsg36
(lp1061
F1.5
aF2.5
asg38
I58
sg39
g1
sg40
I44
sa(dp1062
g5
F159.46032764555108
sg6
I1
sg7
I2
sg8
(iTFClasses
function
p1063
(dp1064
g11
(lp1065
F5.007089989435333
aF0.8022702666792867
aF0.6151140240871493
aF1.5101446125720912
aF1.2558340979632607
asg13
(lp1066
F120.90224590348392
aF138.45363011802814
aF11.250416194556024
aF127.76664606839272
aF9.675343660843993
asg15
(lp1067
I1
aI2
aI3
aI4
asg17
(lp1068
g19
ag20
asg21
F0.7
sg22
I01
sg23
g24
sg25
(lp1069
g27
ag28
ag29
ag30
ag31
asg32
(lp1070
g34
ag35
asbsg36
(lp1071
F1.5
aF2.5
asg38
I58
sg39
g1
sg40
I45
sa(dp1072
g5
F163.6886937385573
sg6
I1
sg7
I2
sg8
(iTFClasses
function
p1073
(dp1074
g11
(lp1075
F5.102787938257281
aF0.9241629443808677
aF0.6006211333330347
aF2.1469909442239867
aF1.781909479036503
asg13
(lp1076
F121.32293371066092
aF144.31501709003192
aF12.076905478730747
aF128.11845773303287
aF9.080782974037248
asg15
(lp1077
I1
aI2
aI3
aI4
asg17
(lp1078
g19
ag20
asg21
F0.7
sg22
I01
sg23
g24
sg25
(lp1079
g27
ag28
ag29
ag30
ag31
asg32
(lp1080
g34
ag35
asbsg36
(lp1081
F1.5
aF2.5
asg38
I58
sg39
g1
sg40
I46
sa(dp1082
g5
F168.18540724478595
sg6
I1
sg7
I2
sg8
(iTFClasses
function
p1083
(dp1084
g11
(lp1085
F4.939012827818544
aF0.8634265767868925
aF0.5635648582516533
aF1.5760466551195123
aF1.390268760425084
asg13
(lp1086
F119.92514151404936
aF147.7276852048658
aF12.044801896013979
aF133.45751857765754
aF8.43406167935601
asg15
(lp1087
I1
aI2
aI3
aI4
asg17
(lp1088
g19
ag20
asg21
F0.7
sg22
I01
sg23
g24
sg25
(lp1089
g27
ag28
ag29
ag30
ag31
asg32
(lp1090
g34
ag35
asbsg36
(lp1091
F1.5
aF2.5
asg38
I58
sg39
g1
sg40
I47
sa(dp1092
g5
F173.0302846153846
sg6
I1
sg7
I2
sg8
(iTFClasses
function
p1093
(dp1094
g11
(lp1095
F5.095169100117246
aF0.8506489349761637
aF0.7314703613405804
aF1.521525767040501
aF1.3650934098141665
asg13
(lp1096
F115.15800239461122
aF151.0765133854851
aF12.400677202226152
aF135.5068173969449
aF12.109940327487912
asg15
(lp1097
I1
aI2
aI3
aI4
asg17
(lp1098
g19
ag20
asg21
F0.7
sg22
I01
sg23
g24
sg25
(lp1099
g27
ag28
ag29
ag30
ag31
asg32
(lp1100
g34
ag35
asbsg36
(lp1101
F1.5
aF2.5
asg38
I58
sg39
g1
sg40
I48
sa(dp1102
g5
F178.38346005126328
sg6
I1
sg7
I2
sg8
(iTFClasses
function
p1103
(dp1104
g11
(lp1105
F5.37683862615126
aF0.544648092732757
aF0.4132296878582853
aF68.88409227679821
aF93.11884366155965
asg13
(lp1106
F151.18445911258772
aF149.38566500118012
aF18.049947860786286
aF269.7496791470424
aF1.564453504375285
asg15
(lp1107
I1
aI2
aI3
aI4
asg17
(lp1108
g19
ag20
asg21
F0.7
sg22
I01
sg23
g24
sg25
(lp1109
g27
ag28
ag29
ag30
ag31
asg32
(lp1110
g34
ag35
asbsg36
(lp1111
F1.5
aF2.5
asg38
I58
sg39
g1
sg40
I49
sa(dp1112
g5
F184.1195386813187
sg6
I1
sg7
I2
sg8
(iTFClasses
function
p1113
(dp1114
g11
(lp1115
F4.649365666905954
aF0.9166468746797989
aF0.6931997050767524
aF1.6811792531896685
aF1.4514332944748913
asg13
(lp1116
F115.3221090218915
aF158.71621797275094
aF13.45861614944177
aF146.477170385083
aF12.629707608113883
asg15
(lp1117
I1
aI2
aI3
aI4
asg17
(lp1118
g19
ag20
asg21
F0.7
sg22
I01
sg23
g24
sg25
(lp1119
g27
ag28
ag29
ag30
ag31
asg32
(lp1120
g34
ag35
asbsg36
(lp1121
F1.5
aF2.5
asg38
I58
sg39
g1
sg40
I50
sa(dp1122
g5
F190.65523390699377
sg6
I1
sg7
I2
sg8
(iTFClasses
function
p1123
(dp1124
g11
(lp1125
F5.325958778355985
aF0.8706139238022814
aF0.8112783614342973
aF1.5838892609192357
aF1.3711966204657537
asg13
(lp1126
F118.88001345016005
aF166.24644740253214
aF12.9312739786136
aF151.63377501375408
aF14.162152035220865
asg15
(lp1127
I1
aI2
aI3
aI4
asg17
(lp1128
g19
ag20
asg21
F0.7
sg22
I01
sg23
g24
sg25
(lp1129
g27
ag28
ag29
ag30
ag31
asg32
(lp1130
g34
ag35
asbsg36
(lp1131
F1.5
aF2.5
asg38
I58
sg39
g1
sg40
I51
sa(dp1132
g5
F198.0180559824369
sg6
I1
sg7
I2
sg8
(iTFClasses
function
p1133
(dp1134
g11
(lp1135
F4.928922350317503
aF0.9638731137554544
aF0.6593954422642323
aF1.607684410315386
aF1.4623245956491004
asg13
(lp1136
F122.75467611037729
aF172.93982736136581
aF14.269527874873233
aF155.83411633188905
aF11.215227958591644
asg15
(lp1137
I1
aI2
aI3
aI4
asg17
(lp1138
g19
ag20
asg21
F0.7
sg22
I01
sg23
g24
sg25
(lp1139
g27
ag28
ag29
ag30
ag31
asg32
(lp1140
g34
ag35
asbsg36
(lp1141
F1.5
aF2.5
asg38
I58
sg39
g1
sg40
I52
sa(dp1142
g5
F206.6456211799194
sg6
I1
sg7
I2
sg8
(iTFClasses
function
p1143
(dp1144
g11
(lp1145
F4.881897050820771
aF1.0737238608229376
aF0.7750737956603295
aF2.0828897537549267
aF1.851130648388155
asg13
(lp1146
F116.12661167280618
aF181.04251805518356
aF15.343355475675224
aF160.79218527970718
aF12.419803066235136
asg15
(lp1147
I1
aI2
aI3
aI4
asg17
(lp1148
g19
ag20
asg21
F0.7
sg22
I01
sg23
g24
sg25
(lp1149
g27
ag28
ag29
ag30
ag31
asg32
(lp1150
g34
ag35
asbsg36
(lp1151
F1.5
aF2.5
asg38
I58
sg39
g1
sg40
I53
sa(dp1152
g5
F216.98383726207908
sg6
I1
sg7
I2
sg8
(iTFClasses
function
p1153
(dp1154
g11
(lp1155
F5.044511094717678
aF1.0969549802761804
aF0.7161893372102384
aF2.264538985951461
aF1.8083177067256822
asg13
(lp1156
F124.57498962404279
aF190.29084155960106
aF16.052301013211977
aF169.80814462365467
aF10.254464590250144
asg15
(lp1157
I1
aI2
aI3
aI4
asg17
(lp1158
g19
ag20
asg21
F0.7
sg22
I01
sg23
g24
sg25
(lp1159
g27
ag28
ag29
ag30
ag31
asg32
(lp1160
g34
ag35
asbsg36
(lp1161
F1.5
aF2.5
asg38
I58
sg39
g1
sg40
I54
sa(dp1162
g5
F229.89832153846154
sg6
I1
sg7
I2
sg8
(iTFClasses
function
p1163
(dp1164
g11
(lp1165
F5.056012936226569
aF0.9760496922349802
aF0.7469051444265471
aF2.0003833290866453
aF1.6458184809858283
asg13
(lp1166
F130.33079931103842
aF203.40261964581563
aF15.23576543297034
aF181.60736196396033
aF16.85066885919717
asg15
(lp1167
I1
aI2
aI3
aI4
asg17
(lp1168
g19
ag20
asg21
F0.7
sg22
I01
sg23
g24
sg25
(lp1169
g27
ag28
ag29
ag30
ag31
asg32
(lp1170
g34
ag35
asbsg36
(lp1171
F1.5
aF2.5
asg38
I58
sg39
g1
sg40
I55
sa(dp1172
g5
F247.86151900402783
sg6
I1
sg7
I2
sg8
(iTFClasses
function
p1173
(dp1174
g11
(lp1175
F4.88700518688062
aF1.775758699174176
aF0.9838574725087863
aF3.580499279394857
aF2.859733723390267
asg13
(lp1176
F114.16513097652819
aF215.43637059166144
aF21.45039041608021
aF194.2438097854492
aF12.130773096221127
asg15
(lp1177
I1
aI2
aI3
aI4
asg17
(lp1178
g19
ag20
asg21
F0.7
sg22
I01
sg23
g24
sg25
(lp1179
g27
ag28
ag29
ag30
ag31
asg32
(lp1180
g34
ag35
asbsg36
(lp1181
F1.5
aF2.5
asg38
I58
sg39
g1
sg40
I56
sa(dp1182
g5
F276.67773614060786
sg6
I1
sg7
I2
sg8
(iTFClasses
function
p1183
(dp1184
g11
(lp1185
F5.427434489886591
aF1.5643688632602846
aF1.1793972933760166
aF3.421254680481269
aF2.967956118637483
asg13
(lp1186
F127.97967708440942
aF244.07636436019354
aF21.489880987825227
aF217.57282173279947
aF15.677641700061361
asg15
(lp1187
I1
aI2
aI3
aI4
asg17
(lp1188
g19
ag20
asg21
F0.7
sg22
I01
sg23
g24
sg25
(lp1189
g27
ag28
ag29
ag30
ag31
asg32
(lp1190
g34
ag35
asbsg36
(lp1191
F1.5
aF2.5
asg38
I58
sg39
g1
sg40
I57
saasS'l'
p1192
(lp1193
(lp1194
(dp1195
g5
F34.34106308767471
sg6
I0
sg7
I2
sg8
(iTFClasses
function
p1196
(dp1197
g13
(lp1198
F2151.1046658823147
aF19.804093584162985
aF10.493493387203015
asg15
(lp1199
sg11
(lp1200
F324.73298347563775
aF2.0633015420626752
aF0.6214001787180586
asS'Is_SG'
p1201
I01
sS'SG_mean'
p1202
g19
sg23
S'[0]*exp(-0.5*((x-([1]))/([2]))**2)'
p1203
sg25
(lp1204
g27
aS'mean'
p1205
aS'rms'
p1206
asS'SG_rms'
p1207
g34
sbsg36
(lp1208
F0.0
aF1.5
asg38
I58
sg39
g1192
sg40
I0
sa(dp1209
g5
F39.17103347593961
sg6
I0
sg7
I2
sg8
(iTFClasses
function
p1210
(dp1211
g13
(lp1212
F846.4009575712078
aF35.49007175466093
aF5.843307220202853
asg15
(lp1213
sg11
(lp1214
F10.376170324983264
aF0.08246823039636791
aF0.08481350453242564
asg1201
I01
sg1202
g19
sg23
g1203
sg25
(lp1215
g27
ag1205
ag1206
asg1207
g34
sbsg36
(lp1216
F0.0
aF1.5
asg38
I58
sg39
g1192
sg40
I1
sa(dp1217
g5
F42.47131241423216
sg6
I0
sg7
I2
sg8
(iTFClasses
function
p1218
(dp1219
g13
(lp1220
F781.0224049925463
aF37.03708329534287
aF7.102885199582476
asg15
(lp1221
sg11
(lp1222
F8.711499020223137
aF0.11043596491468502
aF0.09440727353871635
asg1201
I01
sg1202
g19
sg23
g1203
sg25
(lp1223
g27
ag1205
ag1206
asg1207
g34
sbsg36
(lp1224
F0.0
aF1.5
asg38
I58
sg39
g1192
sg40
I2
sa(dp1225
g5
F45.262696529812544
sg6
I0
sg7
I2
sg8
(iTFClasses
function
p1226
(dp1227
g13
(lp1228
F734.8061151245332
aF39.46481662509206
aF7.462192991431182
asg15
(lp1229
sg11
(lp1230
F8.42145551946965
aF0.09376277320466887
aF0.08561061472511465
asg1201
I01
sg1202
g19
sg23
g1203
sg25
(lp1231
g27
ag1205
ag1206
asg1207
g34
sbsg36
(lp1232
F0.0
aF1.5
asg38
I58
sg39
g1192
sg40
I3
sa(dp1233
g5
F47.80956498868778
sg6
I0
sg7
I2
sg8
(iTFClasses
function
p1234
(dp1235
g13
(lp1236
F719.0008910159337
aF42.04649586581235
aF7.5928030270822395
asg15
(lp1237
sg11
(lp1238
F8.345671752128398
aF0.07607643323238297
aF0.07303911131095556
asg1201
I01
sg1202
g19
sg23
g1203
sg25
(lp1239
g27
ag1205
ag1206
asg1207
g34
sbsg36
(lp1240
F0.0
aF1.5
asg38
I58
sg39
g1192
sg40
I4
sa(dp1241
g5
F50.19181155071131
sg6
I0
sg7
I2
sg8
(iTFClasses
function
p1242
(dp1243
g13
(lp1244
F710.2634376412423
aF43.688638604694766
aF8.20786351011134
asg15
(lp1245
sg11
(lp1246
F8.280244678183344
aF0.08377100315426868
aF0.0811021696378028
asg1201
I01
sg1202
g19
sg23
g1203
sg25
(lp1247
g27
ag1205
ag1206
asg1207
g34
sbsg36
(lp1248
F0.0
aF1.5
asg38
I58
sg39
g1192
sg40
I5
sa(dp1249
g5
F52.44863708206687
sg6
I0
sg7
I2
sg8
(iTFClasses
function
p1250
(dp1251
g13
(lp1252
F696.291756355937
aF45.562065455689435
aF8.626265507031393
asg15
(lp1253
sg11
(lp1254
F8.07407148702273
aF0.08497983576030038
aF0.08093529090031956
asg1201
I01
sg1202
g19
sg23
g1203
sg25
(lp1255
g27
ag1205
ag1206
asg1207
g34
sbsg36
(lp1256
F0.0
aF1.5
asg38
I58
sg39
g1192
sg40
I6
sa(dp1257
g5
F54.61965699042504
sg6
I0
sg7
I2
sg8
(iTFClasses
function
p1258
(dp1259
g13
(lp1260
F739.4571387098425
aF48.01462272602418
aF8.171764868551103
asg15
(lp1261
sg11
(lp1262
F8.105003775477487
aF0.07275131910432267
aF0.05890532533878219
asg1201
I01
sg1202
g19
sg23
g1203
sg25
(lp1263
g27
ag1205
ag1206
asg1207
g34
sbsg36
(lp1264
F0.0
aF1.5
asg38
I58
sg39
g1192
sg40
I7
sa(dp1265
g5
F56.74282342812787
sg6
I0
sg7
I2
sg8
(iTFClasses
function
p1266
(dp1267
g13
(lp1268
F723.3467573493073
aF49.81264224129735
aF8.556018490901542
asg15
(lp1269
sg11
(lp1270
F7.994699412970773
aF0.076151279335755
aF0.06164760203392747
asg1201
I01
sg1202
g19
sg23
g1203
sg25
(lp1271
g27
ag1205
ag1206
asg1207
g34
sbsg36
(lp1272
F0.0
aF1.5
asg38
I58
sg39
g1192
sg40
I8
sa(dp1273
g5
F58.81240684480623
sg6
I0
sg7
I2
sg8
(iTFClasses
function
p1274
(dp1275
g13
(lp1276
F704.279074920495
aF51.16762660551433
aF9.336463051981784
asg15
(lp1277
sg11
(lp1278
F8.061892253952884
aF0.08555952459735322
aF0.07670211710515089
asg1201
I01
sg1202
g19
sg23
g1203
sg25
(lp1279
g27
ag1205
ag1206
asg1207
g34
sbsg36
(lp1280
F0.0
aF1.5
asg38
I58
sg39
g1192
sg40
I9
sa(dp1281
g5
F60.86184201129146
sg6
I0
sg7
I2
sg8
(iTFClasses
function
p1282
(dp1283
g13
(lp1284
F696.3671125768024
aF53.15807845899309
aF9.682503155603987
asg15
(lp1285
sg11
(lp1286
F7.978365630563838
aF0.08683584848366682
aF0.0777100476137795
asg1201
I01
sg1202
g19
sg23
g1203
sg25
(lp1287
g27
ag1205
ag1206
asg1207
g34
sbsg36
(lp1288
F0.0
aF1.5
asg38
I58
sg39
g1192
sg40
I10
sa(dp1289
g5
F62.885709416182515
sg6
I0
sg7
I2
sg8
(iTFClasses
function
p1290
(dp1291
g13
(lp1292
F693.7595443325026
aF54.784754251984126
aF10.004393176843768
asg15
(lp1293
sg11
(lp1294
F7.9025062172327125
aF0.08889666364015845
aF0.07815263257471677
asg1201
I01
sg1202
g19
sg23
g1203
sg25
(lp1295
g27
ag1205
ag1206
asg1207
g34
sbsg36
(lp1296
F0.0
aF1.5
asg38
I58
sg39
g1192
sg40
I11
sa(dp1297
g5
F64.89883211952107
sg6
I0
sg7
I2
sg8
(iTFClasses
function
p1298
(dp1299
g13
(lp1300
F705.9103136683937
aF56.81471332788448
aF10.058025425319972
asg15
(lp1301
sg11
(lp1302
F8.11601781597661
aF0.08871871697347597
aF0.0785266047006761
asg1201
I01
sg1202
g19
sg23
g1203
sg25
(lp1303
g27
ag1205
ag1206
asg1207
g34
sbsg36
(lp1304
F0.0
aF1.5
asg38
I58
sg39
g1192
sg40
I12
sa(dp1305
g5
F66.8998573500796
sg6
I0
sg7
I2
sg8
(iTFClasses
function
p1306
(dp1307
g13
(lp1308
F706.6694677529275
aF58.55700629416315
aF10.434469184441545
asg15
(lp1309
sg11
(lp1310
F8.117355155844468
aF0.09217773723451335
aF0.08181205052877308
asg1201
I01
sg1202
g19
sg23
g1203
sg25
(lp1311
g27
ag1205
ag1206
asg1207
g34
sbsg36
(lp1312
F0.0
aF1.5
asg38
I58
sg39
g1192
sg40
I13
sa(dp1313
g5
F68.90934710492868
sg6
I0
sg7
I2
sg8
(iTFClasses
function
p1314
(dp1315
g13
(lp1316
F711.9176762743136
aF60.51144701713955
aF10.662803495498082
asg15
(lp1317
sg11
(lp1318
F8.240339344265978
aF0.09328180421864327
aF0.08428099175107406
asg1201
I01
sg1202
g19
sg23
g1203
sg25
(lp1319
g27
ag1205
ag1206
asg1207
g34
sbsg36
(lp1320
F0.0
aF1.5
asg38
I58
sg39
g1192
sg40
I14
sa(dp1321
g5
F70.89732763292886
sg6
I0
sg7
I2
sg8
(iTFClasses
function
p1322
(dp1323
g13
(lp1324
F711.0113255135612
aF62.23148070917205
aF10.824202362638747
asg15
(lp1325
sg11
(lp1326
F8.115033548545622
aF0.09463970284815167
aF0.08161110507548795
asg1201
I01
sg1202
g19
sg23
g1203
sg25
(lp1327
g27
ag1205
ag1206
asg1207
g34
sbsg36
(lp1328
F0.0
aF1.5
asg38
I58
sg39
g1192
sg40
I15
sa(dp1329
g5
F72.90344285764785
sg6
I0
sg7
I2
sg8
(iTFClasses
function
p1330
(dp1331
g13
(lp1332
F727.4487941844609
aF63.91437705568804
aF11.005632454966069
asg15
(lp1333
sg11
(lp1334
F8.35567403547663
aF0.09683331397205336
aF0.08481139176782265
asg1201
I01
sg1202
g19
sg23
g1203
sg25
(lp1335
g27
ag1205
ag1206
asg1207
g34
sbsg36
(lp1336
F0.0
aF1.5
asg38
I58
sg39
g1192
sg40
I16
sa(dp1337
g5
F74.90336021186441
sg6
I0
sg7
I2
sg8
(iTFClasses
function
p1338
(dp1339
g13
(lp1340
F738.767016723485
aF65.96519801228973
aF11.215339787139891
asg15
(lp1341
sg11
(lp1342
F8.461697124680342
aF0.09759262429444944
aF0.08594040885038721
asg1201
I01
sg1202
g19
sg23
g1203
sg25
(lp1343
g27
ag1205
ag1206
asg1207
g34
sbsg36
(lp1344
F0.0
aF1.5
asg38
I58
sg39
g1192
sg40
I17
sa(dp1345
g5
F76.90719555414418
sg6
I0
sg7
I2
sg8
(iTFClasses
function
p1346
(dp1347
g13
(lp1348
F741.1143392656575
aF67.60311114619252
aF11.406793720254292
asg15
(lp1349
sg11
(lp1350
F8.57745927610094
aF0.10067466190914667
aF0.08910750782667261
asg1201
I01
sg1202
g19
sg23
g1203
sg25
(lp1351
g27
ag1205
ag1206
asg1207
g34
sbsg36
(lp1352
F0.0
aF1.5
asg38
I58
sg39
g1192
sg40
I18
sa(dp1353
g5
F78.92089643312102
sg6
I0
sg7
I2
sg8
(iTFClasses
function
p1354
(dp1355
g13
(lp1356
F752.2825922336909
aF69.49994836573049
aF11.56564506788951
asg15
(lp1357
sg11
(lp1358
F8.67913340936086
aF0.10116509019355921
aF0.08968061715908174
asg1201
I01
sg1202
g19
sg23
g1203
sg25
(lp1359
g27
ag1205
ag1206
asg1207
g34
sbsg36
(lp1360
F0.0
aF1.5
asg38
I58
sg39
g1192
sg40
I19
sa(dp1361
g5
F80.93430511858406
sg6
I0
sg7
I2
sg8
(iTFClasses
function
p1362
(dp1363
g13
(lp1364
F748.1526147862768
aF71.71059274541055
aF11.92752296914023
asg15
(lp1365
sg11
(lp1366
F8.719308619126812
aF0.10375855654808067
aF0.09457054841633748
asg1201
I01
sg1202
g19
sg23
g1203
sg25
(lp1367
g27
ag1205
ag1206
asg1207
g34
sbsg36
(lp1368
F0.0
aF1.5
asg38
I58
sg39
g1192
sg40
I20
sa(dp1369
g5
F82.9669784362198
sg6
I0
sg7
I2
sg8
(iTFClasses
function
p1370
(dp1371
g13
(lp1372
F763.0226617673113
aF73.34537718881663
aF11.975505300461469
asg15
(lp1373
sg11
(lp1374
F8.886157082304338
aF0.10511145594995408
aF0.09462327722014055
asg1201
I01
sg1202
g19
sg23
g1203
sg25
(lp1375
g27
ag1205
ag1206
asg1207
g34
sbsg36
(lp1376
F0.0
aF1.5
asg38
I58
sg39
g1192
sg40
I21
sa(dp1377
g5
F85.02604636093838
sg6
I0
sg7
I2
sg8
(iTFClasses
function
p1378
(dp1379
g13
(lp1380
F783.8059172993477
aF75.15419052710979
aF11.949568476424327
asg15
(lp1381
sg11
(lp1382
F9.172088614352065
aF0.10499404999623532
aF0.09538838876220898
asg1201
I01
sg1202
g19
sg23
g1203
sg25
(lp1383
g27
ag1205
ag1206
asg1207
g34
sbsg36
(lp1384
F0.0
aF1.5
asg38
I58
sg39
g1192
sg40
I22
sa(dp1385
g5
F87.10489329798514
sg6
I0
sg7
I2
sg8
(iTFClasses
function
p1386
(dp1387
g13
(lp1388
F774.1445425630707
aF77.21374511873871
aF12.37764597713432
asg15
(lp1389
sg11
(lp1390
F9.064958902074832
aF0.10910256429988202
aF0.09887577767456109
asg1201
I01
sg1202
g19
sg23
g1203
sg25
(lp1391
g27
ag1205
ag1206
asg1207
g34
sbsg36
(lp1392
F0.0
aF1.5
asg38
I58
sg39
g1192
sg40
I23
sa(dp1393
g5
F89.22239307350138
sg6
I0
sg7
I2
sg8
(iTFClasses
function
p1394
(dp1395
g13
(lp1396
F778.3350014250067
aF79.03359241073599
aF12.667566915664413
asg15
(lp1397
sg11
(lp1398
F9.054999616469958
aF0.10924073779908537
aF0.10004336358296347
asg1201
I01
sg1202
g19
sg23
g1203
sg25
(lp1399
g27
ag1205
ag1206
asg1207
g34
sbsg36
(lp1400
F0.0
aF1.5
asg38
I58
sg39
g1192
sg40
I24
sa(dp1401
g5
F91.36883312588401
sg6
I0
sg7
I2
sg8
(iTFClasses
function
p1402
(dp1403
g13
(lp1404
F788.2990822074219
aF81.09624983817838
aF12.68892518554702
asg15
(lp1405
sg11
(lp1406
F9.203707792212946
aF0.11114682134544453
aF0.10039206121863123
asg1201
I01
sg1202
g19
sg23
g1203
sg25
(lp1407
g27
ag1205
ag1206
asg1207
g34
sbsg36
(lp1408
F0.0
aF1.5
asg38
I58
sg39
g1192
sg40
I25
sa(dp1409
g5
F93.545014763675
sg6
I0
sg7
I2
sg8
(iTFClasses
function
p1410
(dp1411
g13
(lp1412
F783.6572338451696
aF83.14180278460438
aF12.887753718596299
asg15
(lp1413
sg11
(lp1414
F9.237556059684197
aF0.11406981225937955
aF0.10326058882473454
asg1201
I01
sg1202
g19
sg23
g1203
sg25
(lp1415
g27
ag1205
ag1206
asg1207
g34
sbsg36
(lp1416
F0.0
aF1.5
asg38
I58
sg39
g1192
sg40
I26
sa(dp1417
g5
F95.75443131355932
sg6
I0
sg7
I2
sg8
(iTFClasses
function
p1418
(dp1419
g13
(lp1420
F793.1386727170219
aF85.00686920953791
aF13.107315901401078
asg15
(lp1421
sg11
(lp1422
F9.323035834154334
aF0.11536487910967068
aF0.10471225410842422
asg1201
I01
sg1202
g19
sg23
g1203
sg25
(lp1423
g27
ag1205
ag1206
asg1207
g34
sbsg36
(lp1424
F0.0
aF1.5
asg38
I58
sg39
g1192
sg40
I27
sa(dp1425
g5
F97.98653668267194
sg6
I0
sg7
I2
sg8
(iTFClasses
function
p1426
(dp1427
g13
(lp1428
F807.3734485576963
aF86.94473793256917
aF13.319930862460682
asg15
(lp1429
sg11
(lp1430
F9.51697245077525
aF0.11758863310147495
aF0.10772214423109806
asg1201
I01
sg1202
g19
sg23
g1203
sg25
(lp1431
g27
ag1205
ag1206
asg1207
g34
sbsg36
(lp1432
F0.0
aF1.5
asg38
I58
sg39
g1192
sg40
I28
sa(dp1433
g5
F100.24678012949794
sg6
I0
sg7
I2
sg8
(iTFClasses
function
p1434
(dp1435
g13
(lp1436
F825.1892865640376
aF89.12819876346983
aF13.262520073702268
asg15
(lp1437
sg11
(lp1438
F9.68626323676274
aF0.11800413693205274
aF0.10596913371843748
asg1201
I01
sg1202
g19
sg23
g1203
sg25
(lp1439
g27
ag1205
ag1206
asg1207
g34
sbsg36
(lp1440
F0.0
aF1.5
asg38
I58
sg39
g1192
sg40
I29
sa(dp1441
g5
F102.57852752568947
sg6
I0
sg7
I2
sg8
(iTFClasses
function
p1442
(dp1443
g13
(lp1444
F850.1524306087166
aF91.24456178644814
aF13.306598807560912
asg15
(lp1445
sg11
(lp1446
F9.703365965787867
aF0.11616029450346228
aF0.10051851540699934
asg1201
I01
sg1202
g19
sg23
g1203
sg25
(lp1447
g27
ag1205
ag1206
asg1207
g34
sbsg36
(lp1448
F0.0
aF1.5
asg38
I58
sg39
g1192
sg40
I30
sa(dp1449
g5
F104.96376005938075
sg6
I0
sg7
I2
sg8
(iTFClasses
function
p1450
(dp1451
g13
(lp1452
F832.0080712060701
aF93.41223910117739
aF13.742320639093192
asg15
(lp1453
sg11
(lp1454
F9.787351333056748
aF0.12052130099637987
aF0.11017367614857713
asg1201
I01
sg1202
g19
sg23
g1203
sg25
(lp1455
g27
ag1205
ag1206
asg1207
g34
sbsg36
(lp1456
F0.0
aF1.5
asg38
I58
sg39
g1192
sg40
I31
sa(dp1457
g5
F107.39752669472047
sg6
I0
sg7
I2
sg8
(iTFClasses
function
p1458
(dp1459
g13
(lp1460
F852.1998959883118
aF95.76348478956625
aF13.930280743602491
asg15
(lp1461
sg11
(lp1462
F9.726077606589948
aF0.12141783641880995
aF0.10537532145847073
asg1201
I01
sg1202
g19
sg23
g1203
sg25
(lp1463
g27
ag1205
ag1206
asg1207
g34
sbsg36
(lp1464
F0.0
aF1.5
asg38
I58
sg39
g1192
sg40
I32
sa(dp1465
g5
F109.90014508474576
sg6
I0
sg7
I2
sg8
(iTFClasses
function
p1466
(dp1467
g13
(lp1468
F870.2337364891549
aF97.75652529687075
aF13.905492076162517
asg15
(lp1469
sg11
(lp1470
F10.125520033422161
aF0.12285615103594363
aF0.1095410120115455
asg1201
I01
sg1202
g19
sg23
g1203
sg25
(lp1471
g27
ag1205
ag1206
asg1207
g34
sbsg36
(lp1472
F0.0
aF1.5
asg38
I58
sg39
g1192
sg40
I33
sa(dp1473
g5
F112.44797664424779
sg6
I0
sg7
I2
sg8
(iTFClasses
function
p1474
(dp1475
g13
(lp1476
F863.0073850490442
aF100.21835753596764
aF14.265501044306545
asg15
(lp1477
sg11
(lp1478
F10.043176519010466
aF0.1251411840743863
aF0.11204106098808915
asg1201
I01
sg1202
g19
sg23
g1203
sg25
(lp1479
g27
ag1205
ag1206
asg1207
g34
sbsg36
(lp1480
F0.0
aF1.5
asg38
I58
sg39
g1192
sg40
I34
sa(dp1481
g5
F115.06188057163021
sg6
I0
sg7
I2
sg8
(iTFClasses
function
p1482
(dp1483
g13
(lp1484
F869.6669741679402
aF102.6589870294313
aF14.730766052753086
asg15
(lp1485
sg11
(lp1486
F10.076600996714166
aF0.12770086776641784
aF0.11573944767905552
asg1201
I01
sg1202
g19
sg23
g1203
sg25
(lp1487
g27
ag1205
ag1206
asg1207
g34
sbsg36
(lp1488
F0.0
aF1.5
asg38
I58
sg39
g1192
sg40
I35
sa(dp1489
g5
F117.76333088552916
sg6
I0
sg7
I2
sg8
(iTFClasses
function
p1490
(dp1491
g13
(lp1492
F873.383889488285
aF104.93807695955057
aF14.747475043725675
asg15
(lp1493
sg11
(lp1494
F10.081664394708323
aF0.12966876436414643
aF0.11368046593237953
asg1201
I01
sg1202
g19
sg23
g1203
sg25
(lp1495
g27
ag1205
ag1206
asg1207
g34
sbsg36
(lp1496
F0.0
aF1.5
asg38
I58
sg39
g1192
sg40
I36
sa(dp1497
g5
F120.53604123405309
sg6
I0
sg7
I2
sg8
(iTFClasses
function
p1498
(dp1499
g13
(lp1500
F900.8652383455433
aF107.6874048264709
aF14.810669689289494
asg15
(lp1501
sg11
(lp1502
F10.282846784724374
aF0.1290298543973683
aF0.11214422953730176
asg1201
I01
sg1202
g19
sg23
g1203
sg25
(lp1503
g27
ag1205
ag1206
asg1207
g34
sbsg36
(lp1504
F0.0
aF1.5
asg38
I58
sg39
g1192
sg40
I37
sa(dp1505
g5
F123.41361479779412
sg6
I0
sg7
I2
sg8
(iTFClasses
function
p1506
(dp1507
g13
(lp1508
F894.266168960415
aF110.3016108781015
aF15.162313306235811
asg15
(lp1509
sg11
(lp1510
F10.581361348167945
aF0.13439864090575956
aF0.12363846587092202
asg1201
I01
sg1202
g19
sg23
g1203
sg25
(lp1511
g27
ag1205
ag1206
asg1207
g34
sbsg36
(lp1512
F0.0
aF1.5
asg38
I58
sg39
g1192
sg40
I38
sa(dp1513
g5
F126.41228883392228
sg6
I0
sg7
I2
sg8
(iTFClasses
function
p1514
(dp1515
g13
(lp1516
F905.2571352611614
aF112.6473972782058
aF15.319398001056772
asg15
(lp1517
sg11
(lp1518
F10.513489310810021
aF0.13578591949427504
aF0.11987628230568778
asg1201
I01
sg1202
g19
sg23
g1203
sg25
(lp1519
g27
ag1205
ag1206
asg1207
g34
sbsg36
(lp1520
F0.0
aF1.5
asg38
I58
sg39
g1192
sg40
I39
sa(dp1521
g5
F129.51766238590534
sg6
I0
sg7
I2
sg8
(iTFClasses
function
p1522
(dp1523
g13
(lp1524
F912.7192440514913
aF115.63040722741961
aF15.440577029568248
asg15
(lp1525
sg11
(lp1526
F10.827764712608014
aF0.13824706035597253
aF0.12589759468705428
asg1201
I01
sg1202
g19
sg23
g1203
sg25
(lp1527
g27
ag1205
ag1206
asg1207
g34
sbsg36
(lp1528
F0.0
aF1.5
asg38
I58
sg39
g1192
sg40
I40
sa(dp1529
g5
F132.75111280166777
sg6
I0
sg7
I2
sg8
(iTFClasses
function
p1530
(dp1531
g13
(lp1532
F941.2280098172549
aF118.64701818985581
aF15.438356140442677
asg15
(lp1533
sg11
(lp1534
F11.014904169914615
aF0.13718213833509613
aF0.12264175038555965
asg1201
I01
sg1202
g19
sg23
g1203
sg25
(lp1535
g27
ag1205
ag1206
asg1207
g34
sbsg36
(lp1536
F0.0
aF1.5
asg38
I58
sg39
g1192
sg40
I41
sa(dp1537
g5
F136.1640799816183
sg6
I0
sg7
I2
sg8
(iTFClasses
function
p1538
(dp1539
g13
(lp1540
F970.9396083871902
aF121.57027363165163
aF15.614394266296674
asg15
(lp1541
sg11
(lp1542
F11.041432644261521
aF0.13706296543259328
aF0.11760160867335222
asg1201
I01
sg1202
g19
sg23
g1203
sg25
(lp1543
g27
ag1205
ag1206
asg1207
g34
sbsg36
(lp1544
F0.0
aF1.5
asg38
I58
sg39
g1192
sg40
I42
sa(dp1545
g5
F139.70534921083294
sg6
I0
sg7
I2
sg8
(iTFClasses
function
p1546
(dp1547
g13
(lp1548
F973.0116448696454
aF124.94956635265268
aF15.940642697944375
asg15
(lp1549
sg11
(lp1550
F11.254031438797446
aF0.1424733147817294
aF0.12444412059958532
asg1201
I01
sg1202
g19
sg23
g1203
sg25
(lp1551
g27
ag1205
ag1206
asg1207
g34
sbsg36
(lp1552
F0.0
aF1.5
asg38
I58
sg39
g1192
sg40
I43
sa(dp1553
g5
F143.4361721346249
sg6
I0
sg7
I2
sg8
(iTFClasses
function
p1554
(dp1555
g13
(lp1556
F976.7535947370468
aF128.43379772438612
aF16.13811827759567
asg15
(lp1557
sg11
(lp1558
F11.381917879205172
aF0.14598098008410676
aF0.12724650177337662
asg1201
I01
sg1202
g19
sg23
g1203
sg25
(lp1559
g27
ag1205
ag1206
asg1207
g34
sbsg36
(lp1560
F0.0
aF1.5
asg38
I58
sg39
g1192
sg40
I44
sa(dp1561
g5
F147.41445461358978
sg6
I0
sg7
I2
sg8
(iTFClasses
function
p1562
(dp1563
g13
(lp1564
F1001.5120952723481
aF132.04453837257137
aF16.197440060765466
asg15
(lp1565
sg11
(lp1566
F11.684255699267268
aF0.14422661379847443
aF0.12811055645518296
asg1201
I01
sg1202
g19
sg23
g1203
sg25
(lp1567
g27
ag1205
ag1206
asg1207
g34
sbsg36
(lp1568
F0.0
aF1.5
asg38
I58
sg39
g1192
sg40
I45
sa(dp1569
g5
F151.65657708303863
sg6
I0
sg7
I2
sg8
(iTFClasses
function
p1570
(dp1571
g13
(lp1572
F997.8298678606958
aF135.50418086344894
aF16.51842677909202
asg15
(lp1573
sg11
(lp1574
F11.711181862930632
aF0.15083009653191198
aF0.13135261250081276
asg1201
I01
sg1202
g19
sg23
g1203
sg25
(lp1575
g27
ag1205
ag1206
asg1207
g34
sbsg36
(lp1576
F0.0
aF1.5
asg38
I58
sg39
g1192
sg40
I46
sa(dp1577
g5
F156.21238632798702
sg6
I0
sg7
I2
sg8
(iTFClasses
function
p1578
(dp1579
g13
(lp1580
F1026.0579216051574
aF139.5756950735189
aF16.752460689537674
asg15
(lp1581
sg11
(lp1582
F11.836838538983166
aF0.14824413276819096
aF0.12914025494193054
asg1201
I01
sg1202
g19
sg23
g1203
sg25
(lp1583
g27
ag1205
ag1206
asg1207
g34
sbsg36
(lp1584
F0.0
aF1.5
asg38
I58
sg39
g1192
sg40
I47
sa(dp1585
g5
F161.14650284239553
sg6
I0
sg7
I2
sg8
(iTFClasses
function
p1586
(dp1587
g13
(lp1588
F1031.3068193494162
aF144.07789120007092
aF17.206078387601963
asg15
(lp1589
sg11
(lp1590
F12.082880935027317
aF0.1546533228530751
aF0.1372320883684885
asg1201
I01
sg1202
g19
sg23
g1203
sg25
(lp1591
g27
ag1205
ag1206
asg1207
g34
sbsg36
(lp1592
F0.0
aF1.5
asg38
I58
sg39
g1192
sg40
I48
sa(dp1593
g5
F166.53042802939308
sg6
I0
sg7
I2
sg8
(iTFClasses
function
p1594
(dp1595
g13
(lp1596
F1047.785085612656
aF148.51030188768414
aF17.67533636178743
asg15
(lp1597
sg11
(lp1598
F12.045037886132345
aF0.1572775918757765
aF0.13593070507083474
asg1201
I01
sg1202
g19
sg23
g1203
sg25
(lp1599
g27
ag1205
ag1206
asg1207
g34
sbsg36
(lp1600
F0.0
aF1.5
asg38
I58
sg39
g1192
sg40
I49
sa(dp1601
g5
F172.50916250795672
sg6
I0
sg7
I2
sg8
(iTFClasses
function
p1602
(dp1603
g13
(lp1604
F1065.1431582897249
aF153.92318206656932
aF17.917438958859456
asg15
(lp1605
sg11
(lp1606
F12.325437734809492
aF0.16068481340382987
aF0.13925032690860878
asg1201
I01
sg1202
g19
sg23
g1203
sg25
(lp1607
g27
ag1205
ag1206
asg1207
g34
sbsg36
(lp1608
F0.0
aF1.5
asg38
I58
sg39
g1192
sg40
I50
sa(dp1609
g5
F179.25382458668926
sg6
I0
sg7
I2
sg8
(iTFClasses
function
p1610
(dp1611
g13
(lp1612
F1065.5727124406228
aF160.2329991920883
aF18.618625900058444
asg15
(lp1613
sg11
(lp1614
F12.28121788995635
aF0.16688699741556817
aF0.1433059390656009
asg1201
I01
sg1202
g19
sg23
g1203
sg25
(lp1615
g27
ag1205
ag1206
asg1207
g34
sbsg36
(lp1616
F0.0
aF1.5
asg38
I58
sg39
g1192
sg40
I51
sa(dp1617
g5
F186.98267229844416
sg6
I0
sg7
I2
sg8
(iTFClasses
function
p1618
(dp1619
g13
(lp1620
F1084.9280379993725
aF167.1120003275157
aF19.061823811800494
asg15
(lp1621
sg11
(lp1622
F12.426888654943639
aF0.16962958114950188
aF0.14440516175207554
asg1201
I01
sg1202
g19
sg23
g1203
sg25
(lp1623
g27
ag1205
ag1206
asg1207
g34
sbsg36
(lp1624
F0.0
aF1.5
asg38
I58
sg39
g1192
sg40
I52
sa(dp1625
g5
F196.05780036038584
sg6
I0
sg7
I2
sg8
(iTFClasses
function
p1626
(dp1627
g13
(lp1628
F1101.6662717019426
aF175.33551205634953
aF19.66574820785146
asg15
(lp1629
sg11
(lp1630
F12.885149399988816
aF0.18065363859150335
aF0.15567293011179312
asg1201
I01
sg1202
g19
sg23
g1203
sg25
(lp1631
g27
ag1205
ag1206
asg1207
g34
sbsg36
(lp1632
F0.0
aF1.5
asg38
I58
sg39
g1192
sg40
I53
sa(dp1633
g5
F207.19077564614787
sg6
I0
sg7
I2
sg8
(iTFClasses
function
p1634
(dp1635
g13
(lp1636
F1108.6671326643534
aF184.87481165215434
aF20.516937474653616
asg15
(lp1637
sg11
(lp1638
F13.088735654506603
aF0.18968408390053054
aF0.16465731060398295
asg1201
I01
sg1202
g19
sg23
g1203
sg25
(lp1639
g27
ag1205
ag1206
asg1207
g34
sbsg36
(lp1640
F0.0
aF1.5
asg38
I58
sg39
g1192
sg40
I54
sa(dp1641
g5
F221.43678660774262
sg6
I0
sg7
I2
sg8
(iTFClasses
function
p1642
(dp1643
g13
(lp1644
F1118.4528761526071
aF197.801707355445
aF22.161172081382094
asg15
(lp1645
sg11
(lp1646
F12.979590017386162
aF0.20069587021815274
aF0.17248010028536348
asg1201
I01
sg1202
g19
sg23
g1203
sg25
(lp1647
g27
ag1205
ag1206
asg1207
g34
sbsg36
(lp1648
F0.0
aF1.5
asg38
I58
sg39
g1192
sg40
I55
sa(dp1649
g5
F241.2873767496112
sg6
I0
sg7
I2
sg8
(iTFClasses
function
p1650
(dp1651
g13
(lp1652
F1154.6836549664533
aF215.31888780649678
aF23.768737138321814
asg15
(lp1653
sg11
(lp1654
F13.402748354643832
aF0.2158134084533416
aF0.18525532698183314
asg1201
I01
sg1202
g19
sg23
g1203
sg25
(lp1655
g27
ag1205
ag1206
asg1207
g34
sbsg36
(lp1656
F0.0
aF1.5
asg38
I58
sg39
g1192
sg40
I56
sa(dp1657
g5
F274.0153866544144
sg6
I0
sg7
I2
sg8
(iTFClasses
function
p1658
(dp1659
g13
(lp1660
F1166.700276328426
aF245.23687425841936
aF28.15209078675371
asg15
(lp1661
sg11
(lp1662
F13.337323755356278
aF0.2510076516878405
aF0.21404134384916795
asg1201
I01
sg1202
g19
sg23
g1203
sg25
(lp1663
g27
ag1205
ag1206
asg1207
g34
sbsg36
(lp1664
F0.0
aF1.5
asg38
I58
sg39
g1192
sg40
I57
saa(lp1665
(dp1666
g5
F34.23129229808493
sg6
I1
sg7
I2
sg8
(iTFClasses
function
p1667
(dp1668
g13
(lp1669
F195.2905166130283
aF29.038844268317682
aF6.917106716395093
asg15
(lp1670
sg11
(lp1671
F11.468588174294563
aF0.9960898476459956
aF0.4766687815152141
asg1201
I01
sg1202
g19
sg23
g1203
sg25
(lp1672
g27
ag1205
ag1206
asg1207
g34
sbsg36
(lp1673
F1.5
aF2.5
asg38
I58
sg39
g1192
sg40
I0
sa(dp1674
g5
F38.836915653621986
sg6
I1
sg7
I2
sg8
(iTFClasses
function
p1675
(dp1676
g13
(lp1677
F174.57798586389535
aF30.788043396451926
aF7.759397287645946
asg15
(lp1678
sg11
(lp1679
F6.816397741889872
aF0.7723215941229329
aF0.3921561834601045
asg1201
I01
sg1202
g19
sg23
g1203
sg25
(lp1680
g27
ag1205
ag1206
asg1207
g34
sbsg36
(lp1681
F1.5
aF2.5
asg38
I58
sg39
g1192
sg40
I1
sa(dp1682
g5
F41.857264281256505
sg6
I1
sg7
I2
sg8
(iTFClasses
function
p1683
(dp1684
g13
(lp1685
F137.02257744128949
aF36.87406003747744
aF6.068265161596598
asg15
(lp1686
sg11
(lp1687
F4.1679516465125
aF0.16794364154528346
aF0.18708856949244512
asg1201
I01
sg1202
g19
sg23
g1203
sg25
(lp1688
g27
ag1205
ag1206
asg1207
g34
sbsg36
(lp1689
F1.5
aF2.5
asg38
I58
sg39
g1192
sg40
I2
sa(dp1690
g5
F44.390655056179774
sg6
I1
sg7
I2
sg8
(iTFClasses
function
p1691
(dp1692
g13
(lp1693
F148.73300670731865
aF39.89520916327673
aF4.829748700564409
asg15
(lp1694
sg11
(lp1695
F4.425891655274253
aF0.13718147760087662
aF0.09789144231382339
asg1201
I01
sg1202
g19
sg23
g1203
sg25
(lp1696
g27
ag1205
ag1206
asg1207
g34
sbsg36
(lp1697
F1.5
aF2.5
asg38
I58
sg39
g1192
sg40
I3
sa(dp1698
g5
F46.702490492076734
sg6
I1
sg7
I2
sg8
(iTFClasses
function
p1699
(dp1700
g13
(lp1701
F126.85353134317738
aF39.6826392529316
aF7.529337632928175
asg15
(lp1702
sg11
(lp1703
F3.54419582876479
aF0.20949970704682058
aF0.2011388113837834
asg1201
I01
sg1202
g19
sg23
g1203
sg25
(lp1704
g27
ag1205
ag1206
asg1207
g34
sbsg36
(lp1705
F1.5
aF2.5
asg38
I58
sg39
g1192
sg40
I4
sa(dp1706
g5
F48.82992579034942
sg6
I1
sg7
I2
sg8
(iTFClasses
function
p1707
(dp1708
g13
(lp1709
F123.58672643343469
aF40.47340931155889
aF8.199647611008468
asg15
(lp1710
sg11
(lp1711
F3.3536426096505254
aF0.25547081236453073
aF0.22234500733093232
asg1201
I01
sg1202
g19
sg23
g1203
sg25
(lp1712
g27
ag1205
ag1206
asg1207
g34
sbsg36
(lp1713
F1.5
aF2.5
asg38
I58
sg39
g1192
sg40
I5
sa(dp1714
g5
F50.863411661807575
sg6
I1
sg7
I2
sg8
(iTFClasses
function
p1715
(dp1716
g13
(lp1717
F126.55603980405557
aF43.70677672627313
aF7.490598085351813
asg15
(lp1718
sg11
(lp1719
F3.5461073798970797
aF0.16987250796927414
aF0.1544450031416001
asg1201
I01
sg1202
g19
sg23
g1203
sg25
(lp1720
g27
ag1205
ag1206
asg1207
g34
sbsg36
(lp1721
F1.5
aF2.5
asg38
I58
sg39
g1192
sg40
I6
sa(dp1722
g5
F52.825597836938435
sg6
I1
sg7
I2
sg8
(iTFClasses
function
p1723
(dp1724
g13
(lp1725
F127.59313462228758
aF45.75662989491
aF7.488633967474624
asg15
(lp1726
sg11
(lp1727
F3.355279639978102
aF0.16985977867525334
aF0.12307283887123567
asg1201
I01
sg1202
g19
sg23
g1203
sg25
(lp1728
g27
ag1205
ag1206
asg1207
g34
sbsg36
(lp1729
F1.5
aF2.5
asg38
I58
sg39
g1192
sg40
I7
sa(dp1730
g5
F54.74812126640283
sg6
I1
sg7
I2
sg8
(iTFClasses
function
p1731
(dp1732
g13
(lp1733
F120.61266418655798
aF45.97086868142873
aF8.568935363554981
asg15
(lp1734
sg11
(lp1735
F3.3180937613655277
aF0.2090577277923665
aF0.18120672871689475
asg1201
I01
sg1202
g19
sg23
g1203
sg25
(lp1736
g27
ag1205
ag1206
asg1207
g34
sbsg36
(lp1737
F1.5
aF2.5
asg38
I58
sg39
g1192
sg40
I8
sa(dp1738
g5
F56.57940826032541
sg6
I1
sg7
I2
sg8
(iTFClasses
function
p1739
(dp1740
g13
(lp1741
F120.36407337440527
aF47.650661032755956
aF9.01407385578416
asg15
(lp1742
sg11
(lp1743
F3.336020610539381
aF0.20626779224064382
aF0.1895628140943027
asg1201
I01
sg1202
g19
sg23
g1203
sg25
(lp1744
g27
ag1205
ag1206
asg1207
g34
sbsg36
(lp1745
F1.5
aF2.5
asg38
I58
sg39
g1192
sg40
I9
sa(dp1746
g5
F58.419237435152525
sg6
I1
sg7
I2
sg8
(iTFClasses
function
p1747
(dp1748
g13
(lp1749
F119.9810373009955
aF49.30040758592046
aF9.380280333689534
asg15
(lp1750
sg11
(lp1751
F3.3010138136569207
aF0.20889280920329598
aF0.1897296817516255
asg1201
I01
sg1202
g19
sg23
g1203
sg25
(lp1752
g27
ag1205
ag1206
asg1207
g34
sbsg36
(lp1753
F1.5
aF2.5
asg38
I58
sg39
g1192
sg40
I10
sa(dp1754
g5
F60.246304877032095
sg6
I1
sg7
I2
sg8
(iTFClasses
function
p1755
(dp1756
g13
(lp1757
F120.00892632391995
aF51.211733637102064
aF9.306969283083202
asg15
(lp1758
sg11
(lp1759
F3.338159837665195
aF0.2019624212795702
aF0.18075924872807986
asg1201
I01
sg1202
g19
sg23
g1203
sg25
(lp1760
g27
ag1205
ag1206
asg1207
g34
sbsg36
(lp1761
F1.5
aF2.5
asg38
I58
sg39
g1192
sg40
I11
sa(dp1762
g5
F62.049633041301625
sg6
I1
sg7
I2
sg8
(iTFClasses
function
p1763
(dp1764
g13
(lp1765
F117.39508908563656
aF52.341020075600916
aF9.687234058657072
asg15
(lp1766
sg11
(lp1767
F3.2482789404551418
aF0.2101884192754506
aF0.18319159622409928
asg1201
I01
sg1202
g19
sg23
g1203
sg25
(lp1768
g27
ag1205
ag1206
asg1207
g34
sbsg36
(lp1769
F1.5
aF2.5
asg38
I58
sg39
g1192
sg40
I12
sa(dp1770
g5
F63.86625816368924
sg6
I1
sg7
I2
sg8
(iTFClasses
function
p1771
(dp1772
g13
(lp1773
F122.66726228888935
aF54.26608780104033
aF9.854893428986776
asg15
(lp1774
sg11
(lp1775
F3.411326273205746
aF0.20993336233564158
aF0.19145776658556027
asg1201
I01
sg1202
g19
sg23
g1203
sg25
(lp1776
g27
ag1205
ag1206
asg1207
g34
sbsg36
(lp1777
F1.5
aF2.5
asg38
I58
sg39
g1192
sg40
I13
sa(dp1778
g5
F65.67993881469116
sg6
I1
sg7
I2
sg8
(iTFClasses
function
p1779
(dp1780
g13
(lp1781
F120.9750079766053
aF56.06605574256798
aF10.337808460973042
asg15
(lp1782
sg11
(lp1783
F3.328391952867982
aF0.2204305820746986
aF0.19533164647261458
asg1201
I01
sg1202
g19
sg23
g1203
sg25
(lp1784
g27
ag1205
ag1206
asg1207
g34
sbsg36
(lp1785
F1.5
aF2.5
asg38
I58
sg39
g1192
sg40
I14
sa(dp1786
g5
F67.48982831012263
sg6
I1
sg7
I2
sg8
(iTFClasses
function
p1787
(dp1788
g13
(lp1789
F123.06318644858015
aF57.54066162366924
aF10.164613372593973
asg15
(lp1790
sg11
(lp1791
F3.255750625360405
aF0.21762274617605465
aF0.16835134968891863
asg1201
I01
sg1202
g19
sg23
g1203
sg25
(lp1792
g27
ag1205
ag1206
asg1207
g34
sbsg36
(lp1793
F1.5
aF2.5
asg38
I58
sg39
g1192
sg40
I15
sa(dp1794
g5
F69.3079519716253
sg6
I1
sg7
I2
sg8
(iTFClasses
function
p1795
(dp1796
g13
(lp1797
F129.112501137279
aF58.938132518363346
aF10.290159600440793
asg15
(lp1798
sg11
(lp1799
F3.3874369382106133
aF0.21579559892831382
aF0.17112537945589235
asg1201
I01
sg1202
g19
sg23
g1203
sg25
(lp1800
g27
ag1205
ag1206
asg1207
g34
sbsg36
(lp1801
F1.5
aF2.5
asg38
I58
sg39
g1192
sg40
I16
sa(dp1802
g5
F71.14381533665835
sg6
I1
sg7
I2
sg8
(iTFClasses
function
p1803
(dp1804
g13
(lp1805
F122.40392166939264
aF60.761534470659576
aF10.651821558407706
asg15
(lp1806
sg11
(lp1807
F3.4674969438658354
aF0.23135075274376524
aF0.20646986262581724
asg1201
I01
sg1202
g19
sg23
g1203
sg25
(lp1808
g27
ag1205
ag1206
asg1207
g34
sbsg36
(lp1809
F1.5
aF2.5
asg38
I58
sg39
g1192
sg40
I17
sa(dp1810
g5
F72.96231903373595
sg6
I1
sg7
I2
sg8
(iTFClasses
function
p1811
(dp1812
g13
(lp1813
F129.75780093816144
aF62.720519510062466
aF10.45306674146185
asg15
(lp1814
sg11
(lp1815
F3.586521425958554
aF0.22006459771463596
aF0.19121484476139988
asg1201
I01
sg1202
g19
sg23
g1203
sg25
(lp1816
g27
ag1205
ag1206
asg1207
g34
sbsg36
(lp1817
F1.5
aF2.5
asg38
I58
sg39
g1192
sg40
I18
sa(dp1818
g5
F74.83876736053288
sg6
I1
sg7
I2
sg8
(iTFClasses
function
p1819
(dp1820
g13
(lp1821
F130.0288363919128
aF63.92432319274761
aF10.832250299710442
asg15
(lp1822
sg11
(lp1823
F3.5147594486958185
aF0.23043852809468235
aF0.18992042658633135
asg1201
I01
sg1202
g19
sg23
g1203
sg25
(lp1824
g27
ag1205
ag1206
asg1207
g34
sbsg36
(lp1825
F1.5
aF2.5
asg38
I58
sg39
g1192
sg40
I19
sa(dp1826
g5
F76.71859658404499
sg6
I1
sg7
I2
sg8
(iTFClasses
function
p1827
(dp1828
g13
(lp1829
F127.6240167511241
aF65.96794418537866
aF11.020872173596745
asg15
(lp1830
sg11
(lp1831
F3.5126085218343426
aF0.23558403407617612
aF0.19728551261911922
asg1201
I01
sg1202
g19
sg23
g1203
sg25
(lp1832
g27
ag1205
ag1206
asg1207
g34
sbsg36
(lp1833
F1.5
aF2.5
asg38
I58
sg39
g1192
sg40
I20
sa(dp1834
g5
F78.60144733014752
sg6
I1
sg7
I2
sg8
(iTFClasses
function
p1835
(dp1836
g13
(lp1837
F131.84565841150513
aF67.6936830429248
aF11.095686259843493
asg15
(lp1838
sg11
(lp1839
F3.726475424288748
aF0.24059849270359154
aF0.21297119114262317
asg1201
I01
sg1202
g19
sg23
g1203
sg25
(lp1840
g27
ag1205
ag1206
asg1207
g34
sbsg36
(lp1841
F1.5
aF2.5
asg38
I58
sg39
g1192
sg40
I21
sa(dp1842
g5
F80.52926421558388
sg6
I1
sg7
I2
sg8
(iTFClasses
function
p1843
(dp1844
g13
(lp1845
F136.7003107454637
aF69.23947011448706
aF11.001731547013941
asg15
(lp1846
sg11
(lp1847
F3.7819427220781283
aF0.23097580702771364
aF0.20138773975064664
asg1201
I01
sg1202
g19
sg23
g1203
sg25
(lp1848
g27
ag1205
ag1206
asg1207
g34
sbsg36
(lp1849
F1.5
aF2.5
asg38
I58
sg39
g1192
sg40
I22
sa(dp1850
g5
F82.46923802992518
sg6
I1
sg7
I2
sg8
(iTFClasses
function
p1851
(dp1852
g13
(lp1853
F138.78090853664233
aF71.26741822319127
aF11.252146999076416
asg15
(lp1854
sg11
(lp1855
F3.739274944342715
aF0.23484198555308342
aF0.19504544048323483
asg1201
I01
sg1202
g19
sg23
g1203
sg25
(lp1856
g27
ag1205
ag1206
asg1207
g34
sbsg36
(lp1857
F1.5
aF2.5
asg38
I58
sg39
g1192
sg40
I23
sa(dp1858
g5
F84.48354361746362
sg6
I1
sg7
I2
sg8
(iTFClasses
function
p1859
(dp1860
g13
(lp1861
F133.60678823475476
aF73.48008171698284
aF11.564278407427835
asg15
(lp1862
sg11
(lp1863
F3.8734017542271357
aF0.24629623769064135
aF0.23130940721153626
asg1201
I01
sg1202
g19
sg23
g1203
sg25
(lp1864
g27
ag1205
ag1206
asg1207
g34
sbsg36
(lp1865
F1.5
aF2.5
asg38
I58
sg39
g1192
sg40
I24
sa(dp1866
g5
F86.4647453294412
sg6
I1
sg7
I2
sg8
(iTFClasses
function
p1867
(dp1868
g13
(lp1869
F136.4422066857604
aF74.78061391052208
aF11.894893483971206
asg15
(lp1870
sg11
(lp1871
F3.9701746527865693
aF0.2538911856670929
aF0.24435289071474794
asg1201
I01
sg1202
g19
sg23
g1203
sg25
(lp1872
g27
ag1205
ag1206
asg1207
g34
sbsg36
(lp1873
F1.5
aF2.5
asg38
I58
sg39
g1192
sg40
I25
sa(dp1874
g5
F88.42703579474343
sg6
I1
sg7
I2
sg8
(iTFClasses
function
p1875
(dp1876
g13
(lp1877
F133.9757371511376
aF76.4740895538113
aF12.292990546426516
asg15
(lp1878
sg11
(lp1879
F3.779671390517795
aF0.25747350238033273
aF0.23470433511201494
asg1201
I01
sg1202
g19
sg23
g1203
sg25
(lp1880
g27
ag1205
ag1206
asg1207
g34
sbsg36
(lp1881
F1.5
aF2.5
asg38
I58
sg39
g1192
sg40
I26
sa(dp1882
g5
F90.5154399583767
sg6
I1
sg7
I2
sg8
(iTFClasses
function
p1883
(dp1884
g13
(lp1885
F137.12154396876713
aF78.13153899458948
aF12.081249978064369
asg15
(lp1886
sg11
(lp1887
F3.842154694241144
aF0.26152404268941976
aF0.22424909874635132
asg1201
I01
sg1202
g19
sg23
g1203
sg25
(lp1888
g27
ag1205
ag1206
asg1207
g34
sbsg36
(lp1889
F1.5
aF2.5
asg38
I58
sg39
g1192
sg40
I27
sa(dp1890
g5
F92.61001933471934
sg6
I1
sg7
I2
sg8
(iTFClasses
function
p1891
(dp1892
g13
(lp1893
F139.16991125106114
aF80.44569922843584
aF12.271477099641322
asg15
(lp1894
sg11
(lp1895
F4.015592174685719
aF0.2608932143866478
aF0.2444560317896625
asg1201
I01
sg1202
g19
sg23
g1203
sg25
(lp1896
g27
ag1205
ag1206
asg1207
g34
sbsg36
(lp1897
F1.5
aF2.5
asg38
I58
sg39
g1192
sg40
I28
sa(dp1898
g5
F94.77253302771412
sg6
I1
sg7
I2
sg8
(iTFClasses
function
p1899
(dp1900
g13
(lp1901
F141.82266639566706
aF82.70533088891415
aF12.17149852245231
asg15
(lp1902
sg11
(lp1903
F4.087577625840709
aF0.2605581729195433
aF0.2396523623471531
asg1201
I01
sg1202
g19
sg23
g1203
sg25
(lp1904
g27
ag1205
ag1206
asg1207
g34
sbsg36
(lp1905
F1.5
aF2.5
asg38
I58
sg39
g1192
sg40
I29
sa(dp1906
g5
F96.94676375755051
sg6
I1
sg7
I2
sg8
(iTFClasses
function
p1907
(dp1908
g13
(lp1909
F153.93717911015278
aF84.5793877457052
aF11.702644314577235
asg15
(lp1910
sg11
(lp1911
F4.295691388731155
aF0.2511394066682647
aF0.2174824056848046
asg1201
I01
sg1202
g19
sg23
g1203
sg25
(lp1912
g27
ag1205
ag1206
asg1207
g34
sbsg36
(lp1913
F1.5
aF2.5
asg38
I58
sg39
g1192
sg40
I30
sa(dp1914
g5
F99.18832838991877
sg6
I1
sg7
I2
sg8
(iTFClasses
function
p1915
(dp1916
g13
(lp1917
F142.3448612945879
aF86.4601863192914
aF13.030433615441344
asg15
(lp1918
sg11
(lp1919
F3.984899678072124
aF0.27346428006584894
aF0.24448993660726168
asg1201
I01
sg1202
g19
sg23
g1203
sg25
(lp1920
g27
ag1205
ag1206
asg1207
g34
sbsg36
(lp1921
F1.5
aF2.5
asg38
I58
sg39
g1192
sg40
I31
sa(dp1922
g5
F101.48920982310094
sg6
I1
sg7
I2
sg8
(iTFClasses
function
p1923
(dp1924
g13
(lp1925
F147.54218297183775
aF88.69223326396508
aF12.656209960032275
asg15
(lp1926
sg11
(lp1927
F4.175800240432885
aF0.26860292546627984
aF0.24095931555455677
asg1201
I01
sg1202
g19
sg23
g1203
sg25
(lp1928
g27
ag1205
ag1206
asg1207
g34
sbsg36
(lp1929
F1.5
aF2.5
asg38
I58
sg39
g1192
sg40
I32
sa(dp1930
g5
F103.81699354435652
sg6
I1
sg7
I2
sg8
(iTFClasses
function
p1931
(dp1932
g13
(lp1933
F150.06332564993966
aF90.64668090773354
aF13.051734948025086
asg15
(lp1934
sg11
(lp1935
F4.070014529815001
aF0.27635370962548605
aF0.23234883655289135
asg1201
I01
sg1202
g19
sg23
g1203
sg25
(lp1936
g27
ag1205
ag1206
asg1207
g34
sbsg36
(lp1937
F1.5
aF2.5
asg38
I58
sg39
g1192
sg40
I33
sa(dp1938
g5
F106.24884097439102
sg6
I1
sg7
I2
sg8
(iTFClasses
function
p1939
(dp1940
g13
(lp1941
F152.23820727994664
aF93.3917998114141
aF12.933077763173191
asg15
(lp1942
sg11
(lp1943
F4.391120996448428
aF0.27579734522294663
aF0.25767751408345835
asg1201
I01
sg1202
g19
sg23
g1203
sg25
(lp1944
g27
ag1205
ag1206
asg1207
g34
sbsg36
(lp1945
F1.5
aF2.5
asg38
I58
sg39
g1192
sg40
I34
sa(dp1946
g5
F108.73179554815894
sg6
I1
sg7
I2
sg8
(iTFClasses
function
p1947
(dp1948
g13
(lp1949
F156.73262222563793
aF95.01761161139093
aF12.753929581211137
asg15
(lp1950
sg11
(lp1951
F4.379046961364798
aF0.2803156778494312
aF0.23581681666562293
asg1201
I01
sg1202
g19
sg23
g1203
sg25
(lp1952
g27
ag1205
ag1206
asg1207
g34
sbsg36
(lp1953
F1.5
aF2.5
asg38
I58
sg39
g1192
sg40
I35
sa(dp1954
g5
F111.27008874557937
sg6
I1
sg7
I2
sg8
(iTFClasses
function
p1955
(dp1956
g13
(lp1957
F154.88211966856778
aF97.46390568583512
aF13.268930348461222
asg15
(lp1958
sg11
(lp1959
F4.551891059607851
aF0.284918747227812
aF0.2743387390151602
asg1201
I01
sg1202
g19
sg23
g1203
sg25
(lp1960
g27
ag1205
ag1206
asg1207
g34
sbsg36
(lp1961
F1.5
aF2.5
asg38
I58
sg39
g1192
sg40
I36
sa(dp1962
g5
F113.85532490613267
sg6
I1
sg7
I2
sg8
(iTFClasses
function
p1963
(dp1964
g13
(lp1965
F156.30516666760246
aF99.78088249789859
aF13.513504166699876
asg15
(lp1966
sg11
(lp1967
F4.340598359404566
aF0.2873631439119303
aF0.2477666294966491
asg1201
I01
sg1202
g19
sg23
g1203
sg25
(lp1968
g27
ag1205
ag1206
asg1207
g34
sbsg36
(lp1969
F1.5
aF2.5
asg38
I58
sg39
g1192
sg40
I37
sa(dp1970
g5
F116.52902182952184
sg6
I1
sg7
I2
sg8
(iTFClasses
function
p1971
(dp1972
g13
(lp1973
F156.66741318669807
aF102.29163805699704
aF13.793691564407167
asg15
(lp1974
sg11
(lp1975
F4.314702729251908
aF0.2942005546505483
aF0.24826623839394693
asg1201
I01
sg1202
g19
sg23
g1203
sg25
(lp1976
g27
ag1205
ag1206
asg1207
g34
sbsg36
(lp1977
F1.5
aF2.5
asg38
I58
sg39
g1192
sg40
I38
sa(dp1978
g5
F119.3142855
sg6
I1
sg7
I2
sg8
(iTFClasses
function
p1979
(dp1980
g13
(lp1981
F166.22838056967643
aF104.976291757964
aF13.37986760880016
asg15
(lp1982
sg11
(lp1983
F4.561187974956027
aF0.2886991199625106
aF0.2393460792827049
asg1201
I01
sg1202
g19
sg23
g1203
sg25
(lp1984
g27
ag1205
ag1206
asg1207
g34
sbsg36
(lp1985
F1.5
aF2.5
asg38
I58
sg39
g1192
sg40
I39
sa(dp1986
g5
F122.24197364147408
sg6
I1
sg7
I2
sg8
(iTFClasses
function
p1987
(dp1988
g13
(lp1989
F162.95562313087618
aF107.80859747402357
aF13.626482404150828
asg15
(lp1990
sg11
(lp1991
F4.753969865779098
aF0.30190468638911644
aF0.2747516767054683
asg1201
I01
sg1202
g19
sg23
g1203
sg25
(lp1992
g27
ag1205
ag1206
asg1207
g34
sbsg36
(lp1993
F1.5
aF2.5
asg38
I58
sg39
g1192
sg40
I40
sa(dp1994
g5
F125.26329146189089
sg6
I1
sg7
I2
sg8
(iTFClasses
function
p1995
(dp1996
g13
(lp1997
F168.65553175622637
aF110.67481687980396
aF13.692580700790355
asg15
(lp1998
sg11
(lp1999
F4.869713039344543
aF0.29801410518769655
aF0.2722703552844299
asg1201
I01
sg1202
g19
sg23
g1203
sg25
(lp2000
g27
ag1205
ag1206
asg1207
g34
sbsg36
(lp2001
F1.5
aF2.5
asg38
I58
sg39
g1192
sg40
I41
sa(dp2002
g5
F128.42677557824547
sg6
I1
sg7
I2
sg8
(iTFClasses
function
p2003
(dp2004
g13
(lp2005
F165.0841945480861
aF112.89067255001525
aF14.10799782230504
asg15
(lp2006
sg11
(lp2007
F4.9940972791238405
aF0.3171111682388874
aF0.30605585544113756
asg1201
I01
sg1202
g19
sg23
g1203
sg25
(lp2008
g27
ag1205
ag1206
asg1207
g34
sbsg36
(lp2009
F1.5
aF2.5
asg38
I58
sg39
g1192
sg40
I42
sa(dp2010
g5
F131.726602247191
sg6
I1
sg7
I2
sg8
(iTFClasses
function
p2011
(dp2012
g13
(lp2013
F176.69198768797122
aF116.15867974598041
aF13.636016583461801
asg15
(lp2014
sg11
(lp2015
F4.849733524948496
aF0.30988353792094664
aF0.2406302627455825
asg1201
I01
sg1202
g19
sg23
g1203
sg25
(lp2016
g27
ag1205
ag1206
asg1207
g34
sbsg36
(lp2017
F1.5
aF2.5
asg38
I58
sg39
g1192
sg40
I43
sa(dp2018
g5
F135.21165537052457
sg6
I1
sg7
I2
sg8
(iTFClasses
function
p2019
(dp2020
g13
(lp2021
F175.28534213744416
aF119.06975262452586
aF14.363561845340648
asg15
(lp2022
sg11
(lp2023
F4.987878657240332
aF0.3162846683928877
aF0.2785215937328196
asg1201
I01
sg1202
g19
sg23
g1203
sg25
(lp2024
g27
ag1205
ag1206
asg1207
g34
sbsg36
(lp2025
F1.5
aF2.5
asg38
I58
sg39
g1192
sg40
I44
sa(dp2026
g5
F138.82928925
sg6
I1
sg7
I2
sg8
(iTFClasses
function
p2027
(dp2028
g13
(lp2029
F180.27572907596567
aF122.46449243016374
aF14.675995452112089
asg15
(lp2030
sg11
(lp2031
F4.9855998447715
aF0.31412592246163634
aF0.27071190214709345
asg1201
I01
sg1202
g19
sg23
g1203
sg25
(lp2032
g27
ag1205
ag1206
asg1207
g34
sbsg36
(lp2033
F1.5
aF2.5
asg38
I58
sg39
g1192
sg40
I45
sa(dp2034
g5
F142.76676119900083
sg6
I1
sg7
I2
sg8
(iTFClasses
function
p2035
(dp2036
g13
(lp2037
F179.36849253780588
aF126.22721092204372
aF14.56731487285826
asg15
(lp2038
sg11
(lp2039
F5.172770171223847
aF0.3235940347846308
aF0.28747431634017795
asg1201
I01
sg1202
g19
sg23
g1203
sg25
(lp2040
g27
ag1205
ag1206
asg1207
g34
sbsg36
(lp2041
F1.5
aF2.5
asg38
I58
sg39
g1192
sg40
I46
sa(dp2042
g5
F147.00033574547723
sg6
I1
sg7
I2
sg8
(iTFClasses
function
p2043
(dp2044
g13
(lp2045
F185.2625768664259
aF130.13627975082025
aF15.032749477698024
asg15
(lp2046
sg11
(lp2047
F5.217078452226146
aF0.31332725981909415
aF0.2878937702751284
asg1201
I01
sg1202
g19
sg23
g1203
sg25
(lp2048
g27
ag1205
ag1206
asg1207
g34
sbsg36
(lp2049
F1.5
aF2.5
asg38
I58
sg39
g1192
sg40
I47
sa(dp2050
g5
F151.4873707317073
sg6
I1
sg7
I2
sg8
(iTFClasses
function
p2051
(dp2052
g13
(lp2053
F187.72618219529923
aF133.48066107314767
aF-14.909356878389989
asg15
(lp2054
sg11
(lp2055
F5.1954168958630875
aF0.316264941106972
aF0.26988843885591807
asg1201
I01
sg1202
g19
sg23
g1203
sg25
(lp2056
g27
ag1205
ag1206
asg1207
g34
sbsg36
(lp2057
F1.5
aF2.5
asg38
I58
sg39
g1192
sg40
I48
sa(dp2058
g5
F156.53385593502708
sg6
I1
sg7
I2
sg8
(iTFClasses
function
p2059
(dp2060
g13
(lp2061
F187.60531549758332
aF138.12549854884523
aF15.004991728326067
asg15
(lp2062
sg11
(lp2063
F5.379698607570422
aF0.3625443334467276
aF0.289066863740203
asg1201
I01
sg1202
g19
sg23
g1203
sg25
(lp2064
g27
ag1205
ag1206
asg1207
g34
sbsg36
(lp2065
F1.5
aF2.5
asg38
I58
sg39
g1192
sg40
I49
sa(dp2066
g5
F162.008307826811
sg6
I1
sg7
I2
sg8
(iTFClasses
function
p2067
(dp2068
g13
(lp2069
F189.54730443901641
aF142.8792882221216
aF15.710755470706486
asg15
(lp2070
sg11
(lp2071
F5.503166440752639
aF0.3444653667143533
aF0.3145359340773691
asg1201
I01
sg1202
g19
sg23
g1203
sg25
(lp2072
g27
ag1205
ag1206
asg1207
g34
sbsg36
(lp2073
F1.5
aF2.5
asg38
I58
sg39
g1192
sg40
I50
sa(dp2074
g5
F168.250351125
sg6
I1
sg7
I2
sg8
(iTFClasses
function
p2075
(dp2076
g13
(lp2077
F190.1188338879499
aF149.38763030511652
aF16.27938798111842
asg15
(lp2078
sg11
(lp2079
F5.630656117068401
aF0.3614964630783953
aF0.33962213204386776
asg1201
I01
sg1202
g19
sg23
g1203
sg25
(lp2080
g27
ag1205
ag1206
asg1207
g34
sbsg36
(lp2081
F1.5
aF2.5
asg38
I58
sg39
g1192
sg40
I51
sa(dp2082
g5
F175.37238876404496
sg6
I1
sg7
I2
sg8
(iTFClasses
function
p2083
(dp2084
g13
(lp2085
F199.54926707678322
aF154.89270298747138
aF16.44668204875472
asg15
(lp2086
sg11
(lp2087
F5.552332777453946
aF0.3564669787651594
aF0.30252262396431995
asg1201
I01
sg1202
g19
sg23
g1203
sg25
(lp2088
g27
ag1205
ag1206
asg1207
g34
sbsg36
(lp2089
F1.5
aF2.5
asg38
I58
sg39
g1192
sg40
I52
sa(dp2090
g5
F183.77715646740262
sg6
I1
sg7
I2
sg8
(iTFClasses
function
p2091
(dp2092
g13
(lp2093
F193.04335520704754
aF162.23304494252244
aF17.64254179593828
asg15
(lp2094
sg11
(lp2095
F5.444779840482502
aF0.39411718694134895
aF0.3325531634661553
asg1201
I01
sg1202
g19
sg23
g1203
sg25
(lp2096
g27
ag1205
ag1206
asg1207
g34
sbsg36
(lp2097
F1.5
aF2.5
asg38
I58
sg39
g1192
sg40
I53
sa(dp2098
g5
F194.15277938359017
sg6
I1
sg7
I2
sg8
(iTFClasses
function
p2099
(dp2100
g13
(lp2101
F196.1593230765739
aF171.68093771193588
aF18.098273482246928
asg15
(lp2102
sg11
(lp2103
F5.803447898738127
aF0.4170408287555621
aF0.3734713442208285
asg1201
I01
sg1202
g19
sg23
g1203
sg25
(lp2104
g27
ag1205
ag1206
asg1207
g34
sbsg36
(lp2105
F1.5
aF2.5
asg38
I58
sg39
g1192
sg40
I54
sa(dp2106
g5
F207.3565937539038
sg6
I1
sg7
I2
sg8
(iTFClasses
function
p2107
(dp2108
g13
(lp2109
F205.0824816995411
aF183.98323246892946
aF19.2214573571538
asg15
(lp2110
sg11
(lp2111
F5.950478547714803
aF0.456692974697398
aF0.4028468260309394
asg1201
I01
sg1202
g19
sg23
g1203
sg25
(lp2112
g27
ag1205
ag1206
asg1207
g34
sbsg36
(lp2113
F1.5
aF2.5
asg38
I58
sg39
g1192
sg40
I55
sa(dp2114
g5
F226.44173741411618
sg6
I1
sg7
I2
sg8
(iTFClasses
function
p2115
(dp2116
g13
(lp2117
F205.12138278651648
aF200.56830846713254
aF21.752086888201966
asg15
(lp2118
sg11
(lp2119
F5.684940808437345
aF0.49107638006550236
aF0.4021524290289862
asg1201
I01
sg1202
g19
sg23
g1203
sg25
(lp2120
g27
ag1205
ag1206
asg1207
g34
sbsg36
(lp2121
F1.5
aF2.5
asg38
I58
sg39
g1192
sg40
I56
sa(dp2122
g5
F263.2603900062461
sg6
I1
sg7
I2
sg8
(iTFClasses
function
p2123
(dp2124
g13
(lp2125
F203.79705179707022
aF232.7578356757203
aF27.758064133242897
asg15
(lp2126
sg11
(lp2127
F5.4552265188814095
aF0.5816466673964473
aF0.4818503171050045
asg1201
I01
sg1202
g19
sg23
g1203
sg25
(lp2128
g27
ag1205
ag1206
asg1207
g34
sbsg36
(lp2129
F1.5
aF2.5
asg38
I58
sg39
g1192
sg40
I57
saas.