(dp0
S'b'
p1
(lp2
(iTFClasses
TF
p3
(dp4
S'SingleBinFunc'
p5
(iTFClasses
function
p6
(dp7
S'DG_rel_weight'
p8
F0.7
sS'par_values'
p9
(lp10
F718.2506882610611
aF32.22285059172392
aF6.539867095212704
aF2.1519785953216797e-08
aF18.161360760443834
asS'abspars'
p11
(lp12
I1
aI2
aI3
aI4
asS'DG_mean'
p13
(lp14
S'[1]'
p15
aS'[3]'
p16
asS'par_errors'
p17
(lp18
F13.042410976258454
aF0.33440613696922306
aF0.2059135863645145
aF0.5054585559694513
aF0.4334701132373553
asS'Is_DG'
p19
I01
sS'str'
p20
S'[0]*(0.7*exp(-0.5*((x-([1]))/([2]))**2)+(1-0.7)*exp(-0.5*((x-([3]))/([2]+[4]))**2))'
p21
sS'par_initials'
p22
(lp23
S'0'
p24
aS'1.2*mean'
p25
aS'0.5*rms'
p26
aS'0.8*mean'
p27
aS'1.0*rms'
p28
asS'DG_rms'
p29
(lp30
S'[2]'
p31
aS'[2]+[4]'
p32
asbsS'i_eta'
p33
I0
sS'particle'
p34
g1
sS'AcrossBinFuncs'
p35
(lp36
(iTFClasses
function
p37
(dp38
g17
(lp39
sg9
(lp40
sg11
(lp41
sg20
S'1'
p42
sg22
(lp43
sba(iTFClasses
function
p44
(dp45
g17
(lp46
F0.11692133828368338
aF0.0009523892901887682
asg9
(lp47
F-4.013527716199151
aF0.9139328570969064
asg11
(lp48
sg20
S'[0]+[1]*x'
p49
sg22
(lp50
S'0'
p51
ag42
asba(iTFClasses
function
p52
(dp53
g17
(lp54
F3.8953147367927605
aF0.009292305600034197
aF0.0018675447619049914
asg9
(lp55
F1.4341782286062823e-05
aF0.9145674952064738
aF0.03423594619729073
asg11
(lp56
sg20
S'sqrt([0]*[0] + x*[1]*[1] + x*x*[2]*[2])'
p57
sg22
(lp58
g51
ag51
ag51
asba(iTFClasses
function
p59
(dp60
g17
(lp61
F0.2219719336971082
aF0.001770484698572573
asg9
(lp62
F-0.6633304688782498
aF0.8038491143630399
asg11
(lp63
sg20
g49
sg22
(lp64
g51
ag42
asba(iTFClasses
function
p65
(dp66
g17
(lp67
F7.209612997758422
aF0.03531899801182845
aF0.0017495126437730222
asg9
(lp68
F-1.367155690133879e-05
aF0.39324115355842026
aF-0.05994968991076621
asg11
(lp69
sg20
g57
sg22
(lp70
g51
ag51
ag51
asbasba(iTFClasses
TF
p71
(dp72
g5
(iTFClasses
function
p73
(dp74
g8
F0.7
sg9
(lp75
F146.67148766993054
aF31.43832047255235
aF6.002725915759455
aF5.392490898259439e-07
aF17.474332064743912
asg11
(lp76
I1
aI2
aI3
aI4
asg13
(lp77
g15
ag16
asg17
(lp78
F6.8983791445708045
aF0.7992897124099443
aF0.4725745044866225
aF2.8510273430800703
aF1.008729416922483
asg19
I01
sg20
g21
sg22
(lp79
g24
ag25
ag26
ag27
ag28
asg29
(lp80
g31
ag32
asbsg33
I1
sg34
g1
sg35
(lp81
(iTFClasses
function
p82
(dp83
g17
(lp84
sg9
(lp85
sg11
(lp86
sg20
g42
sg22
(lp87
sba(iTFClasses
function
p88
(dp89
g17
(lp90
F0.1576848459041976
aF0.001531953573890287
asg9
(lp91
F-6.535811645758172
aF0.9087427620559214
asg11
(lp92
sg20
g49
sg22
(lp93
g51
ag42
asba(iTFClasses
function
p94
(dp95
g17
(lp96
F1.0204471318292432
aF0.15006526351958063
aF0.00688045028974942
asg9
(lp97
F4.523979295308846
aF0.5958947859442607
aF0.05674138321328549
asg11
(lp98
sg20
g57
sg22
(lp99
g51
ag51
ag51
asba(iTFClasses
function
p100
(dp101
g17
(lp102
F0.5770180620277408
aF0.004928083828664827
asg9
(lp103
F-0.4792408248692395
aF0.789050395765615
asg11
(lp104
sg20
g49
sg22
(lp105
g51
ag42
asba(iTFClasses
function
p106
(dp107
g17
(lp108
F0.4611067367217789
aF0.21609175343098422
aF0.0027931589241524625
asg9
(lp109
F-4.4596944873719275
aF3.936484787844197e-06
aF0.055749074915120884
asg11
(lp110
sg20
g57
sg22
(lp111
g51
ag51
ag51
asbasbasS'l'
p112
(lp113
(iTFClasses
TF
p114
(dp115
g5
(iTFClasses
function
p116
(dp117
g9
(lp118
F2151.1046658823147
aF19.804093584162985
aF10.493493387203015
asg11
(lp119
sg17
(lp120
F324.73298347563775
aF2.0633015420626752
aF0.6214001787180586
asS'Is_SG'
p121
I01
sS'SG_mean'
p122
g15
sg20
S'[0]*exp(-0.5*((x-([1]))/([2]))**2)'
p123
sg22
(lp124
g24
aS'mean'
p125
aS'rms'
p126
asS'SG_rms'
p127
g31
sbsg33
I0
sg34
g112
sg35
(lp128
(iTFClasses
function
p129
(dp130
g17
(lp131
sg9
(lp132
sg11
(lp133
sg20
g42
sg22
(lp134
sba(iTFClasses
function
p135
(dp136
g17
(lp137
F0.038635117305995254
aF0.00040227499267587617
asg9
(lp138
F-1.612637251587033
aF0.9037595982390101
asg11
(lp139
sg20
g49
sg22
(lp140
g51
ag42
asba(iTFClasses
function
p141
(dp142
g17
(lp143
F0.19390253084312262
aF0.004307196855427319
aF0.0006889520675145003
asg9
(lp144
F-1.917029201316389e-12
aF1.1253423136334002
aF0.06456091034920187
asg11
(lp145
sg20
g57
sg22
(lp146
g51
ag51
ag51
asbasba(iTFClasses
TF
p147
(dp148
g5
(iTFClasses
function
p149
(dp150
g9
(lp151
F195.2905166130283
aF29.038844268317682
aF6.917106716395093
asg11
(lp152
sg17
(lp153
F11.468588174294563
aF0.9960898476459956
aF0.4766687815152141
asg121
I01
sg122
g15
sg20
g123
sg22
(lp154
g24
ag125
ag126
asg127
g31
sbsg33
I1
sg34
g112
sg35
(lp155
(iTFClasses
function
p156
(dp157
g17
(lp158
sg9
(lp159
sg11
(lp160
sg20
g42
sg22
(lp161
sba(iTFClasses
function
p162
(dp163
g17
(lp164
F0.08577045014003806
aF0.0009391346465963272
asg9
(lp165
F-2.1362592529188555
aF0.8946377760024434
asg11
(lp166
sg20
g49
sg22
(lp167
g51
ag42
asba(iTFClasses
function
p168
(dp169
g17
(lp170
F0.2728042124158372
aF0.009792110226880549
aF0.0016175348123554144
asg9
(lp171
F-6.47500899524798e-06
aF1.0368633426400198
aF0.06155598790524698
asg11
(lp172
sg20
g57
sg22
(lp173
g51
ag51
ag51
asbasbas.