(dp0
S'Use_limited_entries'
p1
I00
sS'events_used'
p2
I33888960
sS'quark_Flavour_str'
p3
S'Quark_pdgId'
p4
sS'mc_Pt_str'
p5
S'Jet_mcPt'
p6
sS'DG_rel_weight'
p7
F0.7
sS'SBF_n_bins'
p8
(dp9
S'b'
p10
(lp11
(lp12
I100
aI100
aI100
aI100
aI100
aI100
aI100
aI100
aI100
aI100
aI100
aI100
aI100
aI100
aI100
aI100
aI100
aI100
aI100
aI100
aI100
aI100
aI100
aI100
aI100
aI100
aI100
aI100
aI100
aI100
aI100
aI100
aI100
aI100
aI100
aI100
aI100
aI100
aI100
aI100
aI100
aI100
aI100
aI100
aI100
aI100
aI100
aI100
aI100
aI100
aI100
aI100
aI100
aI100
aI100
aI100
aI100
aI100
aa(lp13
I100
aI100
aI100
aI100
aI100
aI100
aI100
aI100
aI100
aI100
aI100
aI100
aI100
aI100
aI100
aI100
aI100
aI100
aI100
aI100
aI100
aI100
aI100
aI100
aI100
aI100
aI100
aI100
aI100
aI100
aI100
aI100
aI100
aI100
aI100
aI100
aI100
aI100
aI100
aI100
aI100
aI100
aI100
aI100
aI100
aI100
aI100
aI100
aI100
aI100
aI100
aI100
aI100
aI100
aI100
aI100
aI100
aI100
aasS'l'
p14
(lp15
(lp16
I100
aI100
aI100
aI100
aI100
aI100
aI100
aI100
aI100
aI100
aI100
aI100
aI100
aI100
aI100
aI100
aI100
aI100
aI100
aI100
aI100
aI100
aI100
aI100
aI100
aI100
aI100
aI100
aI100
aI100
aI100
aI100
aI100
aI100
aI100
aI100
aI100
aI100
aI100
aI100
aI100
aI100
aI100
aI100
aI100
aI100
aI100
aI100
aI100
aI100
aI100
aI100
aI100
aI100
aI100
aI100
aI100
aI100
aa(lp17
I100
aI100
aI100
aI100
aI100
aI100
aI100
aI100
aI100
aI100
aI100
aI100
aI100
aI100
aI100
aI100
aI100
aI100
aI100
aI100
aI100
aI100
aI100
aI100
aI100
aI100
aI100
aI100
aI100
aI100
aI100
aI100
aI100
aI100
aI100
aI100
aI100
aI100
aI100
aI100
aI100
aI100
aI100
aI100
aI100
aI100
aI100
aI100
aI100
aI100
aI100
aI100
aI100
aI100
aI100
aI100
aI100
aI100
aassS'selection_string'
p18
(dp19
g10
S'abs(Quark_pdgId)==5 && abs(Quark_eta)>=1.5 && abs(Quark_eta)<=2.5 && abs(Quark_pt)>=30.0 && abs(Quark_pt)<=300.0'
p20
sg14
S'abs(Quark_pdgId)!=5 && abs(Quark_eta)>=1.5 && abs(Quark_eta)<=2.5 && abs(Quark_pt)>=30.0 && abs(Quark_pt)<=300.0'
p21
ssS'Draw_ABF_in_single_bins'
p22
I01
sS'reco_Pt_str'
p23
S'Jet_pt'
p24
sS'outputdir'
p25
S'V11_full_TF_jets_0.3delR'
p26
sS'quark_Phi_str'
p27
S'Quark_phi'
p28
sS'n_E_hist_bins'
p29
I50000
sS'input_root_file_name'
p30
S'/scratch/tklijnsm/V11_full_jets_0.3delR.root'
p31
sS'input_tree_name'
p32
S'tree'
p33
sS'particles'
p34
(lp35
g10
ag14
asS'E_bounds'
p36
(lp37
F30.0
aF300.0
asS'mc_Eta_str'
p38
S'Jet_mcEta'
p39
sS'mc_Flavour_str'
p40
S'Jet_mcFlavour'
p41
sS'ABFunctions'
p42
(dp43
g10
(lp44
(iTFClasses
function
p45
(dp46
S'par_errors'
p47
(lp48
sS'par_values'
p49
(lp50
sS'abspars'
p51
(lp52
sS'str'
p53
S'1'
p54
sS'par_initials'
p55
(lp56
sba(iTFClasses
function
p57
(dp58
g47
(lp59
sg49
(lp60
sg51
g52
sg53
S'[0]+[1]*x'
p61
sg55
(lp62
S'0'
p63
ag54
asba(iTFClasses
function
p64
(dp65
g47
(lp66
sg49
(lp67
sg51
g52
sg53
S'sqrt([0]*[0] + x*[1]*[1] + x*x*[2]*[2])'
p68
sg55
(lp69
g63
ag63
ag63
asba(iTFClasses
function
p70
(dp71
g47
(lp72
sg49
(lp73
sg51
g52
sg53
g61
sg55
(lp74
g63
ag54
asba(iTFClasses
function
p75
(dp76
g47
(lp77
sg49
(lp78
sg51
g52
sg53
g68
sg55
(lp79
g63
ag63
ag63
asbasg14
(lp80
(iTFClasses
function
p81
(dp82
g47
(lp83
sg49
(lp84
sg51
g52
sg53
g54
sg55
g56
sba(iTFClasses
function
p85
(dp86
g47
(lp87
sg49
(lp88
sg51
g52
sg53
g61
sg55
(lp89
g63
ag54
asba(iTFClasses
function
p90
(dp91
g47
(lp92
sg49
(lp93
sg51
g52
sg53
g68
sg55
(lp94
g63
ag63
ag63
asbassS'quark_E_str'
p95
S'Quark_pt'
p96
sS'reco_Phi_str'
p97
S'Jet_phi'
p98
sS'eta_axis'
p99
(lp100
F0.0
aF1.5
aF2.5
asS'n_entries_limited'
p101
I50000
sS'quark_Pt_str'
p102
g96
sS'SBF_plot_ranges'
p103
(dp104
g10
(lp105
(lp106
(lp107
I0
aF71.0376
aa(lp108
I0
aF77.1828
aa(lp109
I0
aF81.9888
aa(lp110
I0
aF86.1252
aa(lp111
I0
aF89.862
aa(lp112
I0
aF93.2964
aa(lp113
I0
aF96.55799999999999
aa(lp114
I0
aF99.67920000000001
aa(lp115
I0
aF102.69239999999999
aa(lp116
I0
aF105.6192
aa(lp117
I0
aF108.492
aa(lp118
I0
aF111.3216
aa(lp119
I0
aF114.108
aa(lp120
I0
aF116.87280000000001
aa(lp121
I0
aF119.616
aa(lp122
I0
aF122.3592
aa(lp123
I0
aF125.1024
aa(lp124
I0
aF127.8348
aa(lp125
I0
aF130.578
aa(lp126
I0
aF133.332
aa(lp127
I0
aF136.1076
aa(lp128
I0
aF138.90480000000002
aa(lp129
I0
aF141.7344
aa(lp130
I0
aF144.6072
aa(lp131
I0
aF147.5124
aa(lp132
I0
aF150.4608
aa(lp133
I0
aF153.4632
aa(lp134
I0
aF156.5304
aa(lp135
I0
aF159.6516
aa(lp136
I0
aF162.84840000000003
aa(lp137
I0
aF166.1208
aa(lp138
I0
aF169.4796
aa(lp139
I0
aF172.93560000000002
aa(lp140
I0
aF176.478
aa(lp141
I0
aF180.1608
aa(lp142
I0
aF183.97320000000002
aa(lp143
I0
aF187.926
aa(lp144
I0
aF192.04080000000002
aa(lp145
I0
aF196.3176
aa(lp146
I0
aF200.7996
aa(lp147
I0
aF205.4976
aa(lp148
I0
aF210.4548
aa(lp149
I0
aF215.7036
aa(lp150
I0
aF221.2872
aa(lp151
I0
aF227.24880000000002
aa(lp152
I0
aF233.6964
aa(lp153
I0
aF240.6516
aa(lp154
I0
aF248.2116
aa(lp155
I0
aF256.5708
aa(lp156
I0
aF265.9236
aa(lp157
I0
aF276.5076
aa(lp158
I0
aF288.7116
aa(lp159
I0
aF303.16200000000003
aa(lp160
I0
aF320.88480000000004
aa(lp161
I0
aF343.6836
aa(lp162
I0
aF375.8892
aa(lp163
I0
aF429.7164
aa(lp164
I0
aF600.0
aaa(lp165
(lp166
I0
aF68.89920000000001
aa(lp167
I0
aF74.4828
aa(lp168
I0
aF78.9216
aa(lp169
I0
aF82.73400000000001
aa(lp170
I0
aF86.17920000000001
aa(lp171
I0
aF89.3652
aa(lp172
I0
aF92.4
aa(lp173
I0
aF95.2944
aa(lp174
I0
aF98.0592
aa(lp175
I0
aF100.75919999999999
aa(lp176
I0
aF103.40520000000001
aa(lp177
I0
aF106.0188
aa(lp178
I0
aF108.6
aa(lp179
I0
aF111.138
aa(lp180
I0
aF113.6652
aa(lp181
I0
aF116.1816
aa(lp182
I0
aF118.7088
aa(lp183
I0
aF121.2252
aa(lp184
I0
aF123.76320000000001
aa(lp185
I0
aF126.30120000000001
aa(lp186
I0
aF128.86079999999998
aa(lp187
I0
aF131.4204
aa(lp188
I0
aF134.0124
aa(lp189
I0
aF136.6476
aa(lp190
I0
aF139.32600000000002
aa(lp191
I0
aF142.026
aa(lp192
I0
aF144.78
aa(lp193
I0
aF147.5772
aa(lp194
I0
aF150.4392
aa(lp195
I0
aF153.35520000000002
aa(lp196
I0
aF156.3576
aa(lp197
I0
aF159.4464
aa(lp198
I0
aF162.60000000000002
aa(lp199
I0
aF165.8616
aa(lp200
I0
aF169.1988
aa(lp201
I0
aF172.6764
aa(lp202
I0
aF176.2512
aa(lp203
I0
aF179.9556
aa(lp204
I0
aF183.822
aa(lp205
I0
aF187.8936
aa(lp206
I0
aF192.12720000000002
aa(lp207
I0
aF196.57680000000002
aa(lp208
I0
aF201.2964
aa(lp209
I0
aF206.29680000000002
aa(lp210
I0
aF211.6428
aa(lp211
I0
aF217.356
aa(lp212
I0
aF223.5444
aa(lp213
I0
aF230.2836
aa(lp214
I0
aF237.6708
aa(lp215
I0
aF245.90040000000002
aa(lp216
I0
aF255.23160000000001
aa(lp217
I0
aF265.97760000000005
aa(lp218
I0
aF278.646
aa(lp219
I0
aF294.2088
aa(lp220
I0
aF314.2428
aa(lp221
I0
aF342.636
aa(lp222
I0
aF390.91200000000003
aa(lp223
I0
aF600.0
aaasg14
(lp224
(lp225
(lp226
I0
aF64.536
aa(lp227
I0
aF68.1216
aa(lp228
I0
aF71.232
aa(lp229
I0
aF74.0616
aa(lp230
I0
aF76.7184
aa(lp231
I0
aF79.2348
aa(lp232
I0
aF81.6648
aa(lp233
I0
aF84.03
aa(lp234
I0
aF86.3412
aa(lp235
I0
aF88.62
aa(lp236
I0
aF90.8772
aa(lp237
I0
aF93.1128
aa(lp238
I0
aF95.3484
aa(lp239
I0
aF97.584
aa(lp240
I0
aF99.81960000000001
aa(lp241
I0
aF102.066
aa(lp242
I0
aF104.3232
aa(lp243
I0
aF106.602
aa(lp244
I0
aF108.9024
aa(lp245
I0
aF111.2352
aa(lp246
I0
aF113.6112
aa(lp247
I0
aF116.0196
aa(lp248
I0
aF118.46039999999999
aa(lp249
I0
aF120.9444
aa(lp250
I0
aF123.48240000000001
aa(lp251
I0
aF126.06360000000001
aa(lp252
I0
aF128.72039999999998
aa(lp253
I0
aF131.442
aa(lp254
I0
aF134.2176
aa(lp255
I0
aF137.0904
aa(lp256
I0
aF140.0388
aa(lp257
I0
aF143.08440000000002
aa(lp258
I0
aF146.2272
aa(lp259
I0
aF149.4672
aa(lp260
I0
aF152.8368
aa(lp261
I0
aF156.336
aa(lp262
I0
aF159.9756
aa(lp263
I0
aF163.788
aa(lp264
I0
aF167.784
aa(lp265
I0
aF171.98520000000002
aa(lp266
I0
aF176.38080000000002
aa(lp267
I0
aF181.0464
aa(lp268
I0
aF185.9928
aa(lp269
I0
aF191.274
aa(lp270
I0
aF196.91160000000002
aa(lp271
I0
aF202.99200000000002
aa(lp272
I0
aF209.6124
aa(lp273
I0
aF216.85920000000002
aa(lp274
I0
aF224.8836
aa(lp275
I0
aF233.8476
aa(lp276
I0
aF244.032
aa(lp277
I0
aF255.78240000000002
aa(lp278
I0
aF269.7792
aa(lp279
I0
aF286.9836
aa(lp280
I0
aF309.2748
aa(lp281
I0
aF340.91880000000003
aa(lp282
I0
aF394.9728
aa(lp283
I0
aF600.0
aaa(lp284
(lp285
I0
aF63.7152
aa(lp286
I0
aF66.8256
aa(lp287
I0
aF69.6228
aa(lp288
I0
aF72.1932
aa(lp289
I0
aF74.61240000000001
aa(lp290
I0
aF76.9128
aa(lp291
I0
aF79.116
aa(lp292
I0
aF81.2868
aa(lp293
I0
aF83.4036
aa(lp294
I0
aF85.488
aa(lp295
I0
aF87.5616
aa(lp296
I0
aF89.6136
aa(lp297
I0
aF91.6656
aa(lp298
I0
aF93.7176
aa(lp299
I0
aF95.7696
aa(lp300
I0
aF97.8216
aa(lp301
I0
aF99.906
aa(lp302
I0
aF101.9904
aa(lp303
I0
aF104.1072
aa(lp304
I0
aF106.2456
aa(lp305
I0
aF108.40559999999999
aa(lp306
I0
aF110.6088
aa(lp307
I0
aF112.84440000000001
aa(lp308
I0
aF115.1232
aa(lp309
I0
aF117.456
aa(lp310
I0
aF119.84280000000001
aa(lp311
I0
aF122.2728
aa(lp312
I0
aF124.74600000000001
aa(lp313
I0
aF127.29480000000001
aa(lp314
I0
aF129.93
aa(lp315
I0
aF132.63
aa(lp316
I0
aF135.4164
aa(lp317
I0
aF138.2784
aa(lp318
I0
aF141.2484
aa(lp319
I0
aF144.31560000000002
aa(lp320
I0
aF147.5232
aa(lp321
I0
aF150.8496
aa(lp322
I0
aF154.3164
aa(lp323
I0
aF157.9452
aa(lp324
I0
aF161.7468
aa(lp325
I0
aF165.76440000000002
aa(lp326
I0
aF169.9872
aa(lp327
I0
aF174.48000000000002
aa(lp328
I0
aF179.232
aa(lp329
I0
aF184.32960000000003
aa(lp330
I0
aF189.8484
aa(lp331
I0
aF195.82080000000002
aa(lp332
I0
aF202.344
aa(lp333
I0
aF209.5584
aa(lp334
I0
aF217.5936
aa(lp335
I0
aF226.68720000000002
aa(lp336
I0
aF237.1848
aa(lp337
I0
aF249.6048
aa(lp338
I0
aF264.9408
aa(lp339
I0
aF284.7804
aa(lp340
I0
aF312.94680000000005
aa(lp341
I0
aF361.6332
aa(lp342
I0
aF600.0
aaassS'date'
p343
S'2015-04-11 17:19:21'
p344
sS'enddate'
p345
S'2015-04-11 18:25:14'
p346
sS'quark_Eta_str'
p347
S'Quark_eta'
p348
sS'n_total_events'
p349
L70660475L
sS'info'
p350
S'*** Information on this config.dat ***\nThis config file contains the input parameters (and some output parameters) used in the creation of TFMat.dat, the matrix of transfer functions. \n\nSome html-overviews are produced in the output directory.\n\n This config.dat was created on: 2015-04-11 17:19:21'
p351
sS'E_or_Pt_str'
p352
S'Pt'
p353
sS'Use_mc_values'
p354
I00
sS'E_value_mean_or_center'
p355
S'm'
p356
sS'reco_E_str'
p357
g24
sS'SBF_pickle_filename'
p358
S'V11_full_TF_jets_0.3delR/pickleSBFfitdata.dat'
p359
sS'reco_Eta_str'
p360
S'Jet_eta'
p361
sS'mc_Phi_str'
p362
S'Jet_mcPhi'
p363
sS'bin_functions'
p364
(dp365
g10
(lp366
(iTFClasses
function
p367
(dp368
S'DG_rel_weight'
p369
F0.7
sg49
(lp370
sg51
(lp371
I1
aI2
aI3
aI4
asS'DG_mean'
p372
(lp373
S'[1]'
p374
aS'[3]'
p375
asg47
(lp376
sS'Is_DG'
p377
I01
sg53
S'[0]*(0.7*exp(-0.5*((x-([1]))/([2]))**2)+(1-0.7)*exp(-0.5*((x-([3]))/([2]+[4]))**2))'
p378
sg55
(lp379
g63
aS'1.2*mean'
p380
aS'0.5*rms'
p381
aS'0.8*mean'
p382
aS'1.0*rms'
p383
asS'DG_rms'
p384
(lp385
S'[2]'
p386
aS'[2]+[4]'
p387
asbag367
asg14
(lp388
(iTFClasses
function
p389
(dp390
g49
(lp391
sg51
g52
sg47
(lp392
sS'Is_SG'
p393
I01
sS'SG_mean'
p394
g374
sg53
S'[0]*exp(-0.5*((x-([1]))/([2]))**2)'
p395
sg55
(lp396
g63
aS'mean'
p397
aS'rms'
p398
asS'SG_rms'
p399
g386
sbag389
assS'n_E_bins'
p400
I58
sS'mc_E_str'
p401
g6
sS'Use_Pt'
p402
I01
s.