(dp0
S'b'
p1
(lp2
(iTFClasses
TF
p3
(dp4
S'SingleBinFunc'
p5
(iTFClasses
function
p6
(dp7
S'DG_rel_weight'
p8
F0.7
sS'par_values'
p9
(lp10
F19115.732733050896
aF30.623549655634076
aF5.841154832810447
aF3.6914915568786455e-10
aF19.057868332969186
asS'abspars'
p11
(lp12
I1
aI2
aI3
aI4
asS'DG_mean'
p13
(lp14
S'[1]'
p15
aS'[3]'
p16
asS'par_errors'
p17
(lp18
F85.66822406729446
aF0.07650867442104925
aF0.04347960864276024
aF0.1843392676212363
aF0.08323290727102517
asS'Is_DG'
p19
I01
sS'str'
p20
S'[0]*(0.7*exp(-0.5*((x-([1]))/([2]))**2)+(1-0.7)*exp(-0.5*((x-([3]))/([2]+[4]))**2))'
p21
sS'par_initials'
p22
(lp23
S'0'
p24
aS'1.2*mean'
p25
aS'0.5*rms'
p26
aS'0.8*mean'
p27
aS'1.0*rms'
p28
asS'DG_rms'
p29
(lp30
S'[2]'
p31
aS'[2]+[4]'
p32
asbsS'i_eta'
p33
I0
sS'particle'
p34
g1
sS'AcrossBinFuncs'
p35
(lp36
(iTFClasses
function
p37
(dp38
g17
(lp39
sg9
(lp40
sg11
(lp41
sg20
S'1'
p42
sg22
(lp43
sba(iTFClasses
function
p44
(dp45
g17
(lp46
F0.017162276340142054
aF0.00022574500075561428
asg9
(lp47
F-4.371058065889983
aF1.0118584740779077
asg11
(lp48
sg20
S'[0]+[1]*x'
p49
sg22
(lp50
S'0'
p51
ag42
asba(iTFClasses
function
p52
(dp53
g17
(lp54
F0.07440180295670888
aF0.0018855749608436814
aF0.0005305012372919706
asg9
(lp55
F-4.384006532805656e-06
aF1.0730605645746738
aF0.04477615948623316
asg11
(lp56
sg20
S'sqrt([0]*[0] + x*[1]*[1] + x*x*[2]*[2])'
p57
sg22
(lp58
g51
ag51
ag51
asba(iTFClasses
function
p59
(dp60
g17
(lp61
F0.04250027747381186
aF0.00048159702652206374
asg9
(lp62
F-38.058083367842855
aF1.2086957598317511
asg11
(lp63
sg20
g49
sg22
(lp64
g51
ag42
asba(iTFClasses
function
p65
(dp66
g17
(lp67
F0.020616361800915837
aF0.008343409235602691
aF0.0003052018986249636
asg9
(lp68
F9.098205826105847
aF-2.931205601325647e-11
aF0.0725503435959036
asg11
(lp69
sg20
g57
sg22
(lp70
g51
ag51
ag51
asbasba(iTFClasses
TF
p71
(dp72
g5
(iTFClasses
function
p73
(dp74
g8
F0.7
sg9
(lp75
F13380.98933461772
aF1363.2347695195667
aF0.015822286661415497
aF27.30365465222895
aF9.265527981287658
asg11
(lp76
I1
aI2
aI3
aI4
asg13
(lp77
g15
ag16
asg17
(lp78
F57.382960538645165
aF1439.7464774514333
aF0.02253195638957095
aF0.03572605411883423
aF0.02253320067563447
asg19
I01
sg20
g21
sg22
(lp79
g24
ag25
ag26
ag27
ag28
asg29
(lp80
g31
ag32
asbsg33
I1
sg34
g1
sg35
(lp81
(iTFClasses
function
p82
(dp83
g17
(lp84
sg9
(lp85
sg11
(lp86
sg20
g42
sg22
(lp87
sba(iTFClasses
function
p88
(dp89
g17
(lp90
F0.04293906026370355
aF0.0005408409248175698
asg9
(lp91
F-5.750853523335728
aF1.019935695563775
asg11
(lp92
sg20
g49
sg22
(lp93
g51
ag42
asba(iTFClasses
function
p94
(dp95
g17
(lp96
F0.19084206364356046
aF0.00392689502220468
aF0.0030917645498990767
asg9
(lp97
F-2.1323882609611835e-09
aF1.1860859939617294
aF0.017846952916371193
asg11
(lp98
sg20
g57
sg22
(lp99
g51
ag51
ag51
asba(iTFClasses
function
p100
(dp101
g17
(lp102
F0.11483322009638387
aF0.0012449066892080722
asg9
(lp103
F-7.1266490059987
aF0.904414137570517
asg11
(lp104
sg20
g49
sg22
(lp105
g51
ag42
asba(iTFClasses
function
p106
(dp107
g17
(lp108
F0.049785260039217245
aF0.016840356045579905
aF0.0005353340862753413
asg9
(lp109
F6.0857828900699
aF2.342632921377255e-08
aF0.08189063790970567
asg11
(lp110
sg20
g57
sg22
(lp111
g51
ag51
ag51
asbasbasS'l'
p112
(lp113
(iTFClasses
TF
p114
(dp115
g5
(iTFClasses
function
p116
(dp117
g9
(lp118
F19760.241371933895
aF24.05170586929368
aF10.104440742878372
asg11
(lp119
sg17
(lp120
F325.80968818095874
aF0.28873311806117286
aF0.10886526651097485
asS'Is_SG'
p121
I01
sS'SG_mean'
p122
g15
sg20
S'[0]*exp(-0.5*((x-([1]))/([2]))**2)'
p123
sg22
(lp124
g24
aS'mean'
p125
aS'rms'
p126
asS'SG_rms'
p127
g31
sbsg33
I0
sg34
g112
sg35
(lp128
(iTFClasses
function
p129
(dp130
g17
(lp131
sg9
(lp132
sg11
(lp133
sg20
g42
sg22
(lp134
sba(iTFClasses
function
p135
(dp136
g17
(lp137
F0.010122297333080421
aF0.00014689573773949094
asg9
(lp138
F-1.1664720368259636
aF0.9874428907076612
asg11
(lp139
sg20
g49
sg22
(lp140
g51
ag42
asba(iTFClasses
function
p141
(dp142
g17
(lp143
F0.042347832050756734
aF0.0015216550015468755
aF0.00019603788265188103
asg9
(lp144
F1.677751947088496e-12
aF1.1262549318939388
aF0.11058584993646606
asg11
(lp145
sg20
g57
sg22
(lp146
g51
ag51
ag51
asbasba(iTFClasses
TF
p147
(dp148
g5
(iTFClasses
function
p149
(dp150
g9
(lp151
F7965.227128545754
aF17.525489735553982
aF12.497178124575758
asg11
(lp152
sg17
(lp153
F469.2672638673932
aF0.9138575230183067
aF0.2650107327114483
asg121
I01
sg122
g15
sg20
g123
sg22
(lp154
g24
ag125
ag126
asg127
g31
sbsg33
I1
sg34
g112
sg35
(lp155
(iTFClasses
function
p156
(dp157
g17
(lp158
sg9
(lp159
sg11
(lp160
sg20
g42
sg22
(lp161
sba(iTFClasses
function
p162
(dp163
g17
(lp164
F0.02123252206600126
aF0.00031245875999442123
asg9
(lp165
F-0.21948496909387688
aF0.9790627332967237
asg11
(lp166
sg20
g49
sg22
(lp167
g51
ag42
asba(iTFClasses
function
p168
(dp169
g17
(lp170
F0.07877128827823188
aF0.0028133120586282152
aF0.0005442336059393155
asg9
(lp171
F7.782595025973726e-13
aF1.2717160786152806
aF0.08905665138837297
asg11
(lp172
sg20
g57
sg22
(lp173
g51
ag51
ag51
asbasbas.