(dp0
S'Use_limited_entries'
p1
I00
sS'events_used'
p2
I1300482
sS'quark_Flavour_str'
p3
S'Quark_pdgId'
p4
sS'mc_Pt_str'
p5
S'Jet_mcPt'
p6
sS'DG_rel_weight'
p7
F0.7
sS'SBF_n_bins'
p8
(dp9
S'b'
p10
(lp11
(lp12
I100
aI100
aI100
aI100
aI100
aI100
aI100
aI100
aI100
aI100
aI100
aI100
aI100
aI100
aI100
aI100
aI100
aI100
aI100
aI100
aI100
aI100
aI100
aI100
aI100
aI100
aI100
aI100
aI100
aI100
aI100
aI100
aI100
aI100
aI100
aI100
aI100
aI100
aI100
aI100
aI100
aI100
aI100
aI100
aI100
aI100
aI100
aI100
aI100
aI100
aI100
aI100
aI100
aI100
aI100
aI100
aI100
aI100
aa(lp13
I100
aI100
aI100
aI100
aI100
aI100
aI100
aI100
aI100
aI100
aI100
aI100
aI100
aI100
aI100
aI100
aI100
aI100
aI100
aI100
aI100
aI100
aI100
aI100
aI100
aI100
aI100
aI100
aI100
aI100
aI100
aI100
aI100
aI100
aI100
aI100
aI100
aI100
aI100
aI100
aI100
aI100
aI100
aI100
aI100
aI100
aI100
aI100
aI100
aI100
aI100
aI100
aI100
aI100
aI100
aI100
aI100
aI100
aasS'l'
p14
(lp15
(lp16
I100
aI100
aI100
aI100
aI100
aI100
aI100
aI100
aI100
aI100
aI100
aI100
aI100
aI100
aI100
aI100
aI100
aI100
aI100
aI100
aI100
aI100
aI100
aI100
aI100
aI100
aI100
aI100
aI100
aI100
aI100
aI100
aI100
aI100
aI100
aI100
aI100
aI100
aI100
aI100
aI100
aI100
aI100
aI100
aI100
aI100
aI100
aI100
aI100
aI100
aI100
aI100
aI100
aI100
aI100
aI100
aI100
aI100
aa(lp17
I100
aI100
aI100
aI100
aI100
aI100
aI100
aI100
aI100
aI100
aI100
aI100
aI100
aI100
aI100
aI100
aI100
aI100
aI100
aI100
aI100
aI100
aI100
aI100
aI100
aI100
aI100
aI100
aI100
aI100
aI100
aI100
aI100
aI100
aI100
aI100
aI100
aI100
aI100
aI100
aI100
aI100
aI100
aI100
aI100
aI100
aI100
aI100
aI100
aI100
aI100
aI100
aI100
aI100
aI100
aI100
aI100
aI100
aassS'selection_string'
p18
(dp19
g10
S'abs(Quark_pdgId)==5 && abs(Quark_eta)>=1.5 && abs(Quark_eta)<=2.5 && abs(Quark_pt)>=30.0 && abs(Quark_pt)<=300.0'
p20
sg14
S'abs(Quark_pdgId)!=5 && abs(Quark_eta)>=1.5 && abs(Quark_eta)<=2.5 && abs(Quark_pt)>=30.0 && abs(Quark_pt)<=300.0'
p21
ssS'Draw_ABF_in_single_bins'
p22
I01
sS'reco_Pt_str'
p23
S'Jet_pt'
p24
sS'outputdir'
p25
S'V11_full_TF_subjets_5delR'
p26
sS'quark_Phi_str'
p27
S'Quark_phi'
p28
sS'n_E_hist_bins'
p29
I50000
sS'input_root_file_name'
p30
S'/scratch/tklijnsm/V11_full_subjets_5delR.root'
p31
sS'input_tree_name'
p32
S'tree'
p33
sS'particles'
p34
(lp35
g10
ag14
asS'E_bounds'
p36
(lp37
F30.0
aF300.0
asS'mc_Eta_str'
p38
S'Jet_mcEta'
p39
sS'mc_Flavour_str'
p40
S'Jet_mcFlavour'
p41
sS'ABFunctions'
p42
(dp43
g10
(lp44
(iTFClasses
function
p45
(dp46
S'par_errors'
p47
(lp48
sS'par_values'
p49
(lp50
sS'abspars'
p51
(lp52
sS'str'
p53
S'1'
p54
sS'par_initials'
p55
(lp56
sba(iTFClasses
function
p57
(dp58
g47
(lp59
sg49
(lp60
sg51
g52
sg53
S'[0]+[1]*x'
p61
sg55
(lp62
S'0'
p63
ag54
asba(iTFClasses
function
p64
(dp65
g47
(lp66
sg49
(lp67
sg51
g52
sg53
S'sqrt([0]*[0] + x*[1]*[1] + x*x*[2]*[2])'
p68
sg55
(lp69
g63
ag63
ag63
asba(iTFClasses
function
p70
(dp71
g47
(lp72
sg49
(lp73
sg51
g52
sg53
g61
sg55
(lp74
g63
ag54
asba(iTFClasses
function
p75
(dp76
g47
(lp77
sg49
(lp78
sg51
g52
sg53
g68
sg55
(lp79
g63
ag63
ag63
asbasg14
(lp80
(iTFClasses
function
p81
(dp82
g47
(lp83
sg49
(lp84
sg51
g52
sg53
g54
sg55
g56
sba(iTFClasses
function
p85
(dp86
g47
(lp87
sg49
(lp88
sg51
g52
sg53
g61
sg55
(lp89
g63
ag54
asba(iTFClasses
function
p90
(dp91
g47
(lp92
sg49
(lp93
sg51
g52
sg53
g68
sg55
(lp94
g63
ag63
ag63
asbassS'quark_E_str'
p95
S'Quark_pt'
p96
sS'reco_Phi_str'
p97
S'Jet_phi'
p98
sS'eta_axis'
p99
(lp100
F0.0
aF1.5
aF2.5
asS'n_entries_limited'
p101
I50000
sS'quark_Pt_str'
p102
g96
sS'SBF_plot_ranges'
p103
(dp104
g10
(lp105
(lp106
(lp107
I0
aF79.9368
aa(lp108
I0
aF92.2164
aa(lp109
I0
aF101.6772
aa(lp110
I0
aF109.5504
aa(lp111
I0
aF116.6028
aa(lp112
I0
aF123.0828
aa(lp113
I0
aF129.174
aa(lp114
I0
aF135.006
aa(lp115
I0
aF140.5788
aa(lp116
I0
aF146.0652
aa(lp117
I0
aF151.3572
aa(lp118
I0
aF156.4656
aa(lp119
I0
aF161.54160000000002
aa(lp120
I0
aF166.5204
aa(lp121
I0
aF171.45600000000002
aa(lp122
I0
aF176.3916
aa(lp123
I0
aF181.2732
aa(lp124
I0
aF186.09
aa(lp125
I0
aF191.00400000000002
aa(lp126
I0
aF195.8424
aa(lp127
I0
aF200.7348
aa(lp128
I0
aF205.6488
aa(lp129
I0
aF210.63840000000002
aa(lp130
I0
aF215.54160000000002
aa(lp131
I0
aF220.55280000000002
aa(lp132
I0
aF225.56400000000002
aa(lp133
I0
aF230.66160000000002
aa(lp134
I0
aF235.87800000000001
aa(lp135
I0
aF241.13760000000002
aa(lp136
I0
aF246.4188
aa(lp137
I0
aF251.7756
aa(lp138
I0
aF257.1972
aa(lp139
I0
aF262.77
aa(lp140
I0
aF268.4616
aa(lp141
I0
aF274.218
aa(lp142
I0
aF280.1904
aa(lp143
I0
aF286.2384
aa(lp144
I0
aF292.4268
aa(lp145
I0
aF298.9716
aa(lp146
I0
aF305.6568
aa(lp147
I0
aF312.558
aa(lp148
I0
aF319.7832
aa(lp149
I0
aF327.3216
aa(lp150
I0
aF335.1408
aa(lp151
I0
aF343.5432
aa(lp152
I0
aF352.3884
aa(lp153
I0
aF361.83840000000004
aa(lp154
I0
aF371.9472
aa(lp155
I0
aF382.96320000000003
aa(lp156
I0
aF394.85400000000004
aa(lp157
I0
aF407.922
aa(lp158
I0
aF422.7072
aa(lp159
I0
aF439.39320000000004
aa(lp160
I0
aF458.6496
aa(lp161
I0
aF481.51320000000004
aa(lp162
I0
aF509.91720000000004
aa(lp163
I0
aF546.81
aa(lp164
I0
aF600.0
aaa(lp165
(lp166
I0
aF73.3812
aa(lp167
I0
aF84.462
aa(lp168
I0
aF93.4152
aa(lp169
I0
aF100.7052
aa(lp170
I0
aF107.196
aa(lp171
I0
aF112.9848
aa(lp172
I0
aF118.41720000000001
aa(lp173
I0
aF123.62280000000001
aa(lp174
I0
aF128.8284
aa(lp175
I0
aF133.73160000000001
aa(lp176
I0
aF138.68880000000001
aa(lp177
I0
aF143.22480000000002
aa(lp178
I0
aF147.7824
aa(lp179
I0
aF152.3616
aa(lp180
I0
aF156.94080000000002
aa(lp181
I0
aF161.4876
aa(lp182
I0
aF165.8616
aa(lp183
I0
aF170.31119999999999
aa(lp184
I0
aF174.7176
aa(lp185
I0
aF179.37240000000003
aa(lp186
I0
aF183.86520000000002
aa(lp187
I0
aF188.358
aa(lp188
I0
aF192.99120000000002
aa(lp189
I0
aF197.64600000000002
aa(lp190
I0
aF202.32240000000002
aa(lp191
I0
aF207.0744
aa(lp192
I0
aF211.74
aa(lp193
I0
aF216.6216
aa(lp194
I0
aF221.6652
aa(lp195
I0
aF226.59
aa(lp196
I0
aF231.55800000000002
aa(lp197
I0
aF236.8068
aa(lp198
I0
aF242.304
aa(lp199
I0
aF247.812
aa(lp200
I0
aF253.3416
aa(lp201
I0
aF259.0332
aa(lp202
I0
aF265.1568
aa(lp203
I0
aF271.10760000000005
aa(lp204
I0
aF277.3716
aa(lp205
I0
aF283.83000000000004
aa(lp206
I0
aF290.2668
aa(lp207
I0
aF296.9952
aa(lp208
I0
aF304.1988
aa(lp209
I0
aF311.59680000000003
aa(lp210
I0
aF319.2756
aa(lp211
I0
aF327.55920000000003
aa(lp212
I0
aF336.17760000000004
aa(lp213
I0
aF345.59520000000003
aa(lp214
I0
aF356.1252
aa(lp215
I0
aF367.3356
aa(lp216
I0
aF379.8096
aa(lp217
I0
aF393.65520000000004
aa(lp218
I0
aF409.7472
aa(lp219
I0
aF428.49600000000004
aa(lp220
I0
aF450.92760000000004
aa(lp221
I0
aF481.2108
aa(lp222
I0
aF524.7888
aa(lp223
I0
aF600.0
aaasg14
(lp224
(lp225
(lp226
I0
aF73.014
aa(lp227
I0
aF81.2976
aa(lp228
I0
aF88.11240000000001
aa(lp229
I0
aF94.16040000000001
aa(lp230
I0
aF99.852
aa(lp231
I0
aF105.11160000000001
aa(lp232
I0
aF110.1336
aa(lp233
I0
aF114.9828
aa(lp234
I0
aF119.7456
aa(lp235
I0
aF124.41120000000001
aa(lp236
I0
aF128.9796
aa(lp237
I0
aF133.4832
aa(lp238
I0
aF138.0192
aa(lp239
I0
aF142.4796
aa(lp240
I0
aF146.91840000000002
aa(lp241
I0
aF151.2924
aa(lp242
I0
aF155.6988
aa(lp243
I0
aF160.0512
aa(lp244
I0
aF164.42520000000002
aa(lp245
I0
aF168.82080000000002
aa(lp246
I0
aF173.18400000000003
aa(lp247
I0
aF177.67680000000001
aa(lp248
I0
aF182.15879999999999
aa(lp249
I0
aF186.68400000000003
aa(lp250
I0
aF191.23080000000002
aa(lp251
I0
aF195.76680000000002
aa(lp252
I0
aF200.3784
aa(lp253
I0
aF205.1304
aa(lp254
I0
aF209.9148
aa(lp255
I0
aF214.7748
aa(lp256
I0
aF219.7644
aa(lp257
I0
aF224.78640000000001
aa(lp258
I0
aF229.8624
aa(lp259
I0
aF235.1004
aa(lp260
I0
aF240.46800000000002
aa(lp261
I0
aF245.93280000000001
aa(lp262
I0
aF251.61360000000002
aa(lp263
I0
aF257.45640000000003
aa(lp264
I0
aF263.43960000000004
aa(lp265
I0
aF269.736
aa(lp266
I0
aF276.2052
aa(lp267
I0
aF282.9012
aa(lp268
I0
aF289.9644
aa(lp269
I0
aF297.3732
aa(lp270
I0
aF305.2356
aa(lp271
I0
aF313.5408
aa(lp272
I0
aF322.44
aa(lp273
I0
aF331.98720000000003
aa(lp274
I0
aF342.3552
aa(lp275
I0
aF353.85720000000003
aa(lp276
I0
aF366.6336
aa(lp277
I0
aF381.1488
aa(lp278
I0
aF397.87800000000004
aa(lp279
I0
aF417.7824
aa(lp280
I0
aF442.4064
aa(lp281
I0
aF474.4392
aa(lp282
I0
aF520.1556
aa(lp283
I0
aF600.0
aaa(lp284
(lp285
I0
aF71.3508
aa(lp286
I0
aF78.9756
aa(lp287
I0
aF85.14240000000001
aa(lp288
I0
aF90.5964
aa(lp289
I0
aF95.694
aa(lp290
I0
aF100.4568
aa(lp291
I0
aF105.05760000000001
aa(lp292
I0
aF109.39920000000001
aa(lp293
I0
aF113.65440000000001
aa(lp294
I0
aF117.834
aa(lp295
I0
aF121.9488
aa(lp296
I0
aF125.9988
aa(lp297
I0
aF130.00560000000002
aa(lp298
I0
aF134.0124
aa(lp299
I0
aF138.0084
aa(lp300
I0
aF142.06920000000002
aa(lp301
I0
aF146.0976
aa(lp302
I0
aF150.20159999999998
aa(lp303
I0
aF154.176
aa(lp304
I0
aF158.23680000000002
aa(lp305
I0
aF162.31920000000002
aa(lp306
I0
aF166.5204
aa(lp307
I0
aF170.808
aa(lp308
I0
aF174.97680000000003
aa(lp309
I0
aF179.18880000000001
aa(lp310
I0
aF183.5412
aa(lp311
I0
aF187.926
aa(lp312
I0
aF192.3648
aa(lp313
I0
aF196.9224
aa(lp314
I0
aF201.5016
aa(lp315
I0
aF206.15640000000002
aa(lp316
I0
aF210.93
aa(lp317
I0
aF215.8548
aa(lp318
I0
aF220.8228
aa(lp319
I0
aF225.8556
aa(lp320
I0
aF231.0612
aa(lp321
I0
aF236.364
aa(lp322
I0
aF241.94760000000002
aa(lp323
I0
aF247.6284
aa(lp324
I0
aF253.49280000000002
aa(lp325
I0
aF259.4868
aa(lp326
I0
aF265.7832
aa(lp327
I0
aF272.43600000000004
aa(lp328
I0
aF279.05640000000005
aa(lp329
I0
aF286.4112
aa(lp330
I0
aF294.2196
aa(lp331
I0
aF302.2872
aa(lp332
I0
aF311.31600000000003
aa(lp333
I0
aF321.02520000000004
aa(lp334
I0
aF331.5228
aa(lp335
I0
aF343.66200000000003
aa(lp336
I0
aF356.8056
aa(lp337
I0
aF372.498
aa(lp338
I0
aF391.2036
aa(lp339
I0
aF413.93760000000003
aa(lp340
I0
aF444.21000000000004
aa(lp341
I0
aF491.6544
aa(lp342
I0
aF600.0
aaassS'date'
p343
S'2015-04-11 17:14:18'
p344
sS'enddate'
p345
S'2015-04-11 17:17:14'
p346
sS'quark_Eta_str'
p347
S'Quark_eta'
p348
sS'n_total_events'
p349
L2694683L
sS'info'
p350
S'*** Information on this config.dat ***\nThis config file contains the input parameters (and some output parameters) used in the creation of TFMat.dat, the matrix of transfer functions. \n\nSome html-overviews are produced in the output directory.\n\n This config.dat was created on: 2015-04-11 17:14:18'
p351
sS'E_or_Pt_str'
p352
S'Pt'
p353
sS'Use_mc_values'
p354
I00
sS'E_value_mean_or_center'
p355
S'm'
p356
sS'reco_E_str'
p357
g24
sS'SBF_pickle_filename'
p358
S'V11_full_TF_subjets_5delR/pickleSBFfitdata.dat'
p359
sS'reco_Eta_str'
p360
S'Jet_eta'
p361
sS'mc_Phi_str'
p362
S'Jet_mcPhi'
p363
sS'bin_functions'
p364
(dp365
g10
(lp366
(iTFClasses
function
p367
(dp368
S'DG_rel_weight'
p369
F0.7
sg49
(lp370
sg51
(lp371
I1
aI2
aI3
aI4
asS'DG_mean'
p372
(lp373
S'[1]'
p374
aS'[3]'
p375
asg47
(lp376
sS'Is_DG'
p377
I01
sg53
S'[0]*(0.7*exp(-0.5*((x-([1]))/([2]))**2)+(1-0.7)*exp(-0.5*((x-([3]))/([2]+[4]))**2))'
p378
sg55
(lp379
g63
aS'1.2*mean'
p380
aS'0.5*rms'
p381
aS'0.8*mean'
p382
aS'1.0*rms'
p383
asS'DG_rms'
p384
(lp385
S'[2]'
p386
aS'[2]+[4]'
p387
asbag367
asg14
(lp388
(iTFClasses
function
p389
(dp390
g49
(lp391
sg51
g52
sg47
(lp392
sS'Is_SG'
p393
I01
sS'SG_mean'
p394
g374
sg53
S'[0]*exp(-0.5*((x-([1]))/([2]))**2)'
p395
sg55
(lp396
g63
aS'mean'
p397
aS'rms'
p398
asS'SG_rms'
p399
g386
sbag389
assS'n_E_bins'
p400
I58
sS'mc_E_str'
p401
g6
sS'Use_Pt'
p402
I01
s.