(dp0
S'b'
p1
(lp2
(iTFClasses
TF
p3
(dp4
S'SingleBinFunc'
p5
(iTFClasses
function
p6
(dp7
S'DG_rel_weight'
p8
F0.7
sS'par_values'
p9
(lp10
F206.26311274533072
aF32.81291847079626
aF4.337642327320257
aF25.965702898194444
aF48.4439193017524
asS'abspars'
p11
(lp12
I1
aI2
aI3
aI4
asS'DG_mean'
p13
(lp14
S'[1]'
p15
aS'[3]'
p16
asS'par_errors'
p17
(lp18
F6.868127530579406
aF0.30917685254533467
aF0.36707897000476386
aF8.532436001642386
aF9.69182204592439
asS'Is_DG'
p19
I01
sS'str'
p20
S'[0]*(0.7*exp(-0.5*((x-([1]))/([2]))**2)+(1-0.7)*exp(-0.5*((x-([3]))/([2]+[4]))**2))'
p21
sS'par_initials'
p22
(lp23
S'0'
p24
aS'1.2*mean'
p25
aS'0.5*rms'
p26
aS'0.8*mean'
p27
aS'1.0*rms'
p28
asS'DG_rms'
p29
(lp30
S'[2]'
p31
aS'[2]+[4]'
p32
asbsS'i_eta'
p33
I0
sS'particle'
p34
g1
sS'AcrossBinFuncs'
p35
(lp36
(iTFClasses
function
p37
(dp38
g17
(lp39
sg9
(lp40
sg11
(lp41
sg20
S'1'
p42
sg22
(lp43
sba(iTFClasses
function
p44
(dp45
g17
(lp46
F0.08956554709131416
aF0.0007856932283846901
asg9
(lp47
F-3.4089732958395493
aF0.9124782065320295
asg11
(lp48
sg20
S'[0]+[1]*x'
p49
sg22
(lp50
S'0'
p51
ag42
asba(iTFClasses
function
p52
(dp53
g17
(lp54
F0.41782273350337834
aF0.049791273565344685
aF0.0026571423543842385
asg9
(lp55
F3.9032802880479553
aF0.6412223445202773
aF0.052095305536968305
asg11
(lp56
sg20
S'sqrt([0]*[0] + x*[1]*[1] + x*x*[2]*[2])'
p57
sg22
(lp58
g51
ag51
ag51
asba(iTFClasses
function
p59
(dp60
g17
(lp61
F0.1714392665681286
aF0.0014658542352709695
asg9
(lp62
F-30.800864128919613
aF1.003897900494047
asg11
(lp63
sg20
g49
sg22
(lp64
g51
ag42
asba(iTFClasses
function
p65
(dp66
g17
(lp67
F0.10245966521160646
aF0.04804494073566734
aF0.001974336632944024
asg9
(lp68
F12.491082612722924
aF5.945778354851378e-07
aF0.03379377514335208
asg11
(lp69
sg20
g57
sg22
(lp70
g51
ag51
ag51
asbasba(iTFClasses
TF
p71
(dp72
g5
(iTFClasses
function
p73
(dp74
g8
F0.7
sg9
(lp75
F33.70485365956808
aF124.87647071713393
aF27.18785126590484
aF35.972382211582165
aF4.069855563670899e-09
asg11
(lp76
I1
aI2
aI3
aI4
asg13
(lp77
g15
ag16
asg17
(lp78
F2.437892403783087
aF31.910762588390988
aF11.070315021823596
aF7.29697617336722
aF51.84341924063763
asg19
I01
sg20
g21
sg22
(lp79
g24
ag25
ag26
ag27
ag28
asg29
(lp80
g31
ag32
asbsg33
I1
sg34
g1
sg35
(lp81
(iTFClasses
function
p82
(dp83
g17
(lp84
sg9
(lp85
sg11
(lp86
sg20
g42
sg22
(lp87
sba(iTFClasses
function
p88
(dp89
g17
(lp90
F0.2071662611839243
aF0.0019425480478520412
asg9
(lp91
F-5.308124491468958
aF0.9052500901613618
asg11
(lp92
sg20
g49
sg22
(lp93
g51
ag42
asba(iTFClasses
function
p94
(dp95
g17
(lp96
F1.207043745184345
aF0.09928144790018296
aF0.007789943228197173
asg9
(lp97
F2.918326697664741
aF0.7241364863773168
aF-0.041668503262097915
asg11
(lp98
sg20
g57
sg22
(lp99
g51
ag51
ag51
asba(iTFClasses
function
p100
(dp101
g17
(lp102
F0.5267641757611919
aF0.004398548263183162
asg9
(lp103
F-13.206490081105578
aF0.8735716743122929
asg11
(lp104
sg20
g49
sg22
(lp105
g51
ag42
asba(iTFClasses
function
p106
(dp107
g17
(lp108
F0.14788701602907692
aF0.08299187187268149
aF0.009133524607479411
asg9
(lp109
F12.871729699826473
aF-8.874616871355778e-11
aF1.3632686101059236e-11
asg11
(lp110
sg20
g57
sg22
(lp111
g51
ag51
ag51
asbasbasS'l'
p112
(lp113
(iTFClasses
TF
p114
(dp115
g5
(iTFClasses
function
p116
(dp117
g9
(lp118
F8217340067478.609
aF-376.221656081576
aF59.57221755274354
asg11
(lp119
sg17
(lp120
F2533395682206.0103
aF10.500405990317608
aF1.2435192386809057
asS'Is_SG'
p121
I01
sS'SG_mean'
p122
g15
sg20
S'[0]*exp(-0.5*((x-([1]))/([2]))**2)'
p123
sg22
(lp124
g24
aS'mean'
p125
aS'rms'
p126
asS'SG_rms'
p127
g31
sbsg33
I0
sg34
g112
sg35
(lp128
(iTFClasses
function
p129
(dp130
g17
(lp131
sg9
(lp132
sg11
(lp133
sg20
g42
sg22
(lp134
sba(iTFClasses
function
p135
(dp136
g17
(lp137
F0.044001204790643116
aF0.00043916144969514953
asg9
(lp138
F-1.2591560924288325
aF0.8992073069192035
asg11
(lp139
sg20
g49
sg22
(lp140
g51
ag42
asba(iTFClasses
function
p141
(dp142
g17
(lp143
F0.2491983217163094
aF0.005044710642792829
aF0.0007864529192096295
asg9
(lp144
F-5.605604936083425e-07
aF1.1184873324467324
aF0.06151916690848498
asg11
(lp145
sg20
g57
sg22
(lp146
g51
ag51
ag51
asbasba(iTFClasses
TF
p147
(dp148
g5
(iTFClasses
function
p149
(dp150
g9
(lp151
F539067097718.1507
aF-422.86759551973137
aF67.40440680724986
asg11
(lp152
sg17
(lp153
F316025651625.0197
aF27.50580997198603
aF3.6922392857079505
asg121
I01
sg122
g15
sg20
g123
sg22
(lp154
g24
ag125
ag126
asg127
g31
sbsg33
I1
sg34
g112
sg35
(lp155
(iTFClasses
function
p156
(dp157
g17
(lp158
sg9
(lp159
sg11
(lp160
sg20
g42
sg22
(lp161
sba(iTFClasses
function
p162
(dp163
g17
(lp164
F0.105791822740964
aF0.0010835225355201902
asg9
(lp165
F-2.6175187456687357
aF0.898201746307267
asg11
(lp166
sg20
g49
sg22
(lp167
g51
ag42
asba(iTFClasses
function
p168
(dp169
g17
(lp170
F0.749182809507736
aF0.010839980974863906
aF0.00303880120748042
asg9
(lp171
F-1.779697195822677e-08
aF1.1515343751321605
aF0.03645845577544558
asg11
(lp172
sg20
g57
sg22
(lp173
g51
ag51
ag51
asbasbas.