(dp0
S'Use_limited_entries'
p1
I00
sS'events_used'
p2
I33888960
sS'quark_Flavour_str'
p3
S'Quark_pdgId'
p4
sS'mc_Pt_str'
p5
S'Jet_mcPt'
p6
sS'DG_rel_weight'
p7
F0.65
sS'SBF_n_bins'
p8
(dp9
S'b'
p10
(lp11
(lp12
I100
aI100
aI100
aI100
aI100
aI100
aI100
aI100
aI100
aI100
aI100
aI100
aI100
aI100
aI100
aI100
aI100
aI100
aI100
aI100
aI100
aI100
aI100
aI100
aI100
aI100
aI100
aI100
aI100
aI100
aI100
aI100
aI100
aI100
aI100
aI100
aI100
aI100
aI100
aI100
aI100
aI100
aI100
aI100
aI100
aI100
aI100
aI100
aI100
aI100
aI100
aI100
aI100
aI100
aI100
aI100
aI100
aI100
aa(lp13
I100
aI100
aI100
aI100
aI100
aI100
aI100
aI100
aI100
aI100
aI100
aI100
aI100
aI100
aI100
aI100
aI100
aI100
aI100
aI100
aI100
aI100
aI100
aI100
aI100
aI100
aI100
aI100
aI100
aI100
aI100
aI100
aI100
aI100
aI100
aI100
aI100
aI100
aI100
aI100
aI100
aI100
aI100
aI100
aI100
aI100
aI100
aI100
aI100
aI100
aI100
aI100
aI100
aI100
aI100
aI100
aI100
aI100
aasS'l'
p14
(lp15
(lp16
I100
aI100
aI100
aI100
aI100
aI100
aI100
aI100
aI100
aI100
aI100
aI100
aI100
aI100
aI100
aI100
aI100
aI100
aI100
aI100
aI100
aI100
aI100
aI100
aI100
aI100
aI100
aI100
aI100
aI100
aI100
aI100
aI100
aI100
aI100
aI100
aI100
aI100
aI100
aI100
aI100
aI100
aI100
aI100
aI100
aI100
aI100
aI100
aI100
aI100
aI100
aI100
aI100
aI100
aI100
aI100
aI100
aI100
aa(lp17
I100
aI100
aI100
aI100
aI100
aI100
aI100
aI100
aI100
aI100
aI100
aI100
aI100
aI100
aI100
aI100
aI100
aI100
aI100
aI100
aI100
aI100
aI100
aI100
aI100
aI100
aI100
aI100
aI100
aI100
aI100
aI100
aI100
aI100
aI100
aI100
aI100
aI100
aI100
aI100
aI100
aI100
aI100
aI100
aI100
aI100
aI100
aI100
aI100
aI100
aI100
aI100
aI100
aI100
aI100
aI100
aI100
aI100
aassS'selection_string'
p18
(dp19
g10
S'abs(Quark_pdgId)==5 && abs(Quark_eta)>=1.0 && abs(Quark_eta)<=2.5 && abs(Quark_pt)>=30.0 && abs(Quark_pt)<=300.0'
p20
sg14
S'abs(Quark_pdgId)!=5 && abs(Quark_eta)>=1.0 && abs(Quark_eta)<=2.5 && abs(Quark_pt)>=30.0 && abs(Quark_pt)<=300.0'
p21
ssS'Standard_SG_func'
p22
(iTFClasses
function
p23
(dp24
S'par_values'
p25
(lp26
sS'par_errors'
p27
(lp28
sS'par_limits'
p29
(lp30
sS'Is_SG'
p31
I01
sS'SG_mean'
p32
S'[1]'
p33
sS'str'
p34
S'[0]*exp(-0.5*((x-([1]))/([2]))**2)'
p35
sS'par_initials'
p36
(lp37
S'0'
p38
aS'mean'
p39
aS'rms'
p40
asS'SG_rms'
p41
S'[2]'
p42
sbsS'Draw_ABF_in_single_bins'
p43
I01
sS'reco_Pt_str'
p44
S'Jet_pt'
p45
sS'outputdir'
p46
S'V11_full_TTbar_0.3delR'
p47
sS'quark_Phi_str'
p48
S'Quark_phi'
p49
sS'n_E_hist_bins'
p50
I50000
sS'input_root_file_name'
p51
S'/scratch/tklijnsm/V11_full_jets_0.3delR.root'
p52
sS'input_tree_name'
p53
S'tree'
p54
sS'particles'
p55
(lp56
g10
ag14
asS'E_bounds'
p57
(lp58
F30.0
aF300.0
asS'mc_Eta_str'
p59
S'Jet_mcEta'
p60
sS'Standard_DG_func'
p61
(iTFClasses
function
p62
(dp63
S'DG_rel_weight'
p64
F0.65
sg25
(lp65
sS'DG_mean'
p66
(lp67
g33
aS'[3]'
p68
asg27
(lp69
sg29
(lp70
(I1
F0.0
F2000.0
tp71
a(I2
F0.0
F2000.0
tp72
a(I3
F0.0
F2000.0
tp73
a(I4
F0.0
F0.1
tp74
asS'Is_DG'
p75
I01
sg34
S'[0]*(0.65*exp(-0.5*((x-([1]))/([2]))**2)+(1-0.65)*exp(-0.5*((x-([3]))/([2]+[4]))**2))'
p76
sg36
(lp77
g38
aS'1.1*mean'
p78
aS'0.5*rms'
p79
aS'0.8*mean'
p80
aS'0*rms'
p81
asS'fitrange'
p82
(F30.1
F500.0
tp83
sS'DG_rms'
p84
(lp85
g42
aS'[2]+[4]'
p86
asbsS'mc_Flavour_str'
p87
S'Jet_mcFlavour'
p88
sS'ABFunctions'
p89
(dp90
g10
(lp91
(iTFClasses
function
p92
(dp93
g27
(lp94
sg25
(lp95
sg29
g30
sg34
S'1'
p96
sg36
(lp97
sba(iTFClasses
function
p98
(dp99
g27
(lp100
sg25
(lp101
sg29
g30
sg34
S'[0]+[1]*x'
p102
sg36
(lp103
g38
ag96
asba(iTFClasses
function
p104
(dp105
g27
(lp106
sg25
(lp107
sg29
g30
sg34
S'sqrt([0]*[0] + x*[1]*[1] + x*x*[2]*[2])'
p108
sg36
(lp109
g38
ag38
ag38
asba(iTFClasses
function
p110
(dp111
g27
(lp112
sg25
(lp113
sg29
g30
sg34
g102
sg36
(lp114
g38
ag96
asba(iTFClasses
function
p115
(dp116
g27
(lp117
sg25
(lp118
sg29
g30
sg34
g108
sg36
(lp119
g38
ag38
ag38
asbasg14
(lp120
(iTFClasses
function
p121
(dp122
g27
(lp123
sg25
(lp124
sg29
g30
sg34
g96
sg36
g97
sba(iTFClasses
function
p125
(dp126
g27
(lp127
sg25
(lp128
sg29
g30
sg34
g102
sg36
(lp129
g38
ag96
asba(iTFClasses
function
p130
(dp131
g27
(lp132
sg25
(lp133
sg29
g30
sg34
g108
sg36
(lp134
g38
ag38
ag38
asba(iTFClasses
function
p135
(dp136
g27
(lp137
sg25
(lp138
sg29
g30
sg34
g102
sg36
(lp139
g38
ag96
asba(iTFClasses
function
p140
(dp141
g27
(lp142
sg25
(lp143
sg29
g30
sg34
g108
sg36
(lp144
g38
ag38
ag38
asbassS'quark_E_str'
p145
S'Quark_pt'
p146
sS'reco_Phi_str'
p147
S'Jet_phi'
p148
sS'eta_axis'
p149
(lp150
F0.0
aF1.0
aF2.5
asS'n_entries_limited'
p151
I100000
sS'quark_Pt_str'
p152
g146
sS'SBF_plot_ranges'
p153
(dp154
g10
(lp155
(lp156
(lp157
I0
aF71.178
aa(lp158
I0
aF77.3232
aa(lp159
I0
aF82.11840000000001
aa(lp160
I0
aF86.2656
aa(lp161
I0
aF90.0132
aa(lp162
I0
aF93.48
aa(lp163
I0
aF96.7524
aa(lp164
I0
aF99.8952
aa(lp165
I0
aF102.9192
aa(lp166
I0
aF105.8784
aa(lp167
I0
aF108.7728
aa(lp168
I0
aF111.6024
aa(lp169
I0
aF114.41040000000001
aa(lp170
I0
aF117.1968
aa(lp171
I0
aF119.9616
aa(lp172
I0
aF122.72640000000001
aa(lp173
I0
aF125.4804
aa(lp174
I0
aF128.2344
aa(lp175
I0
aF130.9992
aa(lp176
I0
aF133.7748
aa(lp177
I0
aF136.572
aa(lp178
I0
aF139.4016
aa(lp179
I0
aF142.2528
aa(lp180
I0
aF145.1472
aa(lp181
I0
aF148.074
aa(lp182
I0
aF151.0548
aa(lp183
I0
aF154.08960000000002
aa(lp184
I0
aF157.1676
aa(lp185
I0
aF160.3212
aa(lp186
I0
aF163.55040000000002
aa(lp187
I0
aF166.8444
aa(lp188
I0
aF170.2356
aa(lp189
I0
aF173.7132
aa(lp190
I0
aF177.2988
aa(lp191
I0
aF181.014
aa(lp192
I0
aF184.8696
aa(lp193
I0
aF188.8656
aa(lp194
I0
aF193.02360000000002
aa(lp195
I0
aF197.3436
aa(lp196
I0
aF201.858
aa(lp197
I0
aF206.61
aa(lp198
I0
aF211.6104
aa(lp199
I0
aF216.91320000000002
aa(lp200
I0
aF222.5616
aa(lp201
I0
aF228.5772
aa(lp202
I0
aF235.08960000000002
aa(lp203
I0
aF242.12040000000002
aa(lp204
I0
aF249.76680000000002
aa(lp205
I0
aF258.2124
aa(lp206
I0
aF267.6948
aa(lp207
I0
aF278.3976
aa(lp208
I0
aF290.7744
aa(lp209
I0
aF305.376
aa(lp210
I0
aF323.27160000000003
aa(lp211
I0
aF346.3296
aa(lp212
I0
aF378.89160000000004
aa(lp213
I0
aF433.1292
aa(lp214
I0
aF600.0
aaa(lp215
(lp216
I0
aF69.6984
aa(lp217
I0
aF75.552
aa(lp218
I0
aF80.1636
aa(lp219
I0
aF84.1272
aa(lp220
I0
aF87.69120000000001
aa(lp221
I0
aF91.0068
aa(lp222
I0
aF94.1172
aa(lp223
I0
aF97.0872
aa(lp224
I0
aF99.96000000000001
aa(lp225
I0
aF102.7464
aa(lp226
I0
aF105.4788
aa(lp227
I0
aF108.168
aa(lp228
I0
aF110.82480000000001
aa(lp229
I0
aF113.46000000000001
aa(lp230
I0
aF116.0736
aa(lp231
I0
aF118.6764
aa(lp232
I0
aF121.2684
aa(lp233
I0
aF123.882
aa(lp234
I0
aF126.49560000000001
aa(lp235
I0
aF129.1092
aa(lp236
I0
aF131.73360000000002
aa(lp237
I0
aF134.3904
aa(lp238
I0
aF137.0796
aa(lp239
I0
aF139.7904
aa(lp240
I0
aF142.5552
aa(lp241
I0
aF145.3416
aa(lp242
I0
aF148.18200000000002
aa(lp243
I0
aF151.0764
aa(lp244
I0
aF154.0248
aa(lp245
I0
aF157.0488
aa(lp246
I0
aF160.1484
aa(lp247
I0
aF163.33440000000002
aa(lp248
I0
aF166.596
aa(lp249
I0
aF169.9548
aa(lp250
I0
aF173.4324
aa(lp251
I0
aF176.9964
aa(lp252
I0
aF180.70080000000002
aa(lp253
I0
aF184.5672
aa(lp254
I0
aF188.59560000000002
aa(lp255
I0
aF192.786
aa(lp256
I0
aF197.19240000000002
aa(lp257
I0
aF201.8364
aa(lp258
I0
aF206.7288
aa(lp259
I0
aF211.95600000000002
aa(lp260
I0
aF217.52880000000002
aa(lp261
I0
aF223.512
aa(lp262
I0
aF229.99200000000002
aa(lp263
I0
aF237.0336
aa(lp264
I0
aF244.788
aa(lp265
I0
aF253.428
aa(lp266
I0
aF263.22360000000003
aa(lp267
I0
aF274.4988
aa(lp268
I0
aF287.8584
aa(lp269
I0
aF304.22040000000004
aa(lp270
I0
aF325.4748
aa(lp271
I0
aF355.33680000000004
aa(lp272
I0
aF405.89160000000004
aa(lp273
I0
aF600.0
aaasg14
(lp274
(lp275
(lp276
I0
aF64.6224
aa(lp277
I0
aF68.2296
aa(lp278
I0
aF71.3508
aa(lp279
I0
aF74.202
aa(lp280
I0
aF76.8588
aa(lp281
I0
aF79.386
aa(lp282
I0
aF81.8268
aa(lp283
I0
aF84.2028
aa(lp284
I0
aF86.5248
aa(lp285
I0
aF88.8036
aa(lp286
I0
aF91.0608
aa(lp287
I0
aF93.3072
aa(lp288
I0
aF95.5536
aa(lp289
I0
aF97.80000000000001
aa(lp290
I0
aF100.0464
aa(lp291
I0
aF102.3036
aa(lp292
I0
aF104.5824
aa(lp293
I0
aF106.872
aa(lp294
I0
aF109.194
aa(lp295
I0
aF111.5484
aa(lp296
I0
aF113.9244
aa(lp297
I0
aF116.34360000000001
aa(lp298
I0
aF118.80600000000001
aa(lp299
I0
aF121.3116
aa(lp300
I0
aF123.8604
aa(lp301
I0
aF126.4632
aa(lp302
I0
aF129.14159999999998
aa(lp303
I0
aF131.87400000000002
aa(lp304
I0
aF134.6928
aa(lp305
I0
aF137.5764
aa(lp306
I0
aF140.5464
aa(lp307
I0
aF143.61360000000002
aa(lp308
I0
aF146.7888
aa(lp309
I0
aF150.06119999999999
aa(lp310
I0
aF153.4524
aa(lp311
I0
aF156.984
aa(lp312
I0
aF160.66680000000002
aa(lp313
I0
aF164.5116
aa(lp314
I0
aF168.54000000000002
aa(lp315
I0
aF172.7736
aa(lp316
I0
aF177.20159999999998
aa(lp317
I0
aF181.9104
aa(lp318
I0
aF186.9216
aa(lp319
I0
aF192.2244
aa(lp320
I0
aF197.92680000000001
aa(lp321
I0
aF204.08280000000002
aa(lp322
I0
aF210.7572
aa(lp323
I0
aF218.1012
aa(lp324
I0
aF226.17960000000002
aa(lp325
I0
aF235.2516
aa(lp326
I0
aF245.51160000000002
aa(lp327
I0
aF257.4132
aa(lp328
I0
aF271.5612
aa(lp329
I0
aF288.9168
aa(lp330
I0
aF311.4348
aa(lp331
I0
aF343.3704
aa(lp332
I0
aF397.8888
aa(lp333
I0
aF600.0
aaa(lp334
(lp335
I0
aF63.9852
aa(lp336
I0
aF67.29
aa(lp337
I0
aF70.206
aa(lp338
I0
aF72.8952
aa(lp339
I0
aF75.41159999999999
aa(lp340
I0
aF77.82
aa(lp341
I0
aF80.1204
aa(lp342
I0
aF82.3668
aa(lp343
I0
aF84.57
aa(lp344
I0
aF86.74080000000001
aa(lp345
I0
aF88.89
aa(lp346
I0
aF91.0284
aa(lp347
I0
aF93.156
aa(lp348
I0
aF95.2836
aa(lp349
I0
aF97.41120000000001
aa(lp350
I0
aF99.5496
aa(lp351
I0
aF101.688
aa(lp352
I0
aF103.8588
aa(lp353
I0
aF106.0404
aa(lp354
I0
aF108.2544
aa(lp355
I0
aF110.5008
aa(lp356
I0
aF112.7904
aa(lp357
I0
aF115.11240000000001
aa(lp358
I0
aF117.4668
aa(lp359
I0
aF119.886
aa(lp360
I0
aF122.33760000000001
aa(lp361
I0
aF124.84320000000001
aa(lp362
I0
aF127.4136
aa(lp363
I0
aF130.0596
aa(lp364
I0
aF132.7704
aa(lp365
I0
aF135.5676
aa(lp366
I0
aF138.4512
aa(lp367
I0
aF141.4212
aa(lp368
I0
aF144.4884
aa(lp369
I0
aF147.6744
aa(lp370
I0
aF150.9792
aa(lp371
I0
aF154.4244
aa(lp372
I0
aF158.01
aa(lp373
I0
aF161.76839999999999
aa(lp374
I0
aF165.7212
aa(lp375
I0
aF169.87920000000003
aa(lp376
I0
aF174.2748
aa(lp377
I0
aF178.9188
aa(lp378
I0
aF183.86520000000002
aa(lp379
I0
aF189.1788
aa(lp380
I0
aF194.9028
aa(lp381
I0
aF201.102
aa(lp382
I0
aF207.89520000000002
aa(lp383
I0
aF215.3904
aa(lp384
I0
aF223.77120000000002
aa(lp385
I0
aF233.2536
aa(lp386
I0
aF244.2588
aa(lp387
I0
aF257.262
aa(lp388
I0
aF273.27840000000003
aa(lp389
I0
aF294.16560000000004
aa(lp390
I0
aF323.6712
aa(lp391
I0
aF374.7336
aa(lp392
I0
aF600.0
aaassS'date'
p393
S'2015-04-24 16:24:52'
p394
sS'enddate'
p395
S'2015-04-24 17:28:24'
p396
sS'quark_Eta_str'
p397
S'Quark_eta'
p398
sS'n_total_events'
p399
L70660475L
sS'info'
p400
S'*** Information on this config.dat ***\nThis config file contains the input parameters (and some output parameters) used in the creation of TFMat.dat, the matrix of transfer functions. \n\nSome html-overviews are produced in the output directory.\n\n This config.dat was created on: 2015-04-24 16:24:52'
p401
sS'E_or_Pt_str'
p402
S'Pt'
p403
sS'n_E_bins'
p404
I58
sS'Use_mc_values'
p405
I00
sS'E_value_mean_or_center'
p406
S'm'
p407
sS'reco_E_str'
p408
g45
sS'reco_Eta_str'
p409
S'Jet_eta'
p410
sS'mc_Phi_str'
p411
S'Jet_mcPhi'
p412
sS'SBF_hists_pickle_filename'
p413
S'V11_full_TTbar_0.3delR/SBF_hists_pickle.dat'
p414
sS'bin_functions'
p415
(dp416
g10
(lp417
(iTFClasses
function
p418
(dp419
g27
(lp420
sg25
(lp421
sg66
(lp422
g33
ag68
asg64
F0.65
sg29
(lp423
g71
ag72
ag73
ag74
asg75
I01
sg34
g76
sg36
(lp424
g38
ag78
ag79
ag80
ag81
asg82
g83
sg84
(lp425
g42
ag86
asba(iTFClasses
function
p426
(dp427
g27
(lp428
sg25
(lp429
sg66
(lp430
g33
ag68
asg64
F0.65
sg29
(lp431
g71
ag72
ag73
ag74
asg75
I01
sg34
g76
sg36
(lp432
g38
ag78
ag79
ag80
ag81
asg82
g83
sg84
(lp433
g42
ag86
asbasg14
(lp434
(iTFClasses
function
p435
(dp436
g27
(lp437
sg25
(lp438
sg66
(lp439
g33
ag68
asg64
F0.65
sg29
(lp440
g71
ag72
ag73
ag74
asg75
I01
sg34
g76
sg36
(lp441
g38
ag78
ag79
ag80
ag81
asg82
g83
sg84
(lp442
g42
ag86
asba(iTFClasses
function
p443
(dp444
g27
(lp445
sg25
(lp446
sg66
(lp447
g33
ag68
asg64
F0.65
sg29
(lp448
g71
ag72
ag73
ag74
asg75
I01
sg34
g76
sg36
(lp449
g38
ag78
ag79
ag80
ag81
asg82
g83
sg84
(lp450
g42
ag86
asbassS'SBF_fitted_hists_pickle_filename'
p451
S'V11_full_TTbar_0.3delR/SBF_fitted_hists_pickle.dat'
p452
sS'mc_E_str'
p453
g6
sS'Use_Pt'
p454
I01
s.