(dp0
S'Use_limited_entries'
p1
I00
sS'events_used'
p2
I233017
sS'quark_Flavour_str'
p3
S'Quark_pdgId'
p4
sS'mc_Pt_str'
p5
S'Jet_mcPt'
p6
sS'DG_rel_weight'
p7
F0.7
sS'SBF_n_bins'
p8
(dp9
S'b'
p10
(lp11
(lp12
I100
aI100
aI100
aI100
aI100
aI100
aI100
aI100
aI100
aI100
aI100
aI100
aI100
aI100
aI100
aI100
aI100
aI100
aI100
aI100
aI100
aI100
aI100
aI100
aI100
aI100
aI100
aI100
aI100
aI100
aI100
aI100
aI100
aI100
aI100
aI100
aI100
aI100
aI100
aI100
aI100
aI100
aI100
aI100
aI100
aI100
aI100
aI100
aI100
aI100
aI100
aI100
aI100
aI100
aI100
aI100
aI100
aI100
aa(lp13
I100
aI100
aI100
aI100
aI100
aI100
aI100
aI100
aI100
aI100
aI100
aI100
aI100
aI100
aI100
aI100
aI100
aI100
aI100
aI100
aI100
aI100
aI100
aI100
aI100
aI100
aI100
aI100
aI100
aI100
aI100
aI100
aI100
aI100
aI100
aI100
aI100
aI100
aI100
aI100
aI100
aI100
aI100
aI100
aI100
aI100
aI100
aI100
aI100
aI100
aI100
aI100
aI100
aI100
aI100
aI100
aI100
aI100
aasS'l'
p14
(lp15
(lp16
I100
aI100
aI100
aI100
aI100
aI100
aI100
aI100
aI100
aI100
aI100
aI100
aI100
aI100
aI100
aI100
aI100
aI100
aI100
aI100
aI100
aI100
aI100
aI100
aI100
aI100
aI100
aI100
aI100
aI100
aI100
aI100
aI100
aI100
aI100
aI100
aI100
aI100
aI100
aI100
aI100
aI100
aI100
aI100
aI100
aI100
aI100
aI100
aI100
aI100
aI100
aI100
aI100
aI100
aI100
aI100
aI100
aI100
aa(lp17
I100
aI100
aI100
aI100
aI100
aI100
aI100
aI100
aI100
aI100
aI100
aI100
aI100
aI100
aI100
aI100
aI100
aI100
aI100
aI100
aI100
aI100
aI100
aI100
aI100
aI100
aI100
aI100
aI100
aI100
aI100
aI100
aI100
aI100
aI100
aI100
aI100
aI100
aI100
aI100
aI100
aI100
aI100
aI100
aI100
aI100
aI100
aI100
aI100
aI100
aI100
aI100
aI100
aI100
aI100
aI100
aI100
aI100
aassS'selection_string'
p18
(dp19
g10
S'abs(Quark_pdgId)==5 && abs(Quark_eta)>=1.0 && abs(Quark_eta)<=2.5 && abs(Quark_pt)>=30.0 && abs(Quark_pt)<=300.0'
p20
sg14
S'abs(Quark_pdgId)!=5 && abs(Quark_eta)>=1.0 && abs(Quark_eta)<=2.5 && abs(Quark_pt)>=30.0 && abs(Quark_pt)<=300.0'
p21
ssS'Draw_ABF_in_single_bins'
p22
I01
sS'reco_Pt_str'
p23
S'Jet_pt'
p24
sS'outputdir'
p25
S'V10_full_TF_jets_0.3delR_lDG'
p26
sS'quark_Phi_str'
p27
S'Quark_phi'
p28
sS'n_E_hist_bins'
p29
I50000
sS'input_root_file_name'
p30
S'/scratch/tklijnsm/V10_full_jets_TTBarH.root'
p31
sS'input_tree_name'
p32
S'tree'
p33
sS'particles'
p34
(lp35
g10
ag14
asS'E_bounds'
p36
(lp37
F30.0
aF300.0
asS'mc_Eta_str'
p38
S'Jet_mcEta'
p39
sS'mc_Flavour_str'
p40
S'Jet_mcFlavour'
p41
sS'ABFunctions'
p42
(dp43
g10
(lp44
(iTFClasses
function
p45
(dp46
S'par_errors'
p47
(lp48
sS'par_values'
p49
(lp50
sS'par_limits'
p51
(lp52
sS'str'
p53
S'1'
p54
sS'par_initials'
p55
(lp56
sba(iTFClasses
function
p57
(dp58
g47
(lp59
sg49
(lp60
sg51
g52
sg53
S'[0]+[1]*x'
p61
sg55
(lp62
S'0'
p63
ag54
asba(iTFClasses
function
p64
(dp65
g47
(lp66
sg49
(lp67
sg51
g52
sg53
S'sqrt([0]*[0] + x*[1]*[1] + x*x*[2]*[2])'
p68
sg55
(lp69
g63
ag63
ag63
asba(iTFClasses
function
p70
(dp71
g47
(lp72
sg49
(lp73
sg51
g52
sg53
g61
sg55
(lp74
g63
ag54
asba(iTFClasses
function
p75
(dp76
g47
(lp77
sg49
(lp78
sg51
g52
sg53
g68
sg55
(lp79
g63
ag63
ag63
asbasg14
(lp80
(iTFClasses
function
p81
(dp82
g47
(lp83
sg49
(lp84
sg51
g52
sg53
g54
sg55
g56
sba(iTFClasses
function
p85
(dp86
g47
(lp87
sg49
(lp88
sg51
g52
sg53
g61
sg55
(lp89
g63
ag54
asba(iTFClasses
function
p90
(dp91
g47
(lp92
sg49
(lp93
sg51
g52
sg53
g68
sg55
(lp94
g63
ag63
ag63
asba(iTFClasses
function
p95
(dp96
g47
(lp97
sg49
(lp98
sg51
g52
sg53
g61
sg55
(lp99
g63
ag54
asba(iTFClasses
function
p100
(dp101
g47
(lp102
sg49
(lp103
sg51
g52
sg53
g68
sg55
(lp104
g63
ag63
ag63
asbassS'quark_E_str'
p105
S'Quark_pt'
p106
sS'reco_Phi_str'
p107
S'Jet_phi'
p108
sS'eta_axis'
p109
(lp110
F0.0
aF1.0
aF2.5
asS'n_entries_limited'
p111
I5000
sS'quark_Pt_str'
p112
g106
sS'SBF_plot_ranges'
p113
(dp114
g10
(lp115
(lp116
(lp117
I0
aF70.9512
aa(lp118
I0
aF77.1072
aa(lp119
I0
aF81.816
aa(lp120
I0
aF85.84440000000001
aa(lp121
I0
aF89.5812
aa(lp122
I0
aF92.994
aa(lp123
I0
aF96.1152
aa(lp124
I0
aF99.2904
aa(lp125
I0
aF102.2064
aa(lp126
I0
aF105.11160000000001
aa(lp127
I0
aF107.9736
aa(lp128
I0
aF110.8896
aa(lp129
I0
aF113.6976
aa(lp130
I0
aF116.53800000000001
aa(lp131
I0
aF119.3028
aa(lp132
I0
aF122.1
aa(lp133
I0
aF124.8972
aa(lp134
I0
aF127.8348
aa(lp135
I0
aF130.7184
aa(lp136
I0
aF133.71
aa(lp137
I0
aF136.56119999999999
aa(lp138
I0
aF139.4772
aa(lp139
I0
aF142.4796
aa(lp140
I0
aF145.7196
aa(lp141
I0
aF148.9488
aa(lp142
I0
aF152.07
aa(lp143
I0
aF155.3316
aa(lp144
I0
aF158.62560000000002
aa(lp145
I0
aF162.1572
aa(lp146
I0
aF165.65640000000002
aa(lp147
I0
aF169.2852
aa(lp148
I0
aF173.0868
aa(lp149
I0
aF176.9316
aa(lp150
I0
aF181.014
aa(lp151
I0
aF185.1504
aa(lp152
I0
aF189.4164
aa(lp153
I0
aF193.92000000000002
aa(lp154
I0
aF198.8124
aa(lp155
I0
aF203.856
aa(lp156
I0
aF209.07240000000002
aa(lp157
I0
aF214.5804
aa(lp158
I0
aF220.41240000000002
aa(lp159
I0
aF226.59
aa(lp160
I0
aF233.32920000000001
aa(lp161
I0
aF240.60840000000002
aa(lp162
I0
aF247.9848
aa(lp163
I0
aF256.3548
aa(lp164
I0
aF265.3188
aa(lp165
I0
aF275.0712
aa(lp166
I0
aF286.2492
aa(lp167
I0
aF299.15520000000004
aa(lp168
I0
aF313.35720000000003
aa(lp169
I0
aF331.11240000000004
aa(lp170
I0
aF351.978
aa(lp171
I0
aF379.0536
aa(lp172
I0
aF414.7368
aa(lp173
I0
aF471.9336
aa(lp174
I0
aF600.0
aaa(lp175
(lp176
I0
aF69.3852
aa(lp177
I0
aF75.174
aa(lp178
I0
aF79.6344
aa(lp179
I0
aF83.5548
aa(lp180
I0
aF87.0108
aa(lp181
I0
aF90.2724
aa(lp182
I0
aF93.3396
aa(lp183
I0
aF96.2556
aa(lp184
I0
aF99.0204
aa(lp185
I0
aF101.80680000000001
aa(lp186
I0
aF104.5608
aa(lp187
I0
aF107.2824
aa(lp188
I0
aF109.9716
aa(lp189
I0
aF112.5528
aa(lp190
I0
aF115.16640000000001
aa(lp191
I0
aF117.8664
aa(lp192
I0
aF120.4692
aa(lp193
I0
aF123.09360000000001
aa(lp194
I0
aF125.88000000000001
aa(lp195
I0
aF128.5476
aa(lp196
I0
aF131.37720000000002
aa(lp197
I0
aF134.0772
aa(lp198
I0
aF136.9176
aa(lp199
I0
aF139.758
aa(lp200
I0
aF142.7388
aa(lp201
I0
aF145.7196
aa(lp202
I0
aF148.6248
aa(lp203
I0
aF151.584
aa(lp204
I0
aF154.878
aa(lp205
I0
aF158.17200000000003
aa(lp206
I0
aF161.5632
aa(lp207
I0
aF165.138
aa(lp208
I0
aF168.79919999999998
aa(lp209
I0
aF172.6008
aa(lp210
I0
aF176.4348
aa(lp211
I0
aF180.2904
aa(lp212
I0
aF184.524
aa(lp213
I0
aF189.1356
aa(lp214
I0
aF193.6608
aa(lp215
I0
aF198.65040000000002
aa(lp216
I0
aF203.74800000000002
aa(lp217
I0
aF209.0184
aa(lp218
I0
aF214.64520000000002
aa(lp219
I0
aF220.69320000000002
aa(lp220
I0
aF227.0652
aa(lp221
I0
aF234.204
aa(lp222
I0
aF241.9368
aa(lp223
I0
aF250.2636
aa(lp224
I0
aF259.6272
aa(lp225
I0
aF269.7144
aa(lp226
I0
aF281.2812
aa(lp227
I0
aF294.7596
aa(lp228
I0
aF311.18640000000005
aa(lp229
I0
aF330.0756
aa(lp230
I0
aF354.6024
aa(lp231
I0
aF389.15160000000003
aa(lp232
I0
aF442.41720000000004
aa(lp233
I0
aF600.0
aaasg14
(lp234
(lp235
(lp236
I0
aF63.9744
aa(lp237
I0
aF67.24680000000001
aa(lp238
I0
aF70.1736
aa(lp239
I0
aF72.798
aa(lp240
I0
aF75.2388
aa(lp241
I0
aF77.5716
aa(lp242
I0
aF79.8396
aa(lp243
I0
aF81.9672
aa(lp244
I0
aF84.05160000000001
aa(lp245
I0
aF86.0712
aa(lp246
I0
aF88.0692
aa(lp247
I0
aF90.186
aa(lp248
I0
aF92.1948
aa(lp249
I0
aF94.35480000000001
aa(lp250
I0
aF96.42840000000001
aa(lp251
I0
aF98.55600000000001
aa(lp252
I0
aF100.6188
aa(lp253
I0
aF102.768
aa(lp254
I0
aF104.982
aa(lp255
I0
aF107.1528
aa(lp256
I0
aF109.30199999999999
aa(lp257
I0
aF111.5592
aa(lp258
I0
aF113.8812
aa(lp259
I0
aF116.14920000000001
aa(lp260
I0
aF118.6224
aa(lp261
I0
aF121.0632
aa(lp262
I0
aF123.56880000000001
aa(lp263
I0
aF126.0528
aa(lp264
I0
aF128.6772
aa(lp265
I0
aF131.4096
aa(lp266
I0
aF134.25
aa(lp267
I0
aF137.1876
aa(lp268
I0
aF140.244
aa(lp269
I0
aF143.3436
aa(lp270
I0
aF146.5728
aa(lp271
I0
aF150.0396
aa(lp272
I0
aF153.49560000000002
aa(lp273
I0
aF157.0488
aa(lp274
I0
aF161.0232
aa(lp275
I0
aF165.1704
aa(lp276
I0
aF169.4364
aa(lp277
I0
aF174.19920000000002
aa(lp278
I0
aF179.37240000000003
aa(lp279
I0
aF184.686
aa(lp280
I0
aF190.1292
aa(lp281
I0
aF196.2528
aa(lp282
I0
aF203.1648
aa(lp283
I0
aF210.822
aa(lp284
I0
aF218.8896
aa(lp285
I0
aF228.25320000000002
aa(lp286
I0
aF238.53480000000002
aa(lp287
I0
aF251.1276
aa(lp288
I0
aF265.3944
aa(lp289
I0
aF283.34400000000005
aa(lp290
I0
aF306.996
aa(lp291
I0
aF340.5408
aa(lp292
I0
aF396.5496
aa(lp293
I0
aF600.0
aaa(lp294
(lp295
I0
aF63.726
aa(lp296
I0
aF66.804
aa(lp297
I0
aF69.504
aa(lp298
I0
aF72.0312
aa(lp299
I0
aF74.4828
aa(lp300
I0
aF76.7076
aa(lp301
I0
aF78.8244
aa(lp302
I0
aF80.8872
aa(lp303
I0
aF82.87440000000001
aa(lp304
I0
aF84.9048
aa(lp305
I0
aF86.8272
aa(lp306
I0
aF88.7388
aa(lp307
I0
aF90.8124
aa(lp308
I0
aF92.724
aa(lp309
I0
aF94.6572
aa(lp310
I0
aF96.6012
aa(lp311
I0
aF98.5668
aa(lp312
I0
aF100.5
aa(lp313
I0
aF102.4872
aa(lp314
I0
aF104.5068
aa(lp315
I0
aF106.5588
aa(lp316
I0
aF108.7188
aa(lp317
I0
aF110.814
aa(lp318
I0
aF112.9956
aa(lp319
I0
aF115.15559999999999
aa(lp320
I0
aF117.402
aa(lp321
I0
aF119.7996
aa(lp322
I0
aF122.2296
aa(lp323
I0
aF124.7676
aa(lp324
I0
aF127.4244
aa(lp325
I0
aF129.93
aa(lp326
I0
aF132.74880000000002
aa(lp327
I0
aF135.6432
aa(lp328
I0
aF138.5808
aa(lp329
I0
aF141.85320000000002
aa(lp330
I0
aF145.0392
aa(lp331
I0
aF148.3548
aa(lp332
I0
aF151.8648
aa(lp333
I0
aF155.5368
aa(lp334
I0
aF159.4464
aa(lp335
I0
aF163.4532
aa(lp336
I0
aF167.6652
aa(lp337
I0
aF172.1688
aa(lp338
I0
aF177.20159999999998
aa(lp339
I0
aF182.3856
aa(lp340
I0
aF187.9692
aa(lp341
I0
aF194.0928
aa(lp342
I0
aF201.00480000000002
aa(lp343
I0
aF208.7808
aa(lp344
I0
aF217.7016
aa(lp345
I0
aF227.6268
aa(lp346
I0
aF239.29080000000002
aa(lp347
I0
aF252.672
aa(lp348
I0
aF270.40560000000005
aa(lp349
I0
aF292.3188
aa(lp350
I0
aF323.088
aa(lp351
I0
aF375.9432
aa(lp352
I0
aF600.0
aaassS'SBF_fitdata_pickle_filename'
p353
S'V10_full_TF_jets_0.3delR_lDG/SBF_fitdata_pickle.dat'
p354
sS'date'
p355
S'2015-04-15 14:40:55'
p356
sS'enddate'
p357
S'2015-04-15 14:41:53'
p358
sS'quark_Eta_str'
p359
S'Quark_eta'
p360
sS'n_total_events'
p361
L486554L
sS'info'
p362
S'*** Information on this config.dat ***\nThis config file contains the input parameters (and some output parameters) used in the creation of TFMat.dat, the matrix of transfer functions. \n\nSome html-overviews are produced in the output directory.\n\n This config.dat was created on: 2015-04-15 14:40:55'
p363
sS'E_or_Pt_str'
p364
S'Pt'
p365
sS'Use_mc_values'
p366
I00
sS'E_value_mean_or_center'
p367
S'm'
p368
sS'reco_E_str'
p369
g24
sS'reco_Eta_str'
p370
S'Jet_eta'
p371
sS'mc_Phi_str'
p372
S'Jet_mcPhi'
p373
sS'SBF_hists_pickle_filename'
p374
S'V10_full_TF_jets_0.3delR_lDG/SBF_hists_pickle.dat'
p375
sS'bin_functions'
p376
(dp377
g10
(lp378
(iTFClasses
function
p379
(dp380
S'DG_rel_weight'
p381
F0.7
sg49
(lp382
sS'DG_mean'
p383
(lp384
S'[1]'
p385
aS'[3]'
p386
asg47
(lp387
sg51
(lp388
(I1
F20.0
F2000.0
tp389
a(I2
F0.0
F2000.0
tp390
a(I3
F20.0
F2000.0
tp391
a(I4
F0.0
F2000.0
tp392
asS'Is_DG'
p393
I01
sg53
S'[0]*(0.7*exp(-0.5*((x-([1]))/([2]))**2)+(1-0.7)*exp(-0.5*((x-([3]))/([2]+[4]))**2))'
p394
sg55
(lp395
g63
aS'1.2*mean'
p396
aS'0.5*rms'
p397
aS'0.8*mean'
p398
aS'1.0*rms'
p399
asS'fitrange'
p400
(F30.0
F500.0
tp401
sS'DG_rms'
p402
(lp403
S'[2]'
p404
aS'[2]+[4]'
p405
asbag379
asg14
(lp406
g379
ag379
assS'n_E_bins'
p407
I58
sS'mc_E_str'
p408
g6
sS'Use_Pt'
p409
I01
s.