(dp0
S'b'
p1
(lp2
(iTFClasses
TF
p3
(dp4
S'SingleBinFunc'
p5
(iTFClasses
function
p6
(dp7
S'DG_rel_weight'
p8
F0.7
sS'par_values'
p9
(lp10
F100.8889587395579
aF32.0756210152287
aF3.5595398494475683
aF20.000000004476608
aF13.441505289085498
asS'DG_mean'
p11
(lp12
S'[1]'
p13
aS'[3]'
p14
asS'par_errors'
p15
(lp16
F4.456284305371769
aF0.39851202537840535
aF0.31880398510925056
aF0.9809050758595905
aF0.5708206308671082
asS'par_limits'
p17
(lp18
(I1
F20.0
F2000.0
tp19
a(I2
F0.0
F2000.0
tp20
a(I3
F20.0
F2000.0
tp21
a(I4
F0.0
F2000.0
tp22
asS'Is_DG'
p23
I01
sS'str'
p24
S'[0]*(0.7*exp(-0.5*((x-([1]))/([2]))**2)+(1-0.7)*exp(-0.5*((x-([3]))/([2]+[4]))**2))'
p25
sS'par_initials'
p26
(lp27
S'0'
p28
aS'1.2*mean'
p29
aS'0.5*rms'
p30
aS'0.8*mean'
p31
aS'1.0*rms'
p32
asS'fitrange'
p33
(F30.0
F500.0
tp34
sS'DG_rms'
p35
(lp36
S'[2]'
p37
aS'[2]+[4]'
p38
asbsS'i_eta'
p39
I0
sS'particle'
p40
g1
sS'AcrossBinFuncs'
p41
(lp42
(iTFClasses
function
p43
(dp44
g15
(lp45
sg9
(lp46
sg17
(lp47
sg24
S'1'
p48
sg26
(lp49
sba(iTFClasses
function
p50
(dp51
g15
(lp52
F0.21590291964129552
aF0.0029077858979165098
asg9
(lp53
F-3.494908124498149
aF0.9223162051552942
asg17
(lp54
sg24
S'[0]+[1]*x'
p55
sg26
(lp56
S'0'
p57
ag48
asba(iTFClasses
function
p58
(dp59
g15
(lp60
F0.5490057715367983
aF0.03898946173996434
aF0.0030175580157313004
asg9
(lp61
F2.3523704332140464e-06
aF0.5835737212922802
aF0.0990305708750838
asg17
(lp62
sg24
S'sqrt([0]*[0] + x*[1]*[1] + x*x*[2]*[2])'
p63
sg26
(lp64
g57
ag57
ag57
asba(iTFClasses
function
p65
(dp66
g15
(lp67
F0.5733821447668173
aF0.006666402135949322
asg9
(lp68
F9.7900247475001
aF0.666360900536457
asg17
(lp69
sg24
g55
sg26
(lp70
g57
ag48
asba(iTFClasses
function
p71
(dp72
g15
(lp73
F0.3445567074669144
aF0.47078536945464033
aF0.00410435811386407
asg9
(lp74
F6.977951198578681
aF-4.133979206615048e-06
aF0.0930008152110242
asg17
(lp75
sg24
g63
sg26
(lp76
g57
ag57
ag57
asbasba(iTFClasses
TF
p77
(dp78
g5
(iTFClasses
function
p79
(dp80
g8
F0.7
sg9
(lp81
F76.04506416493952
aF30.692339968476013
aF4.805770645157859
aF20.000000017357756
aF9.600257528418865
asg11
(lp82
g13
ag14
asg15
(lp83
F5.197307319773771
aF0.9844641232512323
aF0.5500996966564808
aF1.8577611730850716
aF1.0043929142736214
asg17
(lp84
g19
ag20
ag21
ag22
asg23
I01
sg24
g25
sg26
(lp85
g28
ag29
ag30
ag31
ag32
asg33
g34
sg35
(lp86
g37
ag38
asbsg39
I1
sg40
g1
sg41
(lp87
(iTFClasses
function
p88
(dp89
g15
(lp90
sg9
(lp91
sg17
(lp92
sg24
g48
sg26
(lp93
sba(iTFClasses
function
p94
(dp95
g15
(lp96
F0.2970659643663332
aF0.00403674251065719
asg9
(lp97
F-3.6937599800612952
aF0.9037587433419464
asg17
(lp98
sg24
g55
sg26
(lp99
g57
ag48
asba(iTFClasses
function
p100
(dp101
g15
(lp102
F0.6037597732656513
aF0.16174703779193828
aF0.003612618636978078
asg9
(lp103
F7.499217723620039e-06
aF0.21437899378373532
aF0.129842952278212
asg17
(lp104
sg24
g63
sg26
(lp105
g57
ag57
ag57
asba(iTFClasses
function
p106
(dp107
g15
(lp108
F0.7361245284983445
aF0.009333934780328068
asg9
(lp109
F14.404718762065302
aF0.5609948327450457
asg17
(lp110
sg24
g55
sg26
(lp111
g57
ag48
asba(iTFClasses
function
p112
(dp113
g15
(lp114
F0.3835848164332735
aF0.16075487123992713
aF0.006058346143585345
asg9
(lp115
F5.616675168070759
aF-1.829464023093527e-08
aF0.054721486978113354
asg17
(lp116
sg24
g63
sg26
(lp117
g57
ag57
ag57
asbasbasS'l'
p118
(lp119
(iTFClasses
TF
p120
(dp121
g5
(iTFClasses
function
p122
(dp123
g8
F0.7
sg9
(lp124
F93.39479212386449
aF32.48380580358725
aF1.3376169817386208
aF36.81533753245577
aF3.698750792039851
asg11
(lp125
g13
ag14
asg15
(lp126
F6.546751422897747
aF0.17625197716252217
aF0.12623560492053265
aF0.40177356692788635
aF0.4875250314527735
asg17
(lp127
g19
ag20
ag21
ag22
asg23
I01
sg24
g25
sg26
(lp128
g28
ag29
ag30
ag31
ag32
asg33
g34
sg35
(lp129
g37
ag38
asbsg39
I0
sg40
g118
sg41
(lp130
(iTFClasses
function
p131
(dp132
g15
(lp133
sg9
(lp134
sg17
(lp135
sg24
g48
sg26
(lp136
sba(iTFClasses
function
p137
(dp138
g15
(lp139
F0.19017822234318993
aF0.003115500067969828
asg9
(lp140
F0.38186293718839553
aF0.9241085817604796
asg17
(lp141
sg24
g55
sg26
(lp142
g57
ag48
asba(iTFClasses
function
p143
(dp144
g15
(lp145
F0.5458658597720746
aF0.0373003027679596
aF0.0035389793765321347
asg9
(lp146
F-9.539502275390485e-11
aF0.5642637365195952
aF0.09155146139503148
asg17
(lp147
sg24
g63
sg26
(lp148
g57
ag57
ag57
asba(iTFClasses
function
p149
(dp150
g15
(lp151
F0.5394521366800412
aF0.0068790499057428
asg9
(lp152
F1.714804682730806
aF0.8497999298308584
asg17
(lp153
sg24
g55
sg26
(lp154
g57
ag48
asba(iTFClasses
function
p155
(dp156
g15
(lp157
F0.2940207163860596
aF0.2672500120261345
aF0.0043980300360829125
asg9
(lp158
F8.439980533860847
aF9.279259240720081e-07
aF0.09924278499289535
asg17
(lp159
sg24
g63
sg26
(lp160
g57
ag57
ag57
asbasba(iTFClasses
TF
p161
(dp162
g5
(iTFClasses
function
p163
(dp164
g8
F0.7
sg9
(lp165
F53.659648728656016
aF31.35625983647435
aF4.294871100899433
aF20.00000000721155
aF13.029962691765263
asg11
(lp166
g13
ag14
asg15
(lp167
F3.433965596136141
aF1.0194530057532294
aF0.6687358326999404
aF5.037502954459885
aF1.1212535123693028
asg17
(lp168
g19
ag20
ag21
ag22
asg23
I01
sg24
g25
sg26
(lp169
g28
ag29
ag30
ag31
ag32
asg33
g34
sg35
(lp170
g37
ag38
asbsg39
I1
sg40
g118
sg41
(lp171
(iTFClasses
function
p172
(dp173
g15
(lp174
sg9
(lp175
sg17
(lp176
sg24
g48
sg26
(lp177
sba(iTFClasses
function
p178
(dp179
g15
(lp180
F0.31250336123304573
aF0.005039420736692207
asg9
(lp181
F-0.006625972690451655
aF0.9180157554987237
asg17
(lp182
sg24
g55
sg26
(lp183
g57
ag48
asba(iTFClasses
function
p184
(dp185
g15
(lp186
F1.3380701420206862
aF0.043190285926368165
aF0.0060017840776828545
asg9
(lp187
F-7.553722433740638e-06
aF0.8088810193870715
aF0.08667059631894664
asg17
(lp188
sg24
g63
sg26
(lp189
g57
ag57
ag57
asba(iTFClasses
function
p190
(dp191
g15
(lp192
F1.2457651204864986
aF0.014472283017604752
asg9
(lp193
F-5.725625538707173
aF0.9175158626948854
asg17
(lp194
sg24
g55
sg26
(lp195
g57
ag48
asba(iTFClasses
function
p196
(dp197
g15
(lp198
F0.38936493433440034
aF0.3546751437256721
aF0.014874389396193614
asg9
(lp199
F12.898469635240556
aF4.703577337614867e-06
aF0.05011532699538775
asg17
(lp200
sg24
g63
sg26
(lp201
g57
ag57
ag57
asbasbas.