(dp0
S'Use_limited_entries'
p1
I00
sS'events_used'
p2
I1570596
sS'quark_Flavour_str'
p3
S'Quark_pdgId'
p4
sS'mc_Pt_str'
p5
S'Jet_mcPt'
p6
sS'DG_rel_weight'
p7
F0.7
sS'SBF_n_bins'
p8
(dp9
S'b'
p10
(lp11
(lp12
I100
aI100
aI100
aI100
aI100
aI100
aI100
aI100
aI100
aI100
aI100
aI100
aI100
aI100
aI100
aI100
aI100
aI100
aI100
aI100
aI100
aI100
aI100
aI100
aI100
aI100
aI100
aI100
aI100
aI100
aI100
aI100
aI100
aI100
aI100
aI100
aI100
aI100
aI100
aI100
aI100
aI100
aI100
aI100
aI100
aI100
aI100
aI100
aI100
aI100
aI100
aI100
aI100
aI100
aI100
aI100
aI100
aI100
aa(lp13
I100
aI100
aI100
aI100
aI100
aI100
aI100
aI100
aI100
aI100
aI100
aI100
aI100
aI100
aI100
aI100
aI100
aI100
aI100
aI100
aI100
aI100
aI100
aI100
aI100
aI100
aI100
aI100
aI100
aI100
aI100
aI100
aI100
aI100
aI100
aI100
aI100
aI100
aI100
aI100
aI100
aI100
aI100
aI100
aI100
aI100
aI100
aI100
aI100
aI100
aI100
aI100
aI100
aI100
aI100
aI100
aI100
aI100
aasS'l'
p14
(lp15
(lp16
I100
aI100
aI100
aI100
aI100
aI100
aI100
aI100
aI100
aI100
aI100
aI100
aI100
aI100
aI100
aI100
aI100
aI100
aI100
aI100
aI100
aI100
aI100
aI100
aI100
aI100
aI100
aI100
aI100
aI100
aI100
aI100
aI100
aI100
aI100
aI100
aI100
aI100
aI100
aI100
aI100
aI100
aI100
aI100
aI100
aI100
aI100
aI100
aI100
aI100
aI100
aI100
aI100
aI100
aI100
aI100
aI100
aI100
aa(lp17
I100
aI100
aI100
aI100
aI100
aI100
aI100
aI100
aI100
aI100
aI100
aI100
aI100
aI100
aI100
aI100
aI100
aI100
aI100
aI100
aI100
aI100
aI100
aI100
aI100
aI100
aI100
aI100
aI100
aI100
aI100
aI100
aI100
aI100
aI100
aI100
aI100
aI100
aI100
aI100
aI100
aI100
aI100
aI100
aI100
aI100
aI100
aI100
aI100
aI100
aI100
aI100
aI100
aI100
aI100
aI100
aI100
aI100
aassS'selection_string'
p18
(dp19
g10
S'abs(Quark_pdgId)==5 && abs(Quark_eta)>=1.0 && abs(Quark_eta)<=2.5 && abs(Quark_pt)>=30.0 && abs(Quark_pt)<=300.0'
p20
sg14
S'abs(Quark_pdgId)!=5 && abs(Quark_eta)>=1.0 && abs(Quark_eta)<=2.5 && abs(Quark_pt)>=30.0 && abs(Quark_pt)<=300.0'
p21
ssS'Draw_ABF_in_single_bins'
p22
I01
sS'reco_Pt_str'
p23
S'Jet_pt'
p24
sS'outputdir'
p25
S'V10_limited_TF_jets_0.3delR_lDG'
p26
sS'quark_Phi_str'
p27
S'Quark_phi'
p28
sS'n_E_hist_bins'
p29
I50000
sS'input_root_file_name'
p30
S'/scratch/tklijnsm/V10_limited_jets_TTJets.root'
p31
sS'input_tree_name'
p32
S'tree'
p33
sS'particles'
p34
(lp35
g10
ag14
asS'E_bounds'
p36
(lp37
F30.0
aF300.0
asS'mc_Eta_str'
p38
S'Jet_mcEta'
p39
sS'mc_Flavour_str'
p40
S'Jet_mcFlavour'
p41
sS'ABFunctions'
p42
(dp43
g10
(lp44
(iTFClasses
function
p45
(dp46
S'par_errors'
p47
(lp48
sS'par_values'
p49
(lp50
sS'par_limits'
p51
(lp52
sS'str'
p53
S'1'
p54
sS'par_initials'
p55
(lp56
sba(iTFClasses
function
p57
(dp58
g47
(lp59
sg49
(lp60
sg51
g52
sg53
S'[0]+[1]*x'
p61
sg55
(lp62
S'0'
p63
ag54
asba(iTFClasses
function
p64
(dp65
g47
(lp66
sg49
(lp67
sg51
g52
sg53
S'sqrt([0]*[0] + x*[1]*[1] + x*x*[2]*[2])'
p68
sg55
(lp69
g63
ag63
ag63
asba(iTFClasses
function
p70
(dp71
g47
(lp72
sg49
(lp73
sg51
g52
sg53
g61
sg55
(lp74
g63
ag54
asba(iTFClasses
function
p75
(dp76
g47
(lp77
sg49
(lp78
sg51
g52
sg53
g68
sg55
(lp79
g63
ag63
ag63
asbasg14
(lp80
(iTFClasses
function
p81
(dp82
g47
(lp83
sg49
(lp84
sg51
g52
sg53
g54
sg55
g56
sba(iTFClasses
function
p85
(dp86
g47
(lp87
sg49
(lp88
sg51
g52
sg53
g61
sg55
(lp89
g63
ag54
asba(iTFClasses
function
p90
(dp91
g47
(lp92
sg49
(lp93
sg51
g52
sg53
g68
sg55
(lp94
g63
ag63
ag63
asba(iTFClasses
function
p95
(dp96
g47
(lp97
sg49
(lp98
sg51
g52
sg53
g61
sg55
(lp99
g63
ag54
asba(iTFClasses
function
p100
(dp101
g47
(lp102
sg49
(lp103
sg51
g52
sg53
g68
sg55
(lp104
g63
ag63
ag63
asbassS'quark_E_str'
p105
S'Quark_pt'
p106
sS'reco_Phi_str'
p107
S'Jet_phi'
p108
sS'eta_axis'
p109
(lp110
F0.0
aF1.0
aF2.5
asS'n_entries_limited'
p111
I5000
sS'quark_Pt_str'
p112
g106
sS'SBF_plot_ranges'
p113
(dp114
g10
(lp115
(lp116
(lp117
I0
aF69.936
aa(lp118
I0
aF75.3252
aa(lp119
I0
aF79.5588
aa(lp120
I0
aF83.112
aa(lp121
I0
aF86.3736
aa(lp122
I0
aF89.3976
aa(lp123
I0
aF92.22720000000001
aa(lp124
I0
aF94.9596
aa(lp125
I0
aF97.584
aa(lp126
I0
aF100.1112
aa(lp127
I0
aF102.6384
aa(lp128
I0
aF105.11160000000001
aa(lp129
I0
aF107.5524
aa(lp130
I0
aF109.9392
aa(lp131
I0
aF112.38
aa(lp132
I0
aF114.7884
aa(lp133
I0
aF117.20760000000001
aa(lp134
I0
aF119.6376
aa(lp135
I0
aF122.1
aa(lp136
I0
aF124.584
aa(lp137
I0
aF127.05720000000001
aa(lp138
I0
aF129.5628
aa(lp139
I0
aF132.09
aa(lp140
I0
aF134.6928
aa(lp141
I0
aF137.274
aa(lp142
I0
aF139.9848
aa(lp143
I0
aF142.674
aa(lp144
I0
aF145.4712
aa(lp145
I0
aF148.32240000000002
aa(lp146
I0
aF151.2492
aa(lp147
I0
aF154.2732
aa(lp148
I0
aF157.3836
aa(lp149
I0
aF160.52640000000002
aa(lp150
I0
aF163.8204
aa(lp151
I0
aF167.2224
aa(lp152
I0
aF170.7
aa(lp153
I0
aF174.4044
aa(lp154
I0
aF178.2492
aa(lp155
I0
aF182.3316
aa(lp156
I0
aF186.5868
aa(lp157
I0
aF191.0472
aa(lp158
I0
aF195.7344
aa(lp159
I0
aF200.7024
aa(lp160
I0
aF206.07000000000002
aa(lp161
I0
aF211.78320000000002
aa(lp162
I0
aF218.0148
aa(lp163
I0
aF224.7216
aa(lp164
I0
aF231.87120000000002
aa(lp165
I0
aF239.9172
aa(lp166
I0
aF248.9136
aa(lp167
I0
aF259.2816
aa(lp168
I0
aF271.3668
aa(lp169
I0
aF285.30960000000005
aa(lp170
I0
aF302.75160000000005
aa(lp171
I0
aF325.0536
aa(lp172
I0
aF357.3132
aa(lp173
I0
aF412.2096
aa(lp174
I0
aF600.0
aaa(lp175
(lp176
I0
aF68.9964
aa(lp177
I0
aF74.3424
aa(lp178
I0
aF78.4032
aa(lp179
I0
aF81.9996
aa(lp180
I0
aF85.1748
aa(lp181
I0
aF88.1016
aa(lp182
I0
aF90.888
aa(lp183
I0
aF93.5016
aa(lp184
I0
aF96.0504
aa(lp185
I0
aF98.5236
aa(lp186
I0
aF100.9536
aa(lp187
I0
aF103.3404
aa(lp188
I0
aF105.684
aa(lp189
I0
aF107.9844
aa(lp190
I0
aF110.3172
aa(lp191
I0
aF112.6608
aa(lp192
I0
aF114.9936
aa(lp193
I0
aF117.2724
aa(lp194
I0
aF119.6268
aa(lp195
I0
aF121.9812
aa(lp196
I0
aF124.3572
aa(lp197
I0
aF126.744
aa(lp198
I0
aF129.14159999999998
aa(lp199
I0
aF131.59320000000002
aa(lp200
I0
aF134.1096
aa(lp201
I0
aF136.68
aa(lp202
I0
aF139.2612
aa(lp203
I0
aF141.864
aa(lp204
I0
aF144.5748
aa(lp205
I0
aF147.372
aa(lp206
I0
aF150.2124
aa(lp207
I0
aF153.0636
aa(lp208
I0
aF156.0552
aa(lp209
I0
aF159.2196
aa(lp210
I0
aF162.38400000000001
aa(lp211
I0
aF165.7104
aa(lp212
I0
aF169.1772
aa(lp213
I0
aF172.79520000000002
aa(lp214
I0
aF176.5968
aa(lp215
I0
aF180.4848
aa(lp216
I0
aF184.6968
aa(lp217
I0
aF189.0492
aa(lp218
I0
aF193.60680000000002
aa(lp219
I0
aF198.6396
aa(lp220
I0
aF203.91
aa(lp221
I0
aF209.58
aa(lp222
I0
aF215.7792
aa(lp223
I0
aF222.5508
aa(lp224
I0
aF230.0352
aa(lp225
I0
aF238.416
aa(lp226
I0
aF247.8768
aa(lp227
I0
aF258.8604
aa(lp228
I0
aF271.8312
aa(lp229
I0
aF287.83680000000004
aa(lp230
I0
aF308.5512
aa(lp231
I0
aF338.3052
aa(lp232
I0
aF389.22720000000004
aa(lp233
I0
aF600.0
aaasg14
(lp234
(lp235
(lp236
I0
aF63.8988
aa(lp237
I0
aF66.9336
aa(lp238
I0
aF69.55799999999999
aa(lp239
I0
aF71.9448
aa(lp240
I0
aF74.1264
aa(lp241
I0
aF76.1892
aa(lp242
I0
aF78.1548
aa(lp243
I0
aF80.0664
aa(lp244
I0
aF81.9456
aa(lp245
I0
aF83.814
aa(lp246
I0
aF85.61760000000001
aa(lp247
I0
aF87.432
aa(lp248
I0
aF89.2248
aa(lp249
I0
aF90.99600000000001
aa(lp250
I0
aF92.78880000000001
aa(lp251
I0
aF94.58160000000001
aa(lp252
I0
aF96.4068
aa(lp253
I0
aF98.2428
aa(lp254
I0
aF100.0788
aa(lp255
I0
aF101.958
aa(lp256
I0
aF103.8156
aa(lp257
I0
aF105.72720000000001
aa(lp258
I0
aF107.66040000000001
aa(lp259
I0
aF109.6368
aa(lp260
I0
aF111.624
aa(lp261
I0
aF113.6868
aa(lp262
I0
aF115.7712
aa(lp263
I0
aF117.9204
aa(lp264
I0
aF120.1452
aa(lp265
I0
aF122.424
aa(lp266
I0
aF124.7676
aa(lp267
I0
aF127.1868
aa(lp268
I0
aF129.72480000000002
aa(lp269
I0
aF132.36
aa(lp270
I0
aF135.04919999999998
aa(lp271
I0
aF137.922
aa(lp272
I0
aF140.8812
aa(lp273
I0
aF143.97
aa(lp274
I0
aF147.264
aa(lp275
I0
aF150.666
aa(lp276
I0
aF154.2192
aa(lp277
I0
aF158.1072
aa(lp278
I0
aF162.1464
aa(lp279
I0
aF166.5852
aa(lp280
I0
aF171.3048
aa(lp281
I0
aF176.37
aa(lp282
I0
aF182.07240000000002
aa(lp283
I0
aF188.25
aa(lp284
I0
aF195.216
aa(lp285
I0
aF202.88400000000001
aa(lp286
I0
aF211.5996
aa(lp287
I0
aF221.7408
aa(lp288
I0
aF234.10680000000002
aa(lp289
I0
aF249.3888
aa(lp290
I0
aF269.62800000000004
aa(lp291
I0
aF298.5396
aa(lp292
I0
aF349.0296
aa(lp293
I0
aF600.0
aaa(lp294
(lp295
I0
aF63.456
aa(lp296
I0
aF66.3072
aa(lp297
I0
aF68.856
aa(lp298
I0
aF71.178
aa(lp299
I0
aF73.3704
aa(lp300
I0
aF75.39
aa(lp301
I0
aF77.35560000000001
aa(lp302
I0
aF79.224
aa(lp303
I0
aF81.08160000000001
aa(lp304
I0
aF82.896
aa(lp305
I0
aF84.6564
aa(lp306
I0
aF86.4492
aa(lp307
I0
aF88.2204
aa(lp308
I0
aF89.9808
aa(lp309
I0
aF91.7412
aa(lp310
I0
aF93.5124
aa(lp311
I0
aF95.3052
aa(lp312
I0
aF97.0764
aa(lp313
I0
aF98.8476
aa(lp314
I0
aF100.662
aa(lp315
I0
aF102.50880000000001
aa(lp316
I0
aF104.3664
aa(lp317
I0
aF106.2348
aa(lp318
I0
aF108.13560000000001
aa(lp319
I0
aF110.0796
aa(lp320
I0
aF112.0992
aa(lp321
I0
aF114.1188
aa(lp322
I0
aF116.1924
aa(lp323
I0
aF118.33080000000001
aa(lp324
I0
aF120.54480000000001
aa(lp325
I0
aF122.802
aa(lp326
I0
aF125.1456
aa(lp327
I0
aF127.554
aa(lp328
I0
aF130.0596
aa(lp329
I0
aF132.7056
aa(lp330
I0
aF135.438
aa(lp331
I0
aF138.3216
aa(lp332
I0
aF141.2484
aa(lp333
I0
aF144.3588
aa(lp334
I0
aF147.6312
aa(lp335
I0
aF151.0224
aa(lp336
I0
aF154.6404
aa(lp337
I0
aF158.5068
aa(lp338
I0
aF162.708
aa(lp339
I0
aF167.1792
aa(lp340
I0
aF172.0068
aa(lp341
I0
aF177.2772
aa(lp342
I0
aF183.0876
aa(lp343
I0
aF189.4704
aa(lp344
I0
aF196.66320000000002
aa(lp345
I0
aF204.8928
aa(lp346
I0
aF214.61280000000002
aa(lp347
I0
aF226.0068
aa(lp348
I0
aF240.2088
aa(lp349
I0
aF258.5364
aa(lp350
I0
aF285.2448
aa(lp351
I0
aF332.106
aa(lp352
I0
aF600.0
aaassS'SBF_fitdata_pickle_filename'
p353
S'V10_limited_TF_jets_0.3delR_lDG/SBF_fitdata_pickle.dat'
p354
sS'date'
p355
S'2015-04-15 16:20:21'
p356
sS'enddate'
p357
S'2015-04-15 16:23:52'
p358
sS'quark_Eta_str'
p359
S'Quark_eta'
p360
sS'n_total_events'
p361
L3338597L
sS'info'
p362
S'*** Information on this config.dat ***\nThis config file contains the input parameters (and some output parameters) used in the creation of TFMat.dat, the matrix of transfer functions. \n\nSome html-overviews are produced in the output directory.\n\n This config.dat was created on: 2015-04-15 16:20:21'
p363
sS'E_or_Pt_str'
p364
S'Pt'
p365
sS'Use_mc_values'
p366
I00
sS'E_value_mean_or_center'
p367
S'm'
p368
sS'reco_E_str'
p369
g24
sS'reco_Eta_str'
p370
S'Jet_eta'
p371
sS'mc_Phi_str'
p372
S'Jet_mcPhi'
p373
sS'SBF_hists_pickle_filename'
p374
S'V10_limited_TF_jets_0.3delR_lDG/SBF_hists_pickle.dat'
p375
sS'bin_functions'
p376
(dp377
g10
(lp378
(iTFClasses
function
p379
(dp380
S'DG_rel_weight'
p381
F0.7
sg49
(lp382
sS'DG_mean'
p383
(lp384
S'[1]'
p385
aS'[3]'
p386
asg47
(lp387
sg51
(lp388
(I1
F31.0
F2000.0
tp389
a(I2
F0.0
F2000.0
tp390
a(I3
F29.0
F2000.0
tp391
a(I4
F0.0
F2000.0
tp392
asS'Is_DG'
p393
I01
sg53
S'[0]*(0.7*exp(-0.5*((x-([1]))/([2]))**2)+(1-0.7)*exp(-0.5*((x-([3]))/([2]+[4]))**2))'
p394
sg55
(lp395
g63
aS'1.2*mean'
p396
aS'0.5*rms'
p397
aS'0.8*mean'
p398
aS'1.0*rms'
p399
asS'fitrange'
p400
(F30.0
F500.0
tp401
sS'DG_rms'
p402
(lp403
S'[2]'
p404
aS'[2]+[4]'
p405
asbag379
asg14
(lp406
g379
ag379
assS'n_E_bins'
p407
I58
sS'mc_E_str'
p408
g6
sS'Use_Pt'
p409
I01
s.