(dp0
S'b'
p1
(lp2
(lp3
(dp4
S'E_value'
p5
F32.89269493024838
sS'i_eta'
p6
I0
sS'n_eta_bins'
p7
I2
sS'single_bin_func'
p8
(iTFClasses
function
p9
(dp10
S'par_errors'
p11
(lp12
F24.0269896002401
aF0.06938235977916563
aF0.0527647960916755
aF0.15170309301299767
aF0.1869615756910914
asS'par_values'
p13
(lp14
F800.2704896051811
aF32.191355688343
aF1.2651750166065012
aF35.84151360775474
aF3.2721396142190162
asS'DG_mean'
p15
(lp16
S'[1]'
p17
aS'[3]'
p18
asS'DG_rel_weight'
p19
F0.7
sS'par_limits'
p20
(lp21
(I1
F31.0
F2000.0
tp22
a(I2
F0.0
F2000.0
tp23
a(I3
F29.0
F2000.0
tp24
a(I4
F0.0
F2000.0
tp25
asS'Is_DG'
p26
I01
sS'str'
p27
S'[0]*(0.7*exp(-0.5*((x-([1]))/([2]))**2)+(1-0.7)*exp(-0.5*((x-([3]))/([2]+[4]))**2))'
p28
sS'par_initials'
p29
(lp30
S'0'
p31
aS'1.2*mean'
p32
aS'0.5*rms'
p33
aS'0.8*mean'
p34
aS'1.0*rms'
p35
asS'fitrange'
p36
(F30.0
F500.0
tp37
sS'DG_rms'
p38
(lp39
S'[2]'
p40
aS'[2]+[4]'
p41
asbsS'eta_bounds'
p42
(lp43
F0.0
aF1.0
asS'n_E_bins'
p44
I58
sS'type'
p45
g1
sS'i_E'
p46
I0
sa(dp47
g5
F36.386646368715084
sg6
I0
sg7
I2
sg8
(iTFClasses
function
p48
(dp49
g11
(lp50
F18.595080899833757
aF0.11652546818979559
aF0.08742209725304262
aF0.3248346726525817
aF0.2913415696740307
asg13
(lp51
F615.2545142173576
aF33.49009185364227
aF2.473198173710167
aF37.20133409467611
aF3.3810331414809713
asg15
(lp52
g17
ag18
asg19
F0.7
sg20
(lp53
g22
ag23
ag24
ag25
asg26
I01
sg27
g28
sg29
(lp54
g31
ag32
ag33
ag34
ag35
asg36
g37
sg38
(lp55
g40
ag41
asbsg42
(lp56
F0.0
aF1.0
asg44
I58
sg45
g1
sg46
I1
sa(dp57
g5
F38.745236151128026
sg6
I0
sg7
I2
sg8
(iTFClasses
function
p58
(dp59
g11
(lp60
F8.89054768974905
aF0.10085140595531783
aF0.10583325348795247
aF8.443535334933344
aF0.2012398150219581
asg13
(lp61
F498.81916633016556
aF35.69029344658875
aF4.089260721921284
aF29.000000015223435
aF8.194828166585232
asg15
(lp62
g17
ag18
asg19
F0.7
sg20
(lp63
g22
ag23
ag24
ag25
asg26
I01
sg27
g28
sg29
(lp64
g31
ag32
ag33
ag34
ag35
asg36
g37
sg38
(lp65
g40
ag41
asbsg42
(lp66
F0.0
aF1.0
asg44
I58
sg45
g1
sg46
I2
sa(dp67
g5
F40.68416516049888
sg6
I0
sg7
I2
sg8
(iTFClasses
function
p68
(dp69
g11
(lp70
F7.12017160004545
aF0.19426157598559257
aF0.16250488030761234
aF0.2656492215811834
aF0.30594651108112325
asg13
(lp71
F465.3538692136567
aF35.59015987712185
aF5.703333037151204
aF29.000000007064546
aF7.163586512716091
asg15
(lp72
g17
ag18
asg19
F0.7
sg20
(lp73
g22
ag23
ag24
ag25
asg26
I01
sg27
g28
sg29
(lp74
g31
ag32
ag33
ag34
ag35
asg36
g37
sg38
(lp75
g40
ag41
asbsg42
(lp76
F0.0
aF1.0
asg44
I58
sg45
g1
sg46
I3
sa(dp77
g5
F42.378542896044664
sg6
I0
sg7
I2
sg8
(iTFClasses
function
p78
(dp79
g11
(lp80
F9.09279885793596
aF0.2250124852187021
aF0.11888188159403512
aF0.7827784276382097
aF0.5104120028702752
asg13
(lp81
F442.2409297502303
aF36.8856561613199
aF4.6412142933920375
aF39.16150451212212
aF4.5799083667590335
asg15
(lp82
g17
ag18
asg19
F0.7
sg20
(lp83
g22
ag23
ag24
ag25
asg26
I01
sg27
g28
sg29
(lp84
g31
ag32
ag33
ag34
ag35
asg36
g37
sg38
(lp85
g40
ag41
asbsg42
(lp86
F0.0
aF1.0
asg44
I58
sg45
g1
sg46
I4
sa(dp87
g5
F43.94568178909388
sg6
I0
sg7
I2
sg8
(iTFClasses
function
p88
(dp89
g11
(lp90
F34.92332083526835
aF1.0380622301925655
aF0.13658689198980944
aF12.606771713454057
aF6.013221326243712
asg13
(lp91
F421.6523896620546
aF38.7322349556244
aF5.590991039684745
aF33.1940409827191
aF6.8759471779527015
asg15
(lp92
g17
ag18
asg19
F0.7
sg20
(lp93
g22
ag23
ag24
ag25
asg26
I01
sg27
g28
sg29
(lp94
g31
ag32
ag33
ag34
ag35
asg36
g37
sg38
(lp95
g40
ag41
asbsg42
(lp96
F0.0
aF1.0
asg44
I58
sg45
g1
sg46
I5
sa(dp97
g5
F45.40707342133914
sg6
I0
sg7
I2
sg8
(iTFClasses
function
p98
(dp99
g11
(lp100
F7.174131099012912
aF0.1412925723655114
aF0.13084517380573812
aF1.4379709368914924
aF0.29931568684538057
asg13
(lp101
F420.48743574650604
aF40.355639074047794
aF5.877489321862273
aF29.000000018400883
aF9.419984093136602
asg15
(lp102
g17
ag18
asg19
F0.7
sg20
(lp103
g22
ag23
ag24
ag25
asg26
I01
sg27
g28
sg29
(lp104
g31
ag32
ag33
ag34
ag35
asg36
g37
sg38
(lp105
g40
ag41
asbsg42
(lp106
F0.0
aF1.0
asg44
I58
sg45
g1
sg46
I6
sa(dp107
g5
F46.79139794081549
sg6
I0
sg7
I2
sg8
(iTFClasses
function
p108
(dp109
g11
(lp110
F6.423160943880799
aF0.4225100005098632
aF0.16745458087108478
aF1.5018696669747165
aF0.8791330782331741
asg13
(lp111
F382.84278500469
aF39.87895932409084
aF6.452789264718595
aF40.11882060225883
aF4.300692260538863
asg15
(lp112
g17
ag18
asg19
F0.7
sg20
(lp113
g22
ag23
ag24
ag25
asg26
I01
sg27
g28
sg29
(lp114
g31
ag32
ag33
ag34
ag35
asg36
g37
sg38
(lp115
g40
ag41
asbsg42
(lp116
F0.0
aF1.0
asg44
I58
sg45
g1
sg46
I7
sa(dp117
g5
F48.13310783353733
sg6
I0
sg7
I2
sg8
(iTFClasses
function
p118
(dp119
g11
(lp120
F7.72968223420088
aF0.2866167426003763
aF0.1310888745345018
aF0.7070550679770733
aF0.4875217889335759
asg13
(lp121
F400.5439199679508
aF40.52437577804987
aF6.07206079189937
aF43.999236567298254
aF3.6408420740018377
asg15
(lp122
g17
ag18
asg19
F0.7
sg20
(lp123
g22
ag23
ag24
ag25
asg26
I01
sg27
g28
sg29
(lp124
g31
ag32
ag33
ag34
ag35
asg36
g37
sg38
(lp125
g40
ag41
asbsg42
(lp126
F0.0
aF1.0
asg44
I58
sg45
g1
sg46
I8
sa(dp127
g5
F49.4236704382796
sg6
I0
sg7
I2
sg8
(iTFClasses
function
p128
(dp129
g11
(lp130
F18.480523634964126
aF0.1522160718794403
aF0.10440105547465661
aF0.40216267750789214
aF0.38706799558418936
asg13
(lp131
F507.0588249409663
aF40.55866213416694
aF4.976844160392679
aF49.65409218150774
aF0.9621910368159403
asg15
(lp132
g17
ag18
asg19
F0.7
sg20
(lp133
g22
ag23
ag24
ag25
asg26
I01
sg27
g28
sg29
(lp134
g31
ag32
ag33
ag34
ag35
asg36
g37
sg38
(lp135
g40
ag41
asbsg42
(lp136
F0.0
aF1.0
asg44
I58
sg45
g1
sg46
I9
sa(dp137
g5
F50.6834560766721
sg6
I0
sg7
I2
sg8
(iTFClasses
function
p138
(dp139
g11
(lp140
F7.111358660742785
aF0.15670582610548323
aF0.14649164694824357
aF2.2351702199838286
aF0.36489321985799794
asg13
(lp141
F411.11074551564445
aF44.51965570830191
aF6.841845268950486
aF29.000000012926755
aF10.86093109540065
asg15
(lp142
g17
ag18
asg19
F0.7
sg20
(lp143
g22
ag23
ag24
ag25
asg26
I01
sg27
g28
sg29
(lp144
g31
ag32
ag33
ag34
ag35
asg36
g37
sg38
(lp145
g40
ag41
asbsg42
(lp146
F0.0
aF1.0
asg44
I58
sg45
g1
sg46
I10
sa(dp147
g5
F51.93816690294439
sg6
I0
sg7
I2
sg8
(iTFClasses
function
p148
(dp149
g11
(lp150
F5.972398788106375
aF0.46894577161625506
aF0.24699070384420763
aF1.3012892651063872
aF0.8860761215088164
asg13
(lp151
F369.79043923421705
aF44.15995374244838
aF7.627980554146818
aF43.5915776552636
aF3.4958325226149833
asg15
(lp152
g17
ag18
asg19
F0.7
sg20
(lp153
g22
ag23
ag24
ag25
asg26
I01
sg27
g28
sg29
(lp154
g31
ag32
ag33
ag34
ag35
asg36
g37
sg38
(lp155
g40
ag41
asbsg42
(lp156
F0.0
aF1.0
asg44
I58
sg45
g1
sg46
I11
sa(dp157
g5
F53.164400694302635
sg6
I0
sg7
I2
sg8
(iTFClasses
function
p158
(dp159
g11
(lp160
F8.483875340394425
aF0.35097623775201114
aF0.13470351141764425
aF0.7510426224745856
aF0.486872211961753
asg13
(lp161
F393.2544370952564
aF44.2376656320959
aF7.18023049770411
aF49.05846512176163
aF1.9641700868187062
asg15
(lp162
g17
ag18
asg19
F0.7
sg20
(lp163
g22
ag23
ag24
ag25
asg26
I01
sg27
g28
sg29
(lp164
g31
ag32
ag33
ag34
ag35
asg36
g37
sg38
(lp165
g40
ag41
asbsg42
(lp166
F0.0
aF1.0
asg44
I58
sg45
g1
sg46
I12
sa(dp167
g5
F54.36891060171919
sg6
I0
sg7
I2
sg8
(iTFClasses
function
p168
(dp169
g11
(lp170
F7.723459600286854
aF0.26057074387352586
aF0.199816027517008
aF1.4407876393183905
aF0.8713191682448445
asg13
(lp171
F373.96481588204534
aF47.38035003689406
aF7.541937745919491
aF38.928316097038234
aF7.146931757831321
asg15
(lp172
g17
ag18
asg19
F0.7
sg20
(lp173
g22
ag23
ag24
ag25
asg26
I01
sg27
g28
sg29
(lp174
g31
ag32
ag33
ag34
ag35
asg36
g37
sg38
(lp175
g40
ag41
asbsg42
(lp176
F0.0
aF1.0
asg44
I58
sg45
g1
sg46
I13
sa(dp177
g5
F55.574849478918324
sg6
I0
sg7
I2
sg8
(iTFClasses
function
p178
(dp179
g11
(lp180
F6.678118012453925
aF0.3068180108405336
aF0.22464028907565048
aF0.9098619809510673
aF0.6760515717227911
asg13
(lp181
F361.5571670539814
aF47.84876999947521
aF7.809545694872133
aF43.52951611591482
aF5.636039324448561
asg15
(lp182
g17
ag18
asg19
F0.7
sg20
(lp183
g22
ag23
ag24
ag25
asg26
I01
sg27
g28
sg29
(lp184
g31
ag32
ag33
ag34
ag35
asg36
g37
sg38
(lp185
g40
ag41
asbsg42
(lp186
F0.0
aF1.0
asg44
I58
sg45
g1
sg46
I14
sa(dp187
g5
F56.788658239738616
sg6
I0
sg7
I2
sg8
(iTFClasses
function
p188
(dp189
g11
(lp190
F8.340450152820642
aF0.2025136020614191
aF0.17901096105660264
aF1.8398613817463065
aF0.9740493495370433
asg13
(lp191
F386.19280323964074
aF50.12049721577942
aF7.6815520525436165
aF36.55241080338009
aF8.489299376715277
asg15
(lp192
g17
ag18
asg19
F0.7
sg20
(lp193
g22
ag23
ag24
ag25
asg26
I01
sg27
g28
sg29
(lp194
g31
ag32
ag33
ag34
ag35
asg36
g37
sg38
(lp195
g40
ag41
asbsg42
(lp196
F0.0
aF1.0
asg44
I58
sg45
g1
sg46
I15
sa(dp197
g5
F57.99385542775471
sg6
I0
sg7
I2
sg8
(iTFClasses
function
p198
(dp199
g11
(lp200
F6.515742679533276
aF0.2990987184969285
aF0.2334374480504886
aF0.8027602977693107
aF0.6978805355921103
asg13
(lp201
F361.58522062855667
aF49.98654730138733
aF8.23539782650573
aF44.57584155750291
aF5.386687607131346
asg15
(lp202
g17
ag18
asg19
F0.7
sg20
(lp203
g22
ag23
ag24
ag25
asg26
I01
sg27
g28
sg29
(lp204
g31
ag32
ag33
ag34
ag35
asg36
g37
sg38
(lp205
g40
ag41
asbsg42
(lp206
F0.0
aF1.0
asg44
I58
sg45
g1
sg46
I16
sa(dp207
g5
F59.211469414640774
sg6
I0
sg7
I2
sg8
(iTFClasses
function
p208
(dp209
g11
(lp210
F6.86988841653023
aF0.22989126750906763
aF0.18538798063688633
aF0.8971231666402879
aF0.6389879239464547
asg13
(lp211
F378.0285733323708
aF52.20545657614717
aF7.838695982320787
aF42.01727400810591
aF7.442583516252377
asg15
(lp212
g17
ag18
asg19
F0.7
sg20
(lp213
g22
ag23
ag24
ag25
asg26
I01
sg27
g28
sg29
(lp214
g31
ag32
ag33
ag34
ag35
asg36
g37
sg38
(lp215
g40
ag41
asbsg42
(lp216
F0.0
aF1.0
asg44
I58
sg45
g1
sg46
I17
sa(dp217
g5
F60.43456643709513
sg6
I0
sg7
I2
sg8
(iTFClasses
function
p218
(dp219
g11
(lp220
F6.232255332230042
aF0.315485660212353
aF0.23971065600109132
aF0.7541237472692579
aF0.676261681326118
asg13
(lp221
F353.56556131579504
aF51.88891728201598
aF8.685067551066016
aF46.98594714649125
aF5.451711909819301
asg15
(lp222
g17
ag18
asg19
F0.7
sg20
(lp223
g22
ag23
ag24
ag25
asg26
I01
sg27
g28
sg29
(lp224
g31
ag32
ag33
ag34
ag35
asg36
g37
sg38
(lp225
g40
ag41
asbsg42
(lp226
F0.0
aF1.0
asg44
I58
sg45
g1
sg46
I18
sa(dp227
g5
F61.66463830076928
sg6
I0
sg7
I2
sg8
(iTFClasses
function
p228
(dp229
g11
(lp230
F6.678759382801316
aF0.2580013082809387
aF0.2141716650649883
aF0.9898198840821308
aF0.7046819373031092
asg13
(lp231
F360.8658544287369
aF53.59183087611354
aF8.58137075036125
aF43.46145007999904
aF7.935399980351421
asg15
(lp232
g17
ag18
asg19
F0.7
sg20
(lp233
g22
ag23
ag24
ag25
asg26
I01
sg27
g28
sg29
(lp234
g31
ag32
ag33
ag34
ag35
asg36
g37
sg38
(lp235
g40
ag41
asbsg42
(lp236
F0.0
aF1.0
asg44
I58
sg45
g1
sg46
I19
sa(dp237
g5
F62.90560157769466
sg6
I0
sg7
I2
sg8
(iTFClasses
function
p238
(dp239
g11
(lp240
F6.75351595662543
aF0.3627394205184338
aF0.2748729144137485
aF0.7675719117990667
aF0.9766560362444721
asg13
(lp241
F366.74765566506767
aF54.610359503722336
aF9.03654339890081
aF46.98396403117583
aF4.635145177144917
asg15
(lp242
g17
ag18
asg19
F0.7
sg20
(lp243
g22
ag23
ag24
ag25
asg26
I01
sg27
g28
sg29
(lp244
g31
ag32
ag33
ag34
ag35
asg36
g37
sg38
(lp245
g40
ag41
asbsg42
(lp246
F0.0
aF1.0
asg44
I58
sg45
g1
sg46
I20
sa(dp247
g5
F64.15178142039258
sg6
I0
sg7
I2
sg8
(iTFClasses
function
p248
(dp249
g11
(lp250
F6.859924372025041
aF0.23076780343800607
aF0.19804488334329573
aF0.6329711200841714
aF0.5575329942334455
asg13
(lp251
F385.9947880840018
aF56.29167613263601
aF8.124749691496014
aF46.17993844633821
aF7.747663221886136
asg15
(lp252
g17
ag18
asg19
F0.7
sg20
(lp253
g22
ag23
ag24
ag25
asg26
I01
sg27
g28
sg29
(lp254
g31
ag32
ag33
ag34
ag35
asg36
g37
sg38
(lp255
g40
ag41
asbsg42
(lp256
F0.0
aF1.0
asg44
I58
sg45
g1
sg46
I21
sa(dp257
g5
F65.4079077499319
sg6
I0
sg7
I2
sg8
(iTFClasses
function
p258
(dp259
g11
(lp260
F6.562893393125446
aF0.27943992584984656
aF0.22965942266456274
aF0.5738166920896859
aF0.562378577553091
asg13
(lp261
F367.3178974858202
aF56.93578843930925
aF8.902610661794652
aF50.00083328757529
aF6.533478274429405
asg15
(lp262
g17
ag18
asg19
F0.7
sg20
(lp263
g22
ag23
ag24
ag25
asg26
I01
sg27
g28
sg29
(lp264
g31
ag32
ag33
ag34
ag35
asg36
g37
sg38
(lp265
g40
ag41
asbsg42
(lp266
F0.0
aF1.0
asg44
I58
sg45
g1
sg46
I22
sa(dp267
g5
F66.68741792793406
sg6
I0
sg7
I2
sg8
(iTFClasses
function
p268
(dp269
g11
(lp270
F6.557470278645705
aF0.28769151166530804
aF0.23518265867167276
aF0.6655742569528869
aF0.6512041528468626
asg13
(lp271
F358.3658920689508
aF57.93988585157633
aF9.159035633756197
aF48.35733196781361
aF7.168725508133966
asg15
(lp272
g17
ag18
asg19
F0.7
sg20
(lp273
g22
ag23
ag24
ag25
asg26
I01
sg27
g28
sg29
(lp274
g31
ag32
ag33
ag34
ag35
asg36
g37
sg38
(lp275
g40
ag41
asbsg42
(lp276
F0.0
aF1.0
asg44
I58
sg45
g1
sg46
I23
sa(dp277
g5
F67.99087709200028
sg6
I0
sg7
I2
sg8
(iTFClasses
function
p278
(dp279
g11
(lp280
F11.519696046236364
aF0.18526283160965207
aF0.20351406875401779
aF0.3636305523511041
aF0.05437913579109388
asg13
(lp281
F448.1267833987501
aF61.41398021503836
aF8.791740790758173
aF46.02003097906634
aF5.095923683029469e-10
asg15
(lp282
g17
ag18
asg19
F0.7
sg20
(lp283
g22
ag23
ag24
ag25
asg26
I01
sg27
g28
sg29
(lp284
g31
ag32
ag33
ag34
ag35
asg36
g37
sg38
(lp285
g40
ag41
asbsg42
(lp286
F0.0
aF1.0
asg44
I58
sg45
g1
sg46
I24
sa(dp287
g5
F69.31501173594133
sg6
I0
sg7
I2
sg8
(iTFClasses
function
p288
(dp289
g11
(lp290
F6.568451307685929
aF0.2921590920908379
aF0.23673964299930628
aF0.609715395556993
aF0.6471722467913388
asg13
(lp291
F371.51342285873255
aF60.75188824540835
aF9.416104295990602
aF51.25445123766302
aF6.867415591730097
asg15
(lp292
g17
ag18
asg19
F0.7
sg20
(lp293
g22
ag23
ag24
ag25
asg26
I01
sg27
g28
sg29
(lp294
g31
ag32
ag33
ag34
ag35
asg36
g37
sg38
(lp295
g40
ag41
asbsg42
(lp296
F0.0
aF1.0
asg44
I58
sg45
g1
sg46
I25
sa(dp297
g5
F70.66086703499079
sg6
I0
sg7
I2
sg8
(iTFClasses
function
p298
(dp299
g11
(lp300
F6.6311852090732275
aF0.26635007682147815
aF0.21500203229396497
aF0.599328867117304
aF0.5979278407204913
asg13
(lp301
F378.6870373307259
aF62.096062838978625
aF9.162922505889792
aF50.834816918599216
aF7.945471760060663
asg15
(lp302
g17
ag18
asg19
F0.7
sg20
(lp303
g22
ag23
ag24
ag25
asg26
I01
sg27
g28
sg29
(lp304
g31
ag32
ag33
ag34
ag35
asg36
g37
sg38
(lp305
g40
ag41
asbsg42
(lp306
F0.0
aF1.0
asg44
I58
sg45
g1
sg46
I26
sa(dp307
g5
F72.03198895839
sg6
I0
sg7
I2
sg8
(iTFClasses
function
p308
(dp309
g11
(lp310
F7.241636654839944
aF0.2736156119186113
aF0.2365882008332214
aF0.5220650445707662
aF0.5182983021099208
asg13
(lp311
F390.3870795628202
aF63.16667730825227
aF9.041778455657457
aF54.146238952265186
aF7.11211340854967
asg15
(lp312
g17
ag18
asg19
F0.7
sg20
(lp313
g22
ag23
ag24
ag25
asg26
I01
sg27
g28
sg29
(lp314
g31
ag32
ag33
ag34
ag35
asg36
g37
sg38
(lp315
g40
ag41
asbsg42
(lp316
F0.0
aF1.0
asg44
I58
sg45
g1
sg46
I27
sa(dp317
g5
F73.4491852332491
sg6
I0
sg7
I2
sg8
(iTFClasses
function
p318
(dp319
g11
(lp320
F6.844090320548399
aF0.28927735173130387
aF0.24503109157714142
aF0.5780932247549835
aF0.5944812529915522
asg13
(lp321
F380.936811808301
aF64.172085377016
aF9.685290465821005
aF54.152660914247576
aF7.405387236591898
asg15
(lp322
g17
ag18
asg19
F0.7
sg20
(lp323
g22
ag23
ag24
ag25
asg26
I01
sg27
g28
sg29
(lp324
g31
ag32
ag33
ag34
ag35
asg36
g37
sg38
(lp325
g40
ag41
asbsg42
(lp326
F0.0
aF1.0
asg44
I58
sg45
g1
sg46
I28
sa(dp327
g5
F74.8892863229308
sg6
I0
sg7
I2
sg8
(iTFClasses
function
p328
(dp329
g11
(lp330
F12.114638859353562
aF0.19952746255704312
aF0.19913657592268752
aF0.6289160781057888
aF0.46269397278569935
asg13
(lp331
F446.20010624916654
aF67.41557125700994
aF9.520080644580208
aF50.259576808561064
aF1.1014237107229707
asg15
(lp332
g17
ag18
asg19
F0.7
sg20
(lp333
g22
ag23
ag24
ag25
asg26
I01
sg27
g28
sg29
(lp334
g31
ag32
ag33
ag34
ag35
asg36
g37
sg38
(lp335
g40
ag41
asbsg42
(lp336
F0.0
aF1.0
asg44
I58
sg45
g1
sg46
I29
sa(dp337
g5
F76.37599435582823
sg6
I0
sg7
I2
sg8
(iTFClasses
function
p338
(dp339
g11
(lp340
F6.849824208827135
aF0.29806314956779545
aF0.23018536886781948
aF0.6037769630742176
aF0.6372770612945167
asg13
(lp341
F381.04336595224163
aF66.96732634159022
aF9.74670782310727
aF54.74173844767316
aF7.839205723542353
asg15
(lp342
g17
ag18
asg19
F0.7
sg20
(lp343
g22
ag23
ag24
ag25
asg26
I01
sg27
g28
sg29
(lp344
g31
ag32
ag33
ag34
ag35
asg36
g37
sg38
(lp345
g40
ag41
asbsg42
(lp346
F0.0
aF1.0
asg44
I58
sg45
g1
sg46
I30
sa(dp347
g5
F77.91287918968692
sg6
I0
sg7
I2
sg8
(iTFClasses
function
p348
(dp349
g11
(lp350
F7.039408900292383
aF0.29134070984896
aF0.22321325658891666
aF0.5901246214074973
aF0.6428949961648782
asg13
(lp351
F387.75179662167903
aF68.6252657266662
aF9.42504107816655
aF55.928897584133445
aF8.128973594051736
asg15
(lp352
g17
ag18
asg19
F0.7
sg20
(lp353
g22
ag23
ag24
ag25
asg26
I01
sg27
g28
sg29
(lp354
g31
ag32
ag33
ag34
ag35
asg36
g37
sg38
(lp355
g40
ag41
asbsg42
(lp356
F0.0
aF1.0
asg44
I58
sg45
g1
sg46
I31
sa(dp357
g5
F79.46770216414863
sg6
I0
sg7
I2
sg8
(iTFClasses
function
p358
(dp359
g11
(lp360
F10.578784567675315
aF0.20705179363555715
aF0.1770105302463243
aF0.6194680960555701
aF0.49165238733672734
asg13
(lp361
F468.7332010028379
aF71.64067594839149
aF9.843202560671283
aF51.38093805709361
aF0.5284703288118697
asg15
(lp362
g17
ag18
asg19
F0.7
sg20
(lp363
g22
ag23
ag24
ag25
asg26
I01
sg27
g28
sg29
(lp364
g31
ag32
ag33
ag34
ag35
asg36
g37
sg38
(lp365
g40
ag41
asbsg42
(lp366
F0.0
aF1.0
asg44
I58
sg45
g1
sg46
I32
sa(dp367
g5
F81.07633117590953
sg6
I0
sg7
I2
sg8
(iTFClasses
function
p368
(dp369
g11
(lp370
F12.932942194190634
aF0.22924216931360064
aF0.20927401788623
aF0.705342571172288
aF0.6426997025149594
asg13
(lp371
F446.69193343829244
aF73.07628256392502
aF9.921327157357162
aF54.20133800979872
aF2.6343228999335944
asg15
(lp372
g17
ag18
asg19
F0.7
sg20
(lp373
g22
ag23
ag24
ag25
asg26
I01
sg27
g28
sg29
(lp374
g31
ag32
ag33
ag34
ag35
asg36
g37
sg38
(lp375
g40
ag41
asbsg42
(lp376
F0.0
aF1.0
asg44
I58
sg45
g1
sg46
I33
sa(dp377
g5
F82.75078590590317
sg6
I0
sg7
I2
sg8
(iTFClasses
function
p378
(dp379
g11
(lp380
F9.681909446600452
aF0.20628921116068
aF0.18032958369240681
aF0.5943950903574908
aF0.3916103225604095
asg13
(lp381
F476.3056912123161
aF74.52161845587241
aF9.953362891859218
aF54.24254810936527
aF0.0949866329722493
asg15
(lp382
g17
ag18
asg19
F0.7
sg20
(lp383
g22
ag23
ag24
ag25
asg26
I01
sg27
g28
sg29
(lp384
g31
ag32
ag33
ag34
ag35
asg36
g37
sg38
(lp385
g40
ag41
asbsg42
(lp386
F0.0
aF1.0
asg44
I58
sg45
g1
sg46
I34
sa(dp387
g5
F84.47442715191167
sg6
I0
sg7
I2
sg8
(iTFClasses
function
p388
(dp389
g11
(lp390
F11.831583180651215
aF0.22513785882189552
aF0.20439412894257547
aF0.698832894958425
aF0.5430551217737167
asg13
(lp391
F449.46009666466773
aF75.85248894404961
aF10.250833508025137
aF56.60239598793328
aF2.2295247726046297
asg15
(lp392
g17
ag18
asg19
F0.7
sg20
(lp393
g22
ag23
ag24
ag25
asg26
I01
sg27
g28
sg29
(lp394
g31
ag32
ag33
ag34
ag35
asg36
g37
sg38
(lp395
g40
ag41
asbsg42
(lp396
F0.0
aF1.0
asg44
I58
sg45
g1
sg46
I35
sa(dp397
g5
F86.26454395589437
sg6
I0
sg7
I2
sg8
(iTFClasses
function
p398
(dp399
g11
(lp400
F7.510854986981176
aF0.38572220171751326
aF0.2754754706592033
aF0.8108322500173344
aF0.8379192447892643
asg13
(lp401
F386.62813898355313
aF75.829228230051
aF10.82972246440117
aF62.78307071427328
aF7.658046306291522
asg15
(lp402
g17
ag18
asg19
F0.7
sg20
(lp403
g22
ag23
ag24
ag25
asg26
I01
sg27
g28
sg29
(lp404
g31
ag32
ag33
ag34
ag35
asg36
g37
sg38
(lp405
g40
ag41
asbsg42
(lp406
F0.0
aF1.0
asg44
I58
sg45
g1
sg46
I36
sa(dp407
g5
F88.1483629750715
sg6
I0
sg7
I2
sg8
(iTFClasses
function
p408
(dp409
g11
(lp410
F10.999917483752506
aF0.244905872678153
aF0.2034215659462708
aF0.7416436480403164
aF0.5637999688255513
asg13
(lp411
F444.94266195734775
aF79.13141982945493
aF10.719975668900815
aF59.219628410684095
aF3.13671834634488
asg15
(lp412
g17
ag18
asg19
F0.7
sg20
(lp413
g22
ag23
ag24
ag25
asg26
I01
sg27
g28
sg29
(lp414
g31
ag32
ag33
ag34
ag35
asg36
g37
sg38
(lp415
g40
ag41
asbsg42
(lp416
F0.0
aF1.0
asg44
I58
sg45
g1
sg46
I37
sa(dp417
g5
F90.13934626479794
sg6
I0
sg7
I2
sg8
(iTFClasses
function
p418
(dp419
g11
(lp420
F7.356049247399768
aF0.3213576711405679
aF0.2671853069019514
aF0.6252533186164442
aF0.5997699158973857
asg13
(lp421
F398.9302569495863
aF79.15257615012798
aF10.622936096744361
aF66.32972182352471
aF9.200140120144473
asg15
(lp422
g17
ag18
asg19
F0.7
sg20
(lp423
g22
ag23
ag24
ag25
asg26
I01
sg27
g28
sg29
(lp424
g31
ag32
ag33
ag34
ag35
asg36
g37
sg38
(lp425
g40
ag41
asbsg42
(lp426
F0.0
aF1.0
asg44
I58
sg45
g1
sg46
I38
sa(dp427
g5
F92.2152910291315
sg6
I0
sg7
I2
sg8
(iTFClasses
function
p428
(dp429
g11
(lp430
F7.852430428323992
aF0.29998114080051863
aF0.26462671841132135
aF0.6039257263503188
aF0.5811417824788663
asg13
(lp431
F421.19561807675325
aF81.66049927815041
aF10.1710523758205
aF67.67884534090626
aF9.732486778665672
asg15
(lp432
g17
ag18
asg19
F0.7
sg20
(lp433
g22
ag23
ag24
ag25
asg26
I01
sg27
g28
sg29
(lp434
g31
ag32
ag33
ag34
ag35
asg36
g37
sg38
(lp435
g40
ag41
asbsg42
(lp436
F0.0
aF1.0
asg44
I58
sg45
g1
sg46
I39
sa(dp437
g5
F94.39841906964092
sg6
I0
sg7
I2
sg8
(iTFClasses
function
p438
(dp439
g11
(lp440
F8.582979585962473
aF0.5053495352908328
aF0.3386891058339563
aF1.4192318618015491
aF1.2167720608903814
asg13
(lp441
F413.9579432587863
aF83.92899055609566
aF11.010740972671517
aF69.76571371678328
aF7.850719523155747
asg15
(lp442
g17
ag18
asg19
F0.7
sg20
(lp443
g22
ag23
ag24
ag25
asg26
I01
sg27
g28
sg29
(lp444
g31
ag32
ag33
ag34
ag35
asg36
g37
sg38
(lp445
g40
ag41
asbsg42
(lp446
F0.0
aF1.0
asg44
I58
sg45
g1
sg46
I40
sa(dp447
g5
F96.6806603263467
sg6
I0
sg7
I2
sg8
(iTFClasses
function
p448
(dp449
g11
(lp450
F7.999666040685326
aF0.36367820286244523
aF0.2650927648137902
aF0.7759056677316636
aF0.746353619481166
asg13
(lp451
F414.3259000472791
aF86.06829122623616
aF10.815759444239514
aF70.68982528077476
aF9.135173609938207
asg15
(lp452
g17
ag18
asg19
F0.7
sg20
(lp453
g22
ag23
ag24
ag25
asg26
I01
sg27
g28
sg29
(lp454
g31
ag32
ag33
ag34
ag35
asg36
g37
sg38
(lp455
g40
ag41
asbsg42
(lp456
F0.0
aF1.0
asg44
I58
sg45
g1
sg46
I41
sa(dp457
g5
F99.10516018210234
sg6
I0
sg7
I2
sg8
(iTFClasses
function
p458
(dp459
g11
(lp460
F9.880483520043075
aF0.24625375860593834
aF0.2176814546994139
aF0.7029204231300668
aF0.4794462910813757
asg13
(lp461
F460.2293618343276
aF89.3587213761109
aF11.720829851415647
aF66.38368307443785
aF2.814469599042635
asg15
(lp462
g17
ag18
asg19
F0.7
sg20
(lp463
g22
ag23
ag24
ag25
asg26
I01
sg27
g28
sg29
(lp464
g31
ag32
ag33
ag34
ag35
asg36
g37
sg38
(lp465
g40
ag41
asbsg42
(lp466
F0.0
aF1.0
asg44
I58
sg45
g1
sg46
I42
sa(dp467
g5
F101.6823548391494
sg6
I0
sg7
I2
sg8
(iTFClasses
function
p468
(dp469
g11
(lp470
F11.620061624138508
aF0.37722193091860845
aF0.22895572935227548
aF1.0537341648141236
aF0.9043438271746362
asg13
(lp471
F441.6160078197339
aF91.23140381522296
aF11.76212821134548
aF70.82968020943466
aF5.956018334561608
asg15
(lp472
g17
ag18
asg19
F0.7
sg20
(lp473
g22
ag23
ag24
ag25
asg26
I01
sg27
g28
sg29
(lp474
g31
ag32
ag33
ag34
ag35
asg36
g37
sg38
(lp475
g40
ag41
asbsg42
(lp476
F0.0
aF1.0
asg44
I58
sg45
g1
sg46
I43
sa(dp477
g5
F104.44222390253863
sg6
I0
sg7
I2
sg8
(iTFClasses
function
p478
(dp479
g11
(lp480
F8.245796823360402
aF0.4090963913238852
aF0.30943613404710213
aF0.9763711126431076
aF0.9262057159655779
asg13
(lp481
F419.36530194381413
aF93.13970495543
aF11.931365284676199
aF76.04220617208097
aF9.343221973510897
asg15
(lp482
g17
ag18
asg19
F0.7
sg20
(lp483
g22
ag23
ag24
ag25
asg26
I01
sg27
g28
sg29
(lp484
g31
ag32
ag33
ag34
ag35
asg36
g37
sg38
(lp485
g40
ag41
asbsg42
(lp486
F0.0
aF1.0
asg44
I58
sg45
g1
sg46
I44
sa(dp487
g5
F107.42971577439815
sg6
I0
sg7
I2
sg8
(iTFClasses
function
p488
(dp489
g11
(lp490
F10.782746417936545
aF0.36246857199302696
aF0.24122780582919123
aF1.1952869436039322
aF0.8487530439207358
asg13
(lp491
F447.32950603682184
aF96.89318453629369
aF12.330020009487463
aF75.99776884128701
aF6.029572957933382
asg15
(lp492
g17
ag18
asg19
F0.7
sg20
(lp493
g22
ag23
ag24
ag25
asg26
I01
sg27
g28
sg29
(lp494
g31
ag32
ag33
ag34
ag35
asg36
g37
sg38
(lp495
g40
ag41
asbsg42
(lp496
F0.0
aF1.0
asg44
I58
sg45
g1
sg46
I45
sa(dp497
g5
F110.65381464807889
sg6
I0
sg7
I2
sg8
(iTFClasses
function
p498
(dp499
g11
(lp500
F7.778265188996628
aF0.3746560893675053
aF0.2877512854849167
aF0.7881204951367806
aF0.6880234651335808
asg13
(lp501
F427.7180505355969
aF98.48863872536315
aF12.168475296043479
aF81.78419419736773
aF10.46186639671065
asg15
(lp502
g17
ag18
asg19
F0.7
sg20
(lp503
g22
ag23
ag24
ag25
asg26
I01
sg27
g28
sg29
(lp504
g31
ag32
ag33
ag34
ag35
asg36
g37
sg38
(lp505
g40
ag41
asbsg42
(lp506
F0.0
aF1.0
asg44
I58
sg45
g1
sg46
I46
sa(dp507
g5
F114.1105767594108
sg6
I0
sg7
I2
sg8
(iTFClasses
function
p508
(dp509
g11
(lp510
F8.73270633016506
aF0.5386893136310391
aF0.3829512968271942
aF1.6265124475651902
aF1.2818493216603102
asg13
(lp511
F432.23150168714216
aF102.13593957181493
aF12.492444411574155
aF84.97231894120134
aF9.594534816067757
asg15
(lp512
g17
ag18
asg19
F0.7
sg20
(lp513
g22
ag23
ag24
ag25
asg26
I01
sg27
g28
sg29
(lp514
g31
ag32
ag33
ag34
ag35
asg36
g37
sg38
(lp515
g40
ag41
asbsg42
(lp516
F0.0
aF1.0
asg44
I58
sg45
g1
sg46
I47
sa(dp517
g5
F117.9010666076897
sg6
I0
sg7
I2
sg8
(iTFClasses
function
p518
(dp519
g11
(lp520
F8.236622880692998
aF0.3905751806345563
aF0.3458754137048441
aF0.8394951012526803
aF0.7316651488651349
asg13
(lp521
F425.9186825386729
aF105.25085689194415
aF12.620104216872097
aF87.17006077064704
aF11.974199712604827
asg15
(lp522
g17
ag18
asg19
F0.7
sg20
(lp523
g22
ag23
ag24
ag25
asg26
I01
sg27
g28
sg29
(lp524
g31
ag32
ag33
ag34
ag35
asg36
g37
sg38
(lp525
g40
ag41
asbsg42
(lp526
F0.0
aF1.0
asg44
I58
sg45
g1
sg46
I48
sa(dp527
g5
F122.1581274262753
sg6
I0
sg7
I2
sg8
(iTFClasses
function
p528
(dp529
g11
(lp530
F8.310481174077205
aF0.3884719490845683
aF0.3373190520541973
aF1.0246883042842825
aF0.8834979024109337
asg13
(lp531
F449.7172971307739
aF110.14902192953761
aF12.682365830732234
aF89.78602065749072
aF11.461798269628343
asg15
(lp532
g17
ag18
asg19
F0.7
sg20
(lp533
g22
ag23
ag24
ag25
asg26
I01
sg27
g28
sg29
(lp534
g31
ag32
ag33
ag34
ag35
asg36
g37
sg38
(lp535
g40
ag41
asbsg42
(lp536
F0.0
aF1.0
asg44
I58
sg45
g1
sg46
I49
sa(dp537
g5
F126.99501391233325
sg6
I0
sg7
I2
sg8
(iTFClasses
function
p538
(dp539
g11
(lp540
F8.159833964694327
aF0.37233039679944824
aF0.32117993934127576
aF0.8043506036665633
aF0.67182842334923
asg13
(lp541
F449.2299320516164
aF114.7121978912128
aF12.636017913372545
aF96.24946819596245
aF13.138399687608992
asg15
(lp542
g17
ag18
asg19
F0.7
sg20
(lp543
g22
ag23
ag24
ag25
asg26
I01
sg27
g28
sg29
(lp544
g31
ag32
ag33
ag34
ag35
asg36
g37
sg38
(lp545
g40
ag41
asbsg42
(lp546
F0.0
aF1.0
asg44
I58
sg45
g1
sg46
I50
sa(dp547
g5
F132.60873623543839
sg6
I0
sg7
I2
sg8
(iTFClasses
function
p548
(dp549
g11
(lp550
F8.660496607007705
aF0.4435865565179711
aF0.39743395890201594
aF1.035605036703494
aF0.8474261957515656
asg13
(lp551
F443.60188252448927
aF119.24180710566151
aF13.658789507131397
aF101.07702213554003
aF13.04753764608735
asg15
(lp552
g17
ag18
asg19
F0.7
sg20
(lp553
g22
ag23
ag24
ag25
asg26
I01
sg27
g28
sg29
(lp554
g31
ag32
ag33
ag34
ag35
asg36
g37
sg38
(lp555
g40
ag41
asbsg42
(lp556
F0.0
aF1.0
asg44
I58
sg45
g1
sg46
I51
sa(dp557
g5
F139.06635195150193
sg6
I0
sg7
I2
sg8
(iTFClasses
function
p558
(dp559
g11
(lp560
F8.868527126068013
aF0.41007224209541704
aF0.3759588426903715
aF0.8489347459010332
aF0.6880330180025211
asg13
(lp561
F459.52822373181067
aF126.17189680789511
aF13.466467948432982
aF106.60962333916869
aF14.575162475866655
asg15
(lp562
g17
ag18
asg19
F0.7
sg20
(lp563
g22
ag23
ag24
ag25
asg26
I01
sg27
g28
sg29
(lp564
g31
ag32
ag33
ag34
ag35
asg36
g37
sg38
(lp565
g40
ag41
asbsg42
(lp566
F0.0
aF1.0
asg44
I58
sg45
g1
sg46
I52
sa(dp567
g5
F146.8451687542546
sg6
I0
sg7
I2
sg8
(iTFClasses
function
p568
(dp569
g11
(lp570
F8.451663140400095
aF0.38769127915770696
aF0.3447835058586488
aF0.7537411053506844
aF0.6180048358901402
asg13
(lp571
F468.9786868043263
aF132.99867618591784
aF13.982575505344874
aF112.76780576823468
aF16.085654667182702
asg15
(lp572
g17
ag18
asg19
F0.7
sg20
(lp573
g22
ag23
ag24
ag25
asg26
I01
sg27
g28
sg29
(lp574
g31
ag32
ag33
ag34
ag35
asg36
g37
sg38
(lp575
g40
ag41
asbsg42
(lp576
F0.0
aF1.0
asg44
I58
sg45
g1
sg46
I53
sa(dp577
g5
F156.63551253830963
sg6
I0
sg7
I2
sg8
(iTFClasses
function
p578
(dp579
g11
(lp580
F8.942745058057042
aF0.41289263726612546
aF0.3938070321274907
aF0.8041857329489162
aF0.645454465454387
asg13
(lp581
F471.1592907053278
aF142.9081713493169
aF14.355072051182582
aF121.83710389572344
aF18.06119928778194
asg15
(lp582
g17
ag18
asg19
F0.7
sg20
(lp583
g22
ag23
ag24
ag25
asg26
I01
sg27
g28
sg29
(lp584
g31
ag32
ag33
ag34
ag35
asg36
g37
sg38
(lp585
g40
ag41
asbsg42
(lp586
F0.0
aF1.0
asg44
I58
sg45
g1
sg46
I54
sa(dp587
g5
F170.0089161764706
sg6
I0
sg7
I2
sg8
(iTFClasses
function
p588
(dp589
g11
(lp590
F9.26750878995238
aF0.46162286010570597
aF0.43238488787522567
aF0.9047582878401101
aF0.7220396630678856
asg13
(lp591
F488.59263800511576
aF156.55413495776477
aF15.639476622726134
aF133.8447146501989
aF19.209593904091605
asg15
(lp592
g17
ag18
asg19
F0.7
sg20
(lp593
g22
ag23
ag24
ag25
asg26
I01
sg27
g28
sg29
(lp594
g31
ag32
ag33
ag34
ag35
asg36
g37
sg38
(lp595
g40
ag41
asbsg42
(lp596
F0.0
aF1.0
asg44
I58
sg45
g1
sg46
I55
sa(dp597
g5
F190.7925176326364
sg6
I0
sg7
I2
sg8
(iTFClasses
function
p598
(dp599
g11
(lp600
F9.174700256404675
aF0.48670825269006457
aF0.46361689760626845
aF0.887848149324185
aF0.7093813205020236
asg13
(lp601
F487.88117465814634
aF175.44934464756435
aF17.434465146869304
aF152.18658479683944
aF23.92033044970754
asg15
(lp602
g17
ag18
asg19
F0.7
sg20
(lp603
g22
ag23
ag24
ag25
asg26
I01
sg27
g28
sg29
(lp604
g31
ag32
ag33
ag34
ag35
asg36
g37
sg38
(lp605
g40
ag41
asbsg42
(lp606
F0.0
aF1.0
asg44
I58
sg45
g1
sg46
I56
sa(dp607
g5
F238.03245222661036
sg6
I0
sg7
I2
sg8
(iTFClasses
function
p608
(dp609
g11
(lp610
F8.983229879116475
aF0.8324339942717813
aF0.9438754827444935
aF1.3534653521159328
aF1.2016297149904354
asg13
(lp611
F431.0734137332743
aF211.41255741875008
aF30.555544931340386
aF208.51141433778557
aF32.54223375618614
asg15
(lp612
g17
ag18
asg19
F0.7
sg20
(lp613
g22
ag23
ag24
ag25
asg26
I01
sg27
g28
sg29
(lp614
g31
ag32
ag33
ag34
ag35
asg36
g37
sg38
(lp615
g40
ag41
asbsg42
(lp616
F0.0
aF1.0
asg44
I58
sg45
g1
sg46
I57
saa(lp617
(dp618
g5
F32.53371593090211
sg6
I1
sg7
I2
sg8
(iTFClasses
function
p619
(dp620
g11
(lp621
F9.73082677681408
aF0.20186813705615414
aF0.2052817243211047
aF0.5655021460561542
aF0.2514194984198914
asg13
(lp622
F432.6982980561618
aF31.951546314770155
aF3.4433281476292654
aF29.000000020801938
aF7.142374011789299
asg15
(lp623
g17
ag18
asg19
F0.7
sg20
(lp624
g22
ag23
ag24
ag25
asg26
I01
sg27
g28
sg29
(lp625
g31
ag32
ag33
ag34
ag35
asg36
g37
sg38
(lp626
g40
ag41
asbsg42
(lp627
F1.0
aF2.5
asg44
I58
sg45
g1
sg46
I0
sa(dp628
g5
F35.895443569072924
sg6
I1
sg7
I2
sg8
(iTFClasses
function
p629
(dp630
g11
(lp631
F7.30405673664583
aF0.29953129579240567
aF0.21460702383924168
aF0.33926616051059355
aF0.3197366699551618
asg13
(lp632
F385.2933518142342
aF32.38184628580796
aF5.017855654947612
aF29.00000001341167
aF6.417931269829369
asg15
(lp633
g17
ag18
asg19
F0.7
sg20
(lp634
g22
ag23
ag24
ag25
asg26
I01
sg27
g28
sg29
(lp635
g31
ag32
ag33
ag34
ag35
asg36
g37
sg38
(lp636
g40
ag41
asbsg42
(lp637
F1.0
aF2.5
asg44
I58
sg45
g1
sg46
I1
sa(dp638
g5
F38.20895131326073
sg6
I1
sg7
I2
sg8
(iTFClasses
function
p639
(dp640
g11
(lp641
F6.74800422669363
aF0.2607133570988296
aF0.22720940289466807
aF0.7674521441822613
aF0.3350488192274681
asg13
(lp642
F356.3036047797751
aF33.644619436053105
aF5.32686373667246
aF29.00000000137389
aF7.2898470373977675
asg15
(lp643
g17
ag18
asg19
F0.7
sg20
(lp644
g22
ag23
ag24
ag25
asg26
I01
sg27
g28
sg29
(lp645
g31
ag32
ag33
ag34
ag35
asg36
g37
sg38
(lp646
g40
ag41
asbsg42
(lp647
F1.0
aF2.5
asg44
I58
sg45
g1
sg46
I2
sa(dp648
g5
F40.11879492348575
sg6
I1
sg7
I2
sg8
(iTFClasses
function
p649
(dp650
g11
(lp651
F6.491880330756619
aF0.17809061763555079
aF0.18918092581765578
aF5.208289175169451
aF0.3108056641751844
asg13
(lp652
F320.9083377196819
aF35.67556140574962
aF5.368050294961679
aF29.000000250232468
aF8.502155442618452
asg15
(lp653
g17
ag18
asg19
F0.7
sg20
(lp654
g22
ag23
ag24
ag25
asg26
I01
sg27
g28
sg29
(lp655
g31
ag32
ag33
ag34
ag35
asg36
g37
sg38
(lp656
g40
ag41
asbsg42
(lp657
F1.0
aF2.5
asg44
I58
sg45
g1
sg46
I3
sa(dp658
g5
F41.799240373694815
sg6
I1
sg7
I2
sg8
(iTFClasses
function
p659
(dp660
g11
(lp661
F7.819133110903819
aF0.4484878450602565
aF0.401586260780018
aF5.097898249231584
aF1.9630767886852918
asg13
(lp662
F316.1693902384684
aF35.04091237301147
aF6.5492533349584825
aF31.451437321806115
aF6.589310207630095
asg15
(lp663
g17
ag18
asg19
F0.7
sg20
(lp664
g22
ag23
ag24
ag25
asg26
I01
sg27
g28
sg29
(lp665
g31
ag32
ag33
ag34
ag35
asg36
g37
sg38
(lp666
g40
ag41
asbsg42
(lp667
F1.0
aF2.5
asg44
I58
sg45
g1
sg46
I4
sa(dp668
g5
F43.318048681318686
sg6
I1
sg7
I2
sg8
(iTFClasses
function
p669
(dp670
g11
(lp671
F5.226162527520782
aF0.3344552405457826
aF0.2722191038428412
aF0.8414139934277838
aF0.5281874585061352
asg13
(lp672
F306.37014428335164
aF35.913972124459484
aF7.440264013331754
aF29.000000011038296
aF6.545963196883053
asg15
(lp673
g17
ag18
asg19
F0.7
sg20
(lp674
g22
ag23
ag24
ag25
asg26
I01
sg27
g28
sg29
(lp675
g31
ag32
ag33
ag34
ag35
asg36
g37
sg38
(lp676
g40
ag41
asbsg42
(lp677
F1.0
aF2.5
asg44
I58
sg45
g1
sg46
I5
sa(dp678
g5
F44.75341712878512
sg6
I1
sg7
I2
sg8
(iTFClasses
function
p679
(dp680
g11
(lp681
F5.604181027976625
aF0.25033729109647496
aF0.22849521309764587
aF1.1406600409491308
aF0.4117109300887938
asg13
(lp682
F304.46670720823533
aF37.77208783918065
aF6.933231867315093
aF29.000000012386806
aF8.785937996226734
asg15
(lp683
g17
ag18
asg19
F0.7
sg20
(lp684
g22
ag23
ag24
ag25
asg26
I01
sg27
g28
sg29
(lp685
g31
ag32
ag33
ag34
ag35
asg36
g37
sg38
(lp686
g40
ag41
asbsg42
(lp687
F1.0
aF2.5
asg44
I58
sg45
g1
sg46
I6
sa(dp688
g5
F46.10252908373842
sg6
I1
sg7
I2
sg8
(iTFClasses
function
p689
(dp690
g11
(lp691
F5.141445059660598
aF0.2867977963348274
aF0.2681544783772476
aF5.242394955430832
aF0.5020782253667972
asg13
(lp692
F284.3996593209275
aF38.43828030785875
aF7.976433428086183
aF29.000000000033808
aF8.083297410958146
asg15
(lp693
g17
ag18
asg19
F0.7
sg20
(lp694
g22
ag23
ag24
ag25
asg26
I01
sg27
g28
sg29
(lp695
g31
ag32
ag33
ag34
ag35
asg36
g37
sg38
(lp696
g40
ag41
asbsg42
(lp697
F1.0
aF2.5
asg44
I58
sg45
g1
sg46
I7
sa(dp698
g5
F47.38993126031921
sg6
I1
sg7
I2
sg8
(iTFClasses
function
p699
(dp700
g11
(lp701
F5.189093290724926
aF0.24390654774910203
aF0.2192889493471406
aF1.8914971525331499
aF0.4815074510998709
asg13
(lp702
F284.580629956596
aF39.860523762401655
aF7.662192400859191
aF29.000000019068516
aF8.720535837108411
asg15
(lp703
g17
ag18
asg19
F0.7
sg20
(lp704
g22
ag23
ag24
ag25
asg26
I01
sg27
g28
sg29
(lp705
g31
ag32
ag33
ag34
ag35
asg36
g37
sg38
(lp706
g40
ag41
asbsg42
(lp707
F1.0
aF2.5
asg44
I58
sg45
g1
sg46
I8
sa(dp708
g5
F48.64083564356436
sg6
I1
sg7
I2
sg8
(iTFClasses
function
p709
(dp710
g11
(lp711
F5.351366420975481
aF0.2076423432652419
aF0.19013243429832904
aF6.0999642440524084
aF0.43142982567984056
asg13
(lp712
F281.81965264402714
aF41.44567768231842
aF7.343429371318599
aF29.000000618644197
aF10.297522230610312
asg15
(lp713
g17
ag18
asg19
F0.7
sg20
(lp714
g22
ag23
ag24
ag25
asg26
I01
sg27
g28
sg29
(lp715
g31
ag32
ag33
ag34
ag35
asg36
g37
sg38
(lp716
g40
ag41
asbsg42
(lp717
F1.0
aF2.5
asg44
I58
sg45
g1
sg46
I9
sa(dp718
g5
F49.864626333150085
sg6
I1
sg7
I2
sg8
(iTFClasses
function
p719
(dp720
g11
(lp721
F6.691145200456488
aF0.1474163723153552
aF0.1386431768320433
aF1661.951249103843
aF13.147710781083674
asg13
(lp722
F366.39541264706594
aF41.938927800852014
aF8.61225112452102
aF1999.999999999525
aF659.4269684525442
asg15
(lp723
g17
ag18
asg19
F0.7
sg20
(lp724
g22
ag23
ag24
ag25
asg26
I01
sg27
g28
sg29
(lp725
g31
ag32
ag33
ag34
ag35
asg36
g37
sg38
(lp726
g40
ag41
asbsg42
(lp727
F1.0
aF2.5
asg44
I58
sg45
g1
sg46
I10
sa(dp728
g5
F51.071759681697614
sg6
I1
sg7
I2
sg8
(iTFClasses
function
p729
(dp730
g11
(lp731
F5.261420118618165
aF0.23061888444458845
aF0.21078174002753203
aF5.009071315246967
aF0.5605923355657128
asg13
(lp732
F286.48538095019353
aF42.78708510027947
aF8.159577065347424
aF29.000000024405
aF8.944837034353004
asg15
(lp733
g17
ag18
asg19
F0.7
sg20
(lp734
g22
ag23
ag24
ag25
asg26
I01
sg27
g28
sg29
(lp735
g31
ag32
ag33
ag34
ag35
asg36
g37
sg38
(lp736
g40
ag41
asbsg42
(lp737
F1.0
aF2.5
asg44
I58
sg45
g1
sg46
I11
sa(dp738
g5
F52.25803836041629
sg6
I1
sg7
I2
sg8
(iTFClasses
function
p739
(dp740
g11
(lp741
F5.23781015729687
aF0.8023297035647268
aF0.32613702198941485
aF3.4347976587408375
aF1.8285046260611004
asg13
(lp742
F253.88075534795064
aF42.93515900019658
aF8.693931906333162
aF40.2809860025571
aF4.956786066410257
asg15
(lp743
g17
ag18
asg19
F0.7
sg20
(lp744
g22
ag23
ag24
ag25
asg26
I01
sg27
g28
sg29
(lp745
g31
ag32
ag33
ag34
ag35
asg36
g37
sg38
(lp746
g40
ag41
asbsg42
(lp747
F1.0
aF2.5
asg44
I58
sg45
g1
sg46
I12
sa(dp748
g5
F53.4151998712762
sg6
I1
sg7
I2
sg8
(iTFClasses
function
p749
(dp750
g11
(lp751
F11.944904088389526
aF0.19043515071805217
aF0.2212591721792445
aF0.5588728651336083
aF0.3737853146072445
asg13
(lp752
F325.50704562304304
aF41.04177578519898
aF6.99881782475642
aF52.869186022626415
aF0.3865231929690571
asg15
(lp753
g17
ag18
asg19
F0.7
sg20
(lp754
g22
ag23
ag24
ag25
asg26
I01
sg27
g28
sg29
(lp755
g31
ag32
ag33
ag34
ag35
asg36
g37
sg38
(lp756
g40
ag41
asbsg42
(lp757
F1.0
aF2.5
asg44
I58
sg45
g1
sg46
I13
sa(dp758
g5
F54.57655400237856
sg6
I1
sg7
I2
sg8
(iTFClasses
function
p759
(dp760
g11
(lp761
F7.875004849311409
aF0.6057128208688667
aF0.3258465497519847
aF3.998973969632207
aF2.0546769089183625
asg13
(lp762
F258.12009570591476
aF45.211370233032824
aF8.962628020136364
aF38.10629263038683
aF6.819815299535237
asg15
(lp763
g17
ag18
asg19
F0.7
sg20
(lp764
g22
ag23
ag24
ag25
asg26
I01
sg27
g28
sg29
(lp765
g31
ag32
ag33
ag34
ag35
asg36
g37
sg38
(lp766
g40
ag41
asbsg42
(lp767
F1.0
aF2.5
asg44
I58
sg45
g1
sg46
I14
sa(dp768
g5
F55.74170243052371
sg6
I1
sg7
I2
sg8
(iTFClasses
function
p769
(dp770
g11
(lp771
F4.677560790713641
aF0.6815136936869877
aF0.32551876220782106
aF2.076252459571254
aF1.2932628156444026
asg13
(lp772
F247.94943111309777
aF45.64506755406984
aF9.012601758594418
aF44.98516837239577
aF4.555223772483741
asg15
(lp773
g17
ag18
asg19
F0.7
sg20
(lp774
g22
ag23
ag24
ag25
asg26
I01
sg27
g28
sg29
(lp775
g31
ag32
ag33
ag34
ag35
asg36
g37
sg38
(lp776
g40
ag41
asbsg42
(lp777
F1.0
aF2.5
asg44
I58
sg45
g1
sg46
I15
sa(dp778
g5
F56.909145259686724
sg6
I1
sg7
I2
sg8
(iTFClasses
function
p779
(dp780
g11
(lp781
F5.446740178884103
aF0.23285717267306794
aF0.20797815975476297
aF2.628108927680902
aF0.5885719486068419
asg13
(lp782
F275.42813205248734
aF48.06096687451654
aF8.552650842340581
aF29.00000000180421
aF12.285797798955223
asg15
(lp783
g17
ag18
asg19
F0.7
sg20
(lp784
g22
ag23
ag24
ag25
asg26
I01
sg27
g28
sg29
(lp785
g31
ag32
ag33
ag34
ag35
asg36
g37
sg38
(lp786
g40
ag41
asbsg42
(lp787
F1.0
aF2.5
asg44
I58
sg45
g1
sg46
I16
sa(dp788
g5
F58.06303985374772
sg6
I1
sg7
I2
sg8
(iTFClasses
function
p789
(dp790
g11
(lp791
F5.190793305968932
aF0.5757116017050379
aF0.36199699653321993
aF1.8984576633074894
aF1.3557310755580865
asg13
(lp792
F257.07159599164555
aF47.82283235888557
aF9.339426621340575
aF44.51168802489408
aF5.067364001427377
asg15
(lp793
g17
ag18
asg19
F0.7
sg20
(lp794
g22
ag23
ag24
ag25
asg26
I01
sg27
g28
sg29
(lp795
g31
ag32
ag33
ag34
ag35
asg36
g37
sg38
(lp796
g40
ag41
asbsg42
(lp797
F1.0
aF2.5
asg44
I58
sg45
g1
sg46
I17
sa(dp798
g5
F59.22239983534577
sg6
I1
sg7
I2
sg8
(iTFClasses
function
p799
(dp800
g11
(lp801
F8.211138629005907
aF0.3245847785519942
aF0.24008800195740587
aF3.8439653765158006
aF1.752438483586693
asg13
(lp802
F262.4757955838168
aF50.164704667665184
aF8.962547644279395
aF35.99049677935671
aF10.197606272420057
asg15
(lp803
g17
ag18
asg19
F0.7
sg20
(lp804
g22
ag23
ag24
ag25
asg26
I01
sg27
g28
sg29
(lp805
g31
ag32
ag33
ag34
ag35
asg36
g37
sg38
(lp806
g40
ag41
asbsg42
(lp807
F1.0
aF2.5
asg44
I58
sg45
g1
sg46
I18
sa(dp808
g5
F60.399938632400186
sg6
I1
sg7
I2
sg8
(iTFClasses
function
p809
(dp810
g11
(lp811
F15.5314224902793
aF2.7471660151755586
aF2.211841690428429
aF7.786038349472452
aF7.023635519671723
asg13
(lp812
F247.92001545246407
aF49.985462537967976
aF9.914941415686496
aF47.468879453569066
aF3.5992970502255472
asg15
(lp813
g17
ag18
asg19
F0.7
sg20
(lp814
g22
ag23
ag24
ag25
asg26
I01
sg27
g28
sg29
(lp815
g31
ag32
ag33
ag34
ag35
asg36
g37
sg38
(lp816
g40
ag41
asbsg42
(lp817
F1.0
aF2.5
asg44
I58
sg45
g1
sg46
I19
sa(dp818
g5
F61.57883894775301
sg6
I1
sg7
I2
sg8
(iTFClasses
function
p819
(dp820
g11
(lp821
F6.224048286999085
aF0.3439897106320231
aF0.27650319834982007
aF2.1908747758372833
aF1.2507764904291507
asg13
(lp822
F258.6379608027107
aF52.34985729974457
aF9.410935468825766
aF40.43952094867184
aF9.21618958288839
asg15
(lp823
g17
ag18
asg19
F0.7
sg20
(lp824
g22
ag23
ag24
ag25
asg26
I01
sg27
g28
sg29
(lp825
g31
ag32
ag33
ag34
ag35
asg36
g37
sg38
(lp826
g40
ag41
asbsg42
(lp827
F1.0
aF2.5
asg44
I58
sg45
g1
sg46
I20
sa(dp828
g5
F62.77161710418001
sg6
I1
sg7
I2
sg8
(iTFClasses
function
p829
(dp830
g11
(lp831
F5.069831325212647
aF1.7550310448515347
aF0.6951130103778906
aF4.13541444803397
aF2.5318858521927723
asg13
(lp832
F239.50697295184122
aF50.407610022843095
aF11.192719979474353
aF51.938844532342785
aF1.40578957952886
asg15
(lp833
g17
ag18
asg19
F0.7
sg20
(lp834
g22
ag23
ag24
ag25
asg26
I01
sg27
g28
sg29
(lp835
g31
ag32
ag33
ag34
ag35
asg36
g37
sg38
(lp836
g40
ag41
asbsg42
(lp837
F1.0
aF2.5
asg44
I58
sg45
g1
sg46
I21
sa(dp838
g5
F63.96441986244842
sg6
I1
sg7
I2
sg8
(iTFClasses
function
p839
(dp840
g11
(lp841
F5.3112115842039005
aF0.375278085452301
aF0.29262198894747193
aF1.4922375916994746
aF1.0522613766263955
asg13
(lp842
F251.6074089972002
aF53.16100102896392
aF9.499591607736612
aF45.331311377594105
aF8.194968988049943
asg15
(lp843
g17
ag18
asg19
F0.7
sg20
(lp844
g22
ag23
ag24
ag25
asg26
I01
sg27
g28
sg29
(lp845
g31
ag32
ag33
ag34
ag35
asg36
g37
sg38
(lp846
g40
ag41
asbsg42
(lp847
F1.0
aF2.5
asg44
I58
sg45
g1
sg46
I22
sa(dp848
g5
F65.1857324393828
sg6
I1
sg7
I2
sg8
(iTFClasses
function
p849
(dp850
g11
(lp851
F4.54455009684271
aF0.7496803970297989
aF0.4108408104790966
aF1.6768072918682577
aF1.2979669992248533
asg13
(lp852
F242.1689301643422
aF52.7981830969448
aF10.638231068274884
aF54.65771645339505
aF3.193729822489666
asg15
(lp853
g17
ag18
asg19
F0.7
sg20
(lp854
g22
ag23
ag24
ag25
asg26
I01
sg27
g28
sg29
(lp855
g31
ag32
ag33
ag34
ag35
asg36
g37
sg38
(lp856
g40
ag41
asbsg42
(lp857
F1.0
aF2.5
asg44
I58
sg45
g1
sg46
I23
sa(dp858
g5
F66.42340127807194
sg6
I1
sg7
I2
sg8
(iTFClasses
function
p859
(dp860
g11
(lp861
F5.481225099175866
aF0.35462180762587536
aF0.29680183022651185
aF1.2008128536165472
aF0.9045530798622026
asg13
(lp862
F254.14220294176948
aF56.012160464412304
aF9.86198668100502
aF45.68363373793161
aF8.278041761624056
asg15
(lp863
g17
ag18
asg19
F0.7
sg20
(lp864
g22
ag23
ag24
ag25
asg26
I01
sg27
g28
sg29
(lp865
g31
ag32
ag33
ag34
ag35
asg36
g37
sg38
(lp866
g40
ag41
asbsg42
(lp867
F1.0
aF2.5
asg44
I58
sg45
g1
sg46
I24
sa(dp868
g5
F67.69981818348288
sg6
I1
sg7
I2
sg8
(iTFClasses
function
p869
(dp870
g11
(lp871
F7.570756043976414
aF0.30151845583481673
aF0.2176247663131523
aF0.5429829426301325
aF1.3326863620338192
asg13
(lp872
F292.17635648627083
aF51.933683686104224
aF9.726404035219849
aF64.94497405615755
aF5.8170468442142464e-08
asg15
(lp873
g17
ag18
asg19
F0.7
sg20
(lp874
g22
ag23
ag24
ag25
asg26
I01
sg27
g28
sg29
(lp875
g31
ag32
ag33
ag34
ag35
asg36
g37
sg38
(lp876
g40
ag41
asbsg42
(lp877
F1.0
aF2.5
asg44
I58
sg45
g1
sg46
I25
sa(dp878
g5
F68.98386197802199
sg6
I1
sg7
I2
sg8
(iTFClasses
function
p879
(dp880
g11
(lp881
F8.13227164601913
aF0.2784977121002754
aF0.2565277296192052
aF0.593076390515435
aF0.2435697107164292
asg13
(lp882
F292.6657580800158
aF60.228437247440795
aF10.449942779737098
aF43.79653351098076
aF2.0805579481475434e-10
asg15
(lp883
g17
ag18
asg19
F0.7
sg20
(lp884
g22
ag23
ag24
ag25
asg26
I01
sg27
g28
sg29
(lp885
g31
ag32
ag33
ag34
ag35
asg36
g37
sg38
(lp886
g40
ag41
asbsg42
(lp887
F1.0
aF2.5
asg44
I58
sg45
g1
sg46
I26
sa(dp888
g5
F70.28213479692646
sg6
I1
sg7
I2
sg8
(iTFClasses
function
p889
(dp890
g11
(lp891
F5.238402429115165
aF0.37764404790125994
aF0.3083610444439282
aF0.9435489859814687
aF0.8775273487074964
asg13
(lp892
F255.30825535428207
aF59.674653163392264
aF10.366468242983817
aF50.33091591650936
aF7.545820910766832
asg15
(lp893
g17
ag18
asg19
F0.7
sg20
(lp894
g22
ag23
ag24
ag25
asg26
I01
sg27
g28
sg29
(lp895
g31
ag32
ag33
ag34
ag35
asg36
g37
sg38
(lp896
g40
ag41
asbsg42
(lp897
F1.0
aF2.5
asg44
I58
sg45
g1
sg46
I27
sa(dp898
g5
F71.608841191067
sg6
I1
sg7
I2
sg8
(iTFClasses
function
p899
(dp900
g11
(lp901
F4.967495809652482
aF0.5548341918325299
aF0.4314198190268348
aF1.1354339119565964
aF1.2588810834289754
asg13
(lp902
F245.14532495618428
aF59.49657649580163
aF11.390219377253597
aF54.17637291895625
aF4.743089331083916
asg15
(lp903
g17
ag18
asg19
F0.7
sg20
(lp904
g22
ag23
ag24
ag25
asg26
I01
sg27
g28
sg29
(lp905
g31
ag32
ag33
ag34
ag35
asg36
g37
sg38
(lp906
g40
ag41
asbsg42
(lp907
F1.0
aF2.5
asg44
I58
sg45
g1
sg46
I28
sa(dp908
g5
F72.98174492992581
sg6
I1
sg7
I2
sg8
(iTFClasses
function
p909
(dp910
g11
(lp911
F5.2373157484146375
aF0.39034030282060783
aF0.32492362666847185
aF1.0073106010997108
aF1.0462300265327573
asg13
(lp912
F252.71508056599927
aF62.36225533629068
aF11.069854089512443
aF49.405444132271754
aF7.874239172266595
asg15
(lp913
g17
ag18
asg19
F0.7
sg20
(lp914
g22
ag23
ag24
ag25
asg26
I01
sg27
g28
sg29
(lp915
g31
ag32
ag33
ag34
ag35
asg36
g37
sg38
(lp916
g40
ag41
asbsg42
(lp917
F1.0
aF2.5
asg44
I58
sg45
g1
sg46
I29
sa(dp918
g5
F74.38271290057519
sg6
I1
sg7
I2
sg8
(iTFClasses
function
p919
(dp920
g11
(lp921
F5.368019523401101
aF0.37134628077746257
aF0.3140631384061514
aF0.9443992559598797
aF0.8861991865440344
asg13
(lp922
F260.07814134451314
aF63.08768874776159
aF10.870885163484223
aF51.00148220721532
aF8.195829086544148
asg15
(lp923
g17
ag18
asg19
F0.7
sg20
(lp924
g22
ag23
ag24
ag25
asg26
I01
sg27
g28
sg29
(lp925
g31
ag32
ag33
ag34
ag35
asg36
g37
sg38
(lp926
g40
ag41
asbsg42
(lp927
F1.0
aF2.5
asg44
I58
sg45
g1
sg46
I30
sa(dp928
g5
F75.8120018336848
sg6
I1
sg7
I2
sg8
(iTFClasses
function
p929
(dp930
g11
(lp931
F5.409066112293919
aF0.6267189655582577
aF0.4276900761768232
aF1.3108820365700495
aF1.5013844435806667
asg13
(lp932
F249.51750479951917
aF63.662359362149274
aF11.816619792514915
aF55.051536930394576
aF5.357600577861943
asg15
(lp933
g17
ag18
asg19
F0.7
sg20
(lp934
g22
ag23
ag24
ag25
asg26
I01
sg27
g28
sg29
(lp935
g31
ag32
ag33
ag34
ag35
asg36
g37
sg38
(lp936
g40
ag41
asbsg42
(lp937
F1.0
aF2.5
asg44
I58
sg45
g1
sg46
I31
sa(dp938
g5
F77.26916782178219
sg6
I1
sg7
I2
sg8
(iTFClasses
function
p939
(dp940
g11
(lp941
F5.278934764032657
aF0.4517031738408832
aF0.3482300029197809
aF1.0098822019394689
aF1.1614495013134163
asg13
(lp942
F254.3918327487702
aF65.48017356307989
aF11.833699010331378
aF52.90821882538934
aF6.7020964369925995
asg15
(lp943
g17
ag18
asg19
F0.7
sg20
(lp944
g22
ag23
ag24
ag25
asg26
I01
sg27
g28
sg29
(lp945
g31
ag32
ag33
ag34
ag35
asg36
g37
sg38
(lp946
g40
ag41
asbsg42
(lp947
F1.0
aF2.5
asg44
I58
sg45
g1
sg46
I32
sa(dp948
g5
F78.81309675824176
sg6
I1
sg7
I2
sg8
(iTFClasses
function
p949
(dp950
g11
(lp951
F5.238854715540508
aF0.45375685581120706
aF0.3504779911986393
aF0.9839948488850219
aF1.1480485892734205
asg13
(lp952
F256.2478576898786
aF67.09852364815345
aF11.870255921204386
aF54.888805707859795
aF6.669108781194422
asg15
(lp953
g17
ag18
asg19
F0.7
sg20
(lp954
g22
ag23
ag24
ag25
asg26
I01
sg27
g28
sg29
(lp955
g31
ag32
ag33
ag34
ag35
asg36
g37
sg38
(lp956
g40
ag41
asbsg42
(lp957
F1.0
aF2.5
asg44
I58
sg45
g1
sg46
I33
sa(dp958
g5
F80.39617968578736
sg6
I1
sg7
I2
sg8
(iTFClasses
function
p959
(dp960
g11
(lp961
F5.070732919983005
aF0.4771182042668727
aF0.3751359064310673
aF0.9567634277852548
aF0.9610996056966248
asg13
(lp962
F250.81474420687027
aF66.79251159210311
aF12.362487113019572
aF58.43822592862301
aF7.303695291241086
asg15
(lp963
g17
ag18
asg19
F0.7
sg20
(lp964
g22
ag23
ag24
ag25
asg26
I01
sg27
g28
sg29
(lp965
g31
ag32
ag33
ag34
ag35
asg36
g37
sg38
(lp966
g40
ag41
asbsg42
(lp967
F1.0
aF2.5
asg44
I58
sg45
g1
sg46
I34
sa(dp968
g5
F82.01954627688913
sg6
I1
sg7
I2
sg8
(iTFClasses
function
p969
(dp970
g11
(lp971
F5.303526261602456
aF0.4250379606156116
aF0.34354241424505716
aF0.8776053663725243
aF0.8993779750934294
asg13
(lp972
F257.805425550821
aF69.34398199093596
aF11.952286995449256
aF57.56706101575872
aF8.163485599139598
asg15
(lp973
g17
ag18
asg19
F0.7
sg20
(lp974
g22
ag23
ag24
ag25
asg26
I01
sg27
g28
sg29
(lp975
g31
ag32
ag33
ag34
ag35
asg36
g37
sg38
(lp976
g40
ag41
asbsg42
(lp977
F1.0
aF2.5
asg44
I58
sg45
g1
sg46
I35
sa(dp978
g5
F83.72139804208601
sg6
I1
sg7
I2
sg8
(iTFClasses
function
p979
(dp980
g11
(lp981
F11.199465904197972
aF0.32161146898262416
aF0.3101776911348946
aF1.11532510111212
aF0.9107831642203856
asg13
(lp982
F294.0135386361978
aF73.44592238990325
aF12.133371080430333
aF52.995968695435494
aF1.5751913130238604
asg15
(lp983
g17
ag18
asg19
F0.7
sg20
(lp984
g22
ag23
ag24
ag25
asg26
I01
sg27
g28
sg29
(lp985
g31
ag32
ag33
ag34
ag35
asg36
g37
sg38
(lp986
g40
ag41
asbsg42
(lp987
F1.0
aF2.5
asg44
I58
sg45
g1
sg46
I36
sa(dp988
g5
F85.47807757009346
sg6
I1
sg7
I2
sg8
(iTFClasses
function
p989
(dp990
g11
(lp991
F10.599224851408835
aF0.30391197784896207
aF0.28024690595546087
aF1.0152007228217954
aF0.8862111061040401
asg13
(lp992
F300.8938752606206
aF75.18749806576159
aF12.033593718763447
aF53.91031589618034
aF1.6071289464316685
asg15
(lp993
g17
ag18
asg19
F0.7
sg20
(lp994
g22
ag23
ag24
ag25
asg26
I01
sg27
g28
sg29
(lp995
g31
ag32
ag33
ag34
ag35
asg36
g37
sg38
(lp996
g40
ag41
asbsg42
(lp997
F1.0
aF2.5
asg44
I58
sg45
g1
sg46
I37
sa(dp998
g5
F87.33651203585148
sg6
I1
sg7
I2
sg8
(iTFClasses
function
p999
(dp1000
g11
(lp1001
F5.612858599876138
aF0.46260465449497445
aF0.33565320910078356
aF0.9576787447702593
aF1.0950413826210093
asg13
(lp1002
F266.3304107563949
aF75.07128593806918
aF12.31890472239372
aF59.86077177246065
aF8.395441037387986
asg15
(lp1003
g17
ag18
asg19
F0.7
sg20
(lp1004
g22
ag23
ag24
ag25
asg26
I01
sg27
g28
sg29
(lp1005
g31
ag32
ag33
ag34
ag35
asg36
g37
sg38
(lp1006
g40
ag41
asbsg42
(lp1007
F1.0
aF2.5
asg44
I58
sg45
g1
sg46
I38
sa(dp1008
g5
F89.26629744435286
sg6
I1
sg7
I2
sg8
(iTFClasses
function
p1009
(dp1010
g11
(lp1011
F5.543287082054173
aF0.5352523833462186
aF0.3648558039339722
aF1.072332101438338
aF1.1401939390551226
asg13
(lp1012
F261.2566159423195
aF75.71590362712944
aF12.715426002870455
aF63.13457687542485
aF8.1253868016119
asg15
(lp1013
g17
ag18
asg19
F0.7
sg20
(lp1014
g22
ag23
ag24
ag25
asg26
I01
sg27
g28
sg29
(lp1015
g31
ag32
ag33
ag34
ag35
asg36
g37
sg38
(lp1016
g40
ag41
asbsg42
(lp1017
F1.0
aF2.5
asg44
I58
sg45
g1
sg46
I39
sa(dp1018
g5
F91.289060461285
sg6
I1
sg7
I2
sg8
(iTFClasses
function
p1019
(dp1020
g11
(lp1021
F12.908513440050646
aF0.5016317334888214
aF0.36818068508720536
aF1.558840500880283
aF1.3481540920914914
asg13
(lp1022
F281.24881506041936
aF80.07304691163228
aF13.32006980904199
aF59.07893622390779
aF2.9024972729395637
asg15
(lp1023
g17
ag18
asg19
F0.7
sg20
(lp1024
g22
ag23
ag24
ag25
asg26
I01
sg27
g28
sg29
(lp1025
g31
ag32
ag33
ag34
ag35
asg36
g37
sg38
(lp1026
g40
ag41
asbsg42
(lp1027
F1.0
aF2.5
asg44
I58
sg45
g1
sg46
I40
sa(dp1028
g5
F93.42632459917544
sg6
I1
sg7
I2
sg8
(iTFClasses
function
p1029
(dp1030
g11
(lp1031
F8.026513946881428
aF0.2988439020738767
aF0.2834481772531756
aF0.5766337303609248
aF0.16798723758737477
asg13
(lp1032
F310.46427691057215
aF82.17040727670101
aF12.851379760465242
aF59.42258385975056
aF9.656719868189612e-10
asg15
(lp1033
g17
ag18
asg19
F0.7
sg20
(lp1034
g22
ag23
ag24
ag25
asg26
I01
sg27
g28
sg29
(lp1035
g31
ag32
ag33
ag34
ag35
asg36
g37
sg38
(lp1036
g40
ag41
asbsg42
(lp1037
F1.0
aF2.5
asg44
I58
sg45
g1
sg46
I41
sa(dp1038
g5
F95.63101111620655
sg6
I1
sg7
I2
sg8
(iTFClasses
function
p1039
(dp1040
g11
(lp1041
F5.781382508151533
aF0.5286738604709882
aF0.37038839708936067
aF1.1549168428842478
aF1.1702610612392417
asg13
(lp1042
F266.7855884442331
aF82.9562144800644
aF12.893998064017808
aF67.33129500816925
aF9.040082520947458
asg15
(lp1043
g17
ag18
asg19
F0.7
sg20
(lp1044
g22
ag23
ag24
ag25
asg26
I01
sg27
g28
sg29
(lp1045
g31
ag32
ag33
ag34
ag35
asg36
g37
sg38
(lp1046
g40
ag41
asbsg42
(lp1047
F1.0
aF2.5
asg44
I58
sg45
g1
sg46
I42
sa(dp1048
g5
F98.0511907894737
sg6
I1
sg7
I2
sg8
(iTFClasses
function
p1049
(dp1050
g11
(lp1051
F7.514160029598593
aF0.892406694398808
aF0.4211206220632313
aF2.1498419924838927
aF2.089034012057622
asg13
(lp1052
F268.37824297702235
aF84.6101110338347
aF13.834479649402542
aF69.01375959950751
aF7.444432032150949
asg15
(lp1053
g17
ag18
asg19
F0.7
sg20
(lp1054
g22
ag23
ag24
ag25
asg26
I01
sg27
g28
sg29
(lp1055
g31
ag32
ag33
ag34
ag35
asg36
g37
sg38
(lp1056
g40
ag41
asbsg42
(lp1057
F1.0
aF2.5
asg44
I58
sg45
g1
sg46
I43
sa(dp1058
g5
F100.62592958004768
sg6
I1
sg7
I2
sg8
(iTFClasses
function
p1059
(dp1060
g11
(lp1061
F9.452132132303394
aF0.3655871029274138
aF0.32567058727678244
aF1.045507061555547
aF0.7593830653013778
asg13
(lp1062
F303.91448758425713
aF89.02657776299944
aF13.652249515827997
aF65.20737915706943
aF2.3469285635054904
asg15
(lp1063
g17
ag18
asg19
F0.7
sg20
(lp1064
g22
ag23
ag24
ag25
asg26
I01
sg27
g28
sg29
(lp1065
g31
ag32
ag33
ag34
ag35
asg36
g37
sg38
(lp1066
g40
ag41
asbsg42
(lp1067
F1.0
aF2.5
asg44
I58
sg45
g1
sg46
I44
sa(dp1068
g5
F103.3475143092557
sg6
I1
sg7
I2
sg8
(iTFClasses
function
p1069
(dp1070
g11
(lp1071
F10.958006392763869
aF0.5377389607012262
aF0.3161538667095787
aF1.693929753913764
aF1.3901910254607297
asg13
(lp1072
F301.2755829644104
aF91.0441536243508
aF13.304879638023404
aF69.4922032482
aF5.558837663642291
asg15
(lp1073
g17
ag18
asg19
F0.7
sg20
(lp1074
g22
ag23
ag24
ag25
asg26
I01
sg27
g28
sg29
(lp1075
g31
ag32
ag33
ag34
ag35
asg36
g37
sg38
(lp1076
g40
ag41
asbsg42
(lp1077
F1.0
aF2.5
asg44
I58
sg45
g1
sg46
I45
sa(dp1078
g5
F106.31181647274393
sg6
I1
sg7
I2
sg8
(iTFClasses
function
p1079
(dp1080
g11
(lp1081
F9.345411393124015
aF0.3768971681418023
aF0.32003726739665517
aF1.1293765842629924
aF0.8391806654574063
asg13
(lp1082
F312.30261792507736
aF94.38736678181262
aF13.786467025645344
aF69.51591008725362
aF3.9365693772812627
asg15
(lp1083
g17
ag18
asg19
F0.7
sg20
(lp1084
g22
ag23
ag24
ag25
asg26
I01
sg27
g28
sg29
(lp1085
g31
ag32
ag33
ag34
ag35
asg36
g37
sg38
(lp1086
g40
ag41
asbsg42
(lp1087
F1.0
aF2.5
asg44
I58
sg45
g1
sg46
I46
sa(dp1088
g5
F109.56146947522667
sg6
I1
sg7
I2
sg8
(iTFClasses
function
p1089
(dp1090
g11
(lp1091
F7.133284510685787
aF0.8748854682144511
aF0.3930136711666199
aF2.0744315489579463
aF1.75109672150564
asg13
(lp1092
F279.5980822081694
aF94.0774105234346
aF15.090380314383477
aF77.58471923419457
aF7.797165675202389
asg15
(lp1093
g17
ag18
asg19
F0.7
sg20
(lp1094
g22
ag23
ag24
ag25
asg26
I01
sg27
g28
sg29
(lp1095
g31
ag32
ag33
ag34
ag35
asg36
g37
sg38
(lp1096
g40
ag41
asbsg42
(lp1097
F1.0
aF2.5
asg44
I58
sg45
g1
sg46
I47
sa(dp1098
g5
F113.11514340659342
sg6
I1
sg7
I2
sg8
(iTFClasses
function
p1099
(dp1100
g11
(lp1101
F6.819865675549667
aF0.667144515545111
aF0.42450232626634055
aF1.6356542765541917
aF1.5597937166311198
asg13
(lp1102
F289.82267662430496
aF98.75245971446303
aF14.35925849184394
aF79.96802295806879
aF9.828345313409148
asg15
(lp1103
g17
ag18
asg19
F0.7
sg20
(lp1104
g22
ag23
ag24
ag25
asg26
I01
sg27
g28
sg29
(lp1105
g31
ag32
ag33
ag34
ag35
asg36
g37
sg38
(lp1106
g40
ag41
asbsg42
(lp1107
F1.0
aF2.5
asg44
I58
sg45
g1
sg46
I48
sa(dp1108
g5
F117.0612026366383
sg6
I1
sg7
I2
sg8
(iTFClasses
function
p1109
(dp1110
g11
(lp1111
F9.324365924821585
aF0.5957327836259125
aF0.3374913574581422
aF1.8016432953473966
aF1.3683451789917593
asg13
(lp1112
F298.05116128655453
aF103.9402465797019
aF14.893779884458391
aF80.42729569157036
aF6.804084567204716
asg15
(lp1113
g17
ag18
asg19
F0.7
sg20
(lp1114
g22
ag23
ag24
ag25
asg26
I01
sg27
g28
sg29
(lp1115
g31
ag32
ag33
ag34
ag35
asg36
g37
sg38
(lp1116
g40
ag41
asbsg42
(lp1117
F1.0
aF2.5
asg44
I58
sg45
g1
sg46
I49
sa(dp1118
g5
F121.51896538955087
sg6
I1
sg7
I2
sg8
(iTFClasses
function
p1119
(dp1120
g11
(lp1121
F13.13825137770677
aF1.0003523145114883
aF0.37227603693557043
aF3.2328669122040665
aF2.771922491862422
asg13
(lp1122
F298.3034853092134
aF107.5562061690981
aF15.570135569321074
aF83.19690036728993
aF8.322685846562816
asg15
(lp1123
g17
ag18
asg19
F0.7
sg20
(lp1124
g22
ag23
ag24
ag25
asg26
I01
sg27
g28
sg29
(lp1125
g31
ag32
ag33
ag34
ag35
asg36
g37
sg38
(lp1126
g40
ag41
asbsg42
(lp1127
F1.0
aF2.5
asg44
I58
sg45
g1
sg46
I50
sa(dp1128
g5
F126.63849139981701
sg6
I1
sg7
I2
sg8
(iTFClasses
function
p1129
(dp1130
g11
(lp1131
F8.054613711338558
aF0.5233679346474887
aF0.3277337150674464
aF1.5048951697390862
aF1.0902654562156555
asg13
(lp1132
F311.98000195408326
aF112.73937123253445
aF15.766949785748995
aF87.24119038573531
aF7.247275857060864
asg15
(lp1133
g17
ag18
asg19
F0.7
sg20
(lp1134
g22
ag23
ag24
ag25
asg26
I01
sg27
g28
sg29
(lp1135
g31
ag32
ag33
ag34
ag35
asg36
g37
sg38
(lp1136
g40
ag41
asbsg42
(lp1137
F1.0
aF2.5
asg44
I58
sg45
g1
sg46
I51
sa(dp1138
g5
F132.5451556471558
sg6
I1
sg7
I2
sg8
(iTFClasses
function
p1139
(dp1140
g11
(lp1141
F6.334271602321129
aF0.5776978331041249
aF0.4591239283325823
aF1.19767456563698
aF1.0990454457173175
asg13
(lp1142
F291.48834490493664
aF117.10303015047268
aF15.848122693515542
aF96.29043829888721
aF13.092537013468132
asg15
(lp1143
g17
ag18
asg19
F0.7
sg20
(lp1144
g22
ag23
ag24
ag25
asg26
I01
sg27
g28
sg29
(lp1145
g31
ag32
ag33
ag34
ag35
asg36
g37
sg38
(lp1146
g40
ag41
asbsg42
(lp1147
F1.0
aF2.5
asg44
I58
sg45
g1
sg46
I52
sa(dp1148
g5
F139.72701480802715
sg6
I1
sg7
I2
sg8
(iTFClasses
function
p1149
(dp1150
g11
(lp1151
F7.535808402617478
aF0.7492771915105649
aF0.4903004701837794
aF2.0499023923272617
aF1.7420648074540912
asg13
(lp1152
F310.0250916336985
aF124.90044951311465
aF16.65755048632722
aF100.85922547259466
aF11.866648516728251
asg15
(lp1153
g17
ag18
asg19
F0.7
sg20
(lp1154
g22
ag23
ag24
ag25
asg26
I01
sg27
g28
sg29
(lp1155
g31
ag32
ag33
ag34
ag35
asg36
g37
sg38
(lp1156
g40
ag41
asbsg42
(lp1157
F1.0
aF2.5
asg44
I58
sg45
g1
sg46
I53
sa(dp1158
g5
F148.84591631270598
sg6
I1
sg7
I2
sg8
(iTFClasses
function
p1159
(dp1160
g11
(lp1161
F6.555921311632857
aF0.6378858037159318
aF0.4563179281224521
aF1.4722454405897096
aF1.2878843478606452
asg13
(lp1162
F302.78155913310724
aF133.44274992507587
aF17.71973838134344
aF106.774587136818
aF13.056878096737945
asg15
(lp1163
g17
ag18
asg19
F0.7
sg20
(lp1164
g22
ag23
ag24
ag25
asg26
I01
sg27
g28
sg29
(lp1165
g31
ag32
ag33
ag34
ag35
asg36
g37
sg38
(lp1166
g40
ag41
asbsg42
(lp1167
F1.0
aF2.5
asg44
I58
sg45
g1
sg46
I54
sa(dp1168
g5
F161.17946884044696
sg6
I1
sg7
I2
sg8
(iTFClasses
function
p1169
(dp1170
g11
(lp1171
F6.882168503508118
aF0.6322775004106234
aF0.5242960259641549
aF1.3449652295877357
aF1.1100350732403133
asg13
(lp1172
F319.7483527141867
aF144.41667249119962
aF17.694273252429117
aF121.176542266491
aF16.045836985362328
asg15
(lp1173
g17
ag18
asg19
F0.7
sg20
(lp1174
g22
ag23
ag24
ag25
asg26
I01
sg27
g28
sg29
(lp1175
g31
ag32
ag33
ag34
ag35
asg36
g37
sg38
(lp1176
g40
ag41
asbsg42
(lp1177
F1.0
aF2.5
asg44
I58
sg45
g1
sg46
I55
sa(dp1178
g5
F180.59303020699764
sg6
I1
sg7
I2
sg8
(iTFClasses
function
p1179
(dp1180
g11
(lp1181
F7.117228086379081
aF0.8178710912176399
aF0.6573984302383771
aF1.9287164019788747
aF1.591024732903679
asg13
(lp1182
F315.1414146962299
aF162.3933711632634
aF20.764716829951624
aF134.77381163458847
aF17.383775867344518
asg15
(lp1183
g17
ag18
asg19
F0.7
sg20
(lp1184
g22
ag23
ag24
ag25
asg26
I01
sg27
g28
sg29
(lp1185
g31
ag32
ag33
ag34
ag35
asg36
g37
sg38
(lp1186
g40
ag41
asbsg42
(lp1187
F1.0
aF2.5
asg44
I58
sg45
g1
sg46
I56
sa(dp1188
g5
F225.85978813186816
sg6
I1
sg7
I2
sg8
(iTFClasses
function
p1189
(dp1190
g11
(lp1191
F6.949936850298035
aF1.0974528603464506
aF1.1298033336120703
aF1.7865973319287605
aF1.6421971770716475
asg13
(lp1192
F310.47851197376724
aF193.9441783668634
aF34.773059494726645
aF192.1699911910297
aF24.990591587862987
asg15
(lp1193
g17
ag18
asg19
F0.7
sg20
(lp1194
g22
ag23
ag24
ag25
asg26
I01
sg27
g28
sg29
(lp1195
g31
ag32
ag33
ag34
ag35
asg36
g37
sg38
(lp1196
g40
ag41
asbsg42
(lp1197
F1.0
aF2.5
asg44
I58
sg45
g1
sg46
I57
saasS'l'
p1198
(lp1199
(lp1200
(dp1201
g5
F31.02879302466151
sg6
I0
sg7
I2
sg8
(iTFClasses
function
p1202
(dp1203
g11
(lp1204
F27.335390146641135
aF0.07547446672833757
aF0.052548559572096476
aF0.11647314308002876
aF0.13931338151995654
asg13
(lp1205
F874.0730840954434
aF32.14488774830722
aF1.1973579757144082
aF35.96214187983009
aF2.8646317425745638
asg15
(lp1206
g17
ag18
asg19
F0.7
sg20
(lp1207
g22
ag23
ag24
ag25
asg26
I01
sg27
g28
sg29
(lp1208
g31
ag32
ag33
ag34
ag35
asg36
g37
sg38
(lp1209
g40
ag41
asbsg42
(lp1210
F0.0
aF1.0
asg44
I58
sg45
g1198
sg46
I0
sa(dp1211
g5
F32.72873739985433
sg6
I0
sg7
I2
sg8
(iTFClasses
function
p1212
(dp1213
g11
(lp1214
F18.345104542006602
aF0.10304907211573067
aF0.08277877150286717
aF0.4689679791125627
aF0.3780329103877933
asg13
(lp1215
F657.4294451180298
aF33.003380599348226
aF2.0827980389703793
aF35.043132375146044
aF4.554475774766198
asg15
(lp1216
g17
ag18
asg19
F0.7
sg20
(lp1217
g22
ag23
ag24
ag25
asg26
I01
sg27
g28
sg29
(lp1218
g31
ag32
ag33
ag34
ag35
asg36
g37
sg38
(lp1219
g40
ag41
asbsg42
(lp1220
F0.0
aF1.0
asg44
I58
sg45
g1198
sg46
I1
sa(dp1221
g5
F34.13077444317016
sg6
I0
sg7
I2
sg8
(iTFClasses
function
p1222
(dp1223
g11
(lp1224
F9.468013300922701
aF0.208098324534415
aF0.16122798739970357
aF0.23081175731880066
aF0.2265331602460674
asg13
(lp1225
F602.7985968734705
aF32.38472203441362
aF4.253176557379557
aF29.00000001627653
aF6.734207104886147
asg15
(lp1226
g17
ag18
asg19
F0.7
sg20
(lp1227
g22
ag23
ag24
ag25
asg26
I01
sg27
g28
sg29
(lp1228
g31
ag32
ag33
ag34
ag35
asg36
g37
sg38
(lp1229
g40
ag41
asbsg42
(lp1230
F0.0
aF1.0
asg44
I58
sg45
g1198
sg46
I2
sa(dp1231
g5
F35.3787198788613
sg6
I0
sg7
I2
sg8
(iTFClasses
function
p1232
(dp1233
g11
(lp1234
F11.858860378318276
aF0.13774176143484596
aF0.09102079115863582
aF0.8905944782366362
aF0.5779757504768557
asg13
(lp1235
F574.1780500877729
aF34.261222809784414
aF2.9249918279798948
aF34.8196282729791
aF5.3565990296422505
asg15
(lp1236
g17
ag18
asg19
F0.7
sg20
(lp1237
g22
ag23
ag24
ag25
asg26
I01
sg27
g28
sg29
(lp1238
g31
ag32
ag33
ag34
ag35
asg36
g37
sg38
(lp1239
g40
ag41
asbsg42
(lp1240
F0.0
aF1.0
asg44
I58
sg45
g1198
sg46
I3
sa(dp1241
g5
F36.51997081967213
sg6
I0
sg7
I2
sg8
(iTFClasses
function
p1242
(dp1243
g11
(lp1244
F9.425422118582153
aF0.10663346657856465
aF0.11816933556868525
aF0.5215514567636692
aF0.19073767321420343
asg13
(lp1245
F556.1294110694904
aF34.85547969084776
aF4.115479735283811
aF29.00000002579476
aF8.002537719480785
asg15
(lp1246
g17
ag18
asg19
F0.7
sg20
(lp1247
g22
ag23
ag24
ag25
asg26
I01
sg27
g28
sg29
(lp1248
g31
ag32
ag33
ag34
ag35
asg36
g37
sg38
(lp1249
g40
ag41
asbsg42
(lp1250
F0.0
aF1.0
asg44
I58
sg45
g1198
sg46
I4
sa(dp1251
g5
F37.5769297739531
sg6
I0
sg7
I2
sg8
(iTFClasses
function
p1252
(dp1253
g11
(lp1254
F8.776884303139935
aF0.12352985312382714
aF0.12969247054989141
aF9.117279378157711
aF0.2088217382054669
asg13
(lp1255
F534.0480944803477
aF35.16334794771191
aF4.543175930296073
aF29.00000136465393
aF7.677487640363134
asg15
(lp1256
g17
ag18
asg19
F0.7
sg20
(lp1257
g22
ag23
ag24
ag25
asg26
I01
sg27
g28
sg29
(lp1258
g31
ag32
ag33
ag34
ag35
asg36
g37
sg38
(lp1259
g40
ag41
asbsg42
(lp1260
F0.0
aF1.0
asg44
I58
sg45
g1198
sg46
I5
sa(dp1261
g5
F38.58408713301921
sg6
I0
sg7
I2
sg8
(iTFClasses
function
p1262
(dp1263
g11
(lp1264
F8.233439657345633
aF0.11849780402642551
aF0.11510591371882706
aF0.3541118051689143
aF0.21571376000095732
asg13
(lp1265
F520.3097062982959
aF36.12996201443298
aF4.72454947535883
aF29.00000001325751
aF8.299909295268026
asg15
(lp1266
g17
ag18
asg19
F0.7
sg20
(lp1267
g22
ag23
ag24
ag25
asg26
I01
sg27
g28
sg29
(lp1268
g31
ag32
ag33
ag34
ag35
asg36
g37
sg38
(lp1269
g40
ag41
asbsg42
(lp1270
F0.0
aF1.0
asg44
I58
sg45
g1198
sg46
I6
sa(dp1271
g5
F39.55385175730446
sg6
I0
sg7
I2
sg8
(iTFClasses
function
p1272
(dp1273
g11
(lp1274
F8.258208174370257
aF0.11526869698331765
aF0.11677805892579274
aF1.6972925874058653
aF0.22271319863126404
asg13
(lp1275
F510.76632190469957
aF37.05447476692835
aF4.8960794802944685
aF29.00000004868188
aF8.208829931915407
asg15
(lp1276
g17
ag18
asg19
F0.7
sg20
(lp1277
g22
ag23
ag24
ag25
asg26
I01
sg27
g28
sg29
(lp1278
g31
ag32
ag33
ag34
ag35
asg36
g37
sg38
(lp1279
g40
ag41
asbsg42
(lp1280
F0.0
aF1.0
asg44
I58
sg45
g1198
sg46
I7
sa(dp1281
g5
F40.50115008210181
sg6
I0
sg7
I2
sg8
(iTFClasses
function
p1282
(dp1283
g11
(lp1284
F8.129032972764389
aF0.10918414616156724
aF0.10885406992111601
aF1.4132626511271216
aF0.2207220851894176
asg13
(lp1285
F491.2288981456291
aF37.89105744942239
aF4.819605400606886
aF29.000000048216766
aF9.300044871060509
asg15
(lp1286
g17
ag18
asg19
F0.7
sg20
(lp1287
g22
ag23
ag24
ag25
asg26
I01
sg27
g28
sg29
(lp1288
g31
ag32
ag33
ag34
ag35
asg36
g37
sg38
(lp1289
g40
ag41
asbsg42
(lp1290
F0.0
aF1.0
asg44
I58
sg45
g1198
sg46
I8
sa(dp1291
g5
F41.43784060068754
sg6
I0
sg7
I2
sg8
(iTFClasses
function
p1292
(dp1293
g11
(lp1294
F10.59519448414456
aF0.22478318669126907
aF0.11358601893796116
aF0.6025660434441242
aF0.4007062556425911
asg13
(lp1295
F481.1463353592256
aF37.39614534062247
aF4.854579588902896
aF41.11537063328881
aF3.3551510032376886
asg15
(lp1296
g17
ag18
asg19
F0.7
sg20
(lp1297
g22
ag23
ag24
ag25
asg26
I01
sg27
g28
sg29
(lp1298
g31
ag32
ag33
ag34
ag35
asg36
g37
sg38
(lp1299
g40
ag41
asbsg42
(lp1300
F0.0
aF1.0
asg44
I58
sg45
g1198
sg46
I9
sa(dp1301
g5
F42.356973207478674
sg6
I0
sg7
I2
sg8
(iTFClasses
function
p1302
(dp1303
g11
(lp1304
F7.8750962017956665
aF0.13008597282255963
aF0.12628851050688894
aF0.4728491401133592
aF0.2648874057289978
asg13
(lp1305
F486.1327821430646
aF39.1852418056947
aF5.532335900572005
aF29.000000007184024
aF8.860916460521452
asg15
(lp1306
g17
ag18
asg19
F0.7
sg20
(lp1307
g22
ag23
ag24
ag25
asg26
I01
sg27
g28
sg29
(lp1308
g31
ag32
ag33
ag34
ag35
asg36
g37
sg38
(lp1309
g40
ag41
asbsg42
(lp1310
F0.0
aF1.0
asg44
I58
sg45
g1198
sg46
I10
sa(dp1311
g5
F43.25617899327639
sg6
I0
sg7
I2
sg8
(iTFClasses
function
p1312
(dp1313
g11
(lp1314
F7.743085188852241
aF0.1268932018497715
aF0.1282845904826413
aF2.227091065672493
aF0.26665033023892626
asg13
(lp1315
F468.6400716780722
aF40.11016307241002
aF5.709003836284032
aF29.00000004401872
aF9.448821638240679
asg15
(lp1316
g17
ag18
asg19
F0.7
sg20
(lp1317
g22
ag23
ag24
ag25
asg26
I01
sg27
g28
sg29
(lp1318
g31
ag32
ag33
ag34
ag35
asg36
g37
sg38
(lp1319
g40
ag41
asbsg42
(lp1320
F0.0
aF1.0
asg44
I58
sg45
g1198
sg46
I11
sa(dp1321
g5
F44.161356738708115
sg6
I0
sg7
I2
sg8
(iTFClasses
function
p1322
(dp1323
g11
(lp1324
F7.047899188832129
aF0.23635481958239168
aF0.1277493103281624
aF0.854195149039807
aF0.5423050860075551
asg13
(lp1325
F444.88303652745145
aF40.101281291067785
aF5.471784703213078
aF39.92247565612779
aF5.254986338055101
asg15
(lp1326
g17
ag18
asg19
F0.7
sg20
(lp1327
g22
ag23
ag24
ag25
asg26
I01
sg27
g28
sg29
(lp1328
g31
ag32
ag33
ag34
ag35
asg36
g37
sg38
(lp1329
g40
ag41
asbsg42
(lp1330
F0.0
aF1.0
asg44
I58
sg45
g1198
sg46
I12
sa(dp1331
g5
F45.05186548447618
sg6
I0
sg7
I2
sg8
(iTFClasses
function
p1332
(dp1333
g11
(lp1334
F11.020782608921996
aF0.14957985909861904
aF0.07486715996629645
aF0.2615076091101436
aF0.21487479633280904
asg13
(lp1335
F525.948223009907
aF39.776482438849996
aF4.573784643766232
aF46.5411977424605
aF2.1729713871354583
asg15
(lp1336
g17
ag18
asg19
F0.7
sg20
(lp1337
g22
ag23
ag24
ag25
asg26
I01
sg27
g28
sg29
(lp1338
g31
ag32
ag33
ag34
ag35
asg36
g37
sg38
(lp1339
g40
ag41
asbsg42
(lp1340
F0.0
aF1.0
asg44
I58
sg45
g1198
sg46
I13
sa(dp1341
g5
F45.94406251363471
sg6
I0
sg7
I2
sg8
(iTFClasses
function
p1342
(dp1343
g11
(lp1344
F11.744246549611928
aF0.23392230054696483
aF0.1338752485061656
aF2.869402173096411
aF1.4450206525553622
asg13
(lp1345
F445.99498214393356
aF42.54334606331826
aF5.836590228165295
aF34.61029243756953
aF8.13578505519752
asg15
(lp1346
g17
ag18
asg19
F0.7
sg20
(lp1347
g22
ag23
ag24
ag25
asg26
I01
sg27
g28
sg29
(lp1348
g31
ag32
ag33
ag34
ag35
asg36
g37
sg38
(lp1349
g40
ag41
asbsg42
(lp1350
F0.0
aF1.0
asg44
I58
sg45
g1198
sg46
I14
sa(dp1351
g5
F46.841566355026714
sg6
I0
sg7
I2
sg8
(iTFClasses
function
p1352
(dp1353
g11
(lp1354
F7.31824449982217
aF0.3329752206480592
aF0.1378545655875696
aF0.7849069861833264
aF0.5194112050913025
asg13
(lp1355
F418.81498587708376
aF41.65821510141568
aF6.458427531694233
aF44.39475682016851
aF2.7022192222223573
asg15
(lp1356
g17
ag18
asg19
F0.7
sg20
(lp1357
g22
ag23
ag24
ag25
asg26
I01
sg27
g28
sg29
(lp1358
g31
ag32
ag33
ag34
ag35
asg36
g37
sg38
(lp1359
g40
ag41
asbsg42
(lp1360
F0.0
aF1.0
asg44
I58
sg45
g1198
sg46
I15
sa(dp1361
g5
F47.74120494021017
sg6
I0
sg7
I2
sg8
(iTFClasses
function
p1362
(dp1363
g11
(lp1364
F7.722765214818256
aF0.1366354167820205
aF0.12774150201133594
aF1.7779206650855368
aF0.31563461492362066
asg13
(lp1365
F465.11352031566486
aF44.17617181336855
aF6.265789341874717
aF29.00000001285323
aF10.753025244615188
asg15
(lp1366
g17
ag18
asg19
F0.7
sg20
(lp1367
g22
ag23
ag24
ag25
asg26
I01
sg27
g28
sg29
(lp1368
g31
ag32
ag33
ag34
ag35
asg36
g37
sg38
(lp1369
g40
ag41
asbsg42
(lp1370
F0.0
aF1.0
asg44
I58
sg45
g1198
sg46
I16
sa(dp1371
g5
F48.66029198036007
sg6
I0
sg7
I2
sg8
(iTFClasses
function
p1372
(dp1373
g11
(lp1374
F7.830565328651604
aF0.25003766730643306
aF0.17632560220837146
aF1.0547532548199072
aF0.6449074999859694
asg13
(lp1375
F416.2828163080803
aF44.59237754275645
aF6.717908951394569
aF39.15325548101253
aF5.762438676647608
asg15
(lp1376
g17
ag18
asg19
F0.7
sg20
(lp1377
g22
ag23
ag24
ag25
asg26
I01
sg27
g28
sg29
(lp1378
g31
ag32
ag33
ag34
ag35
asg36
g37
sg38
(lp1379
g40
ag41
asbsg42
(lp1380
F0.0
aF1.0
asg44
I58
sg45
g1198
sg46
I17
sa(dp1381
g5
F49.57498984284935
sg6
I0
sg7
I2
sg8
(iTFClasses
function
p1382
(dp1383
g11
(lp1384
F11.953718762517692
aF0.20839716803616426
aF0.09363330696771088
aF0.3956916709816305
aF0.2936282611452068
asg13
(lp1385
F484.981357533134
aF42.92375313312712
aF5.70235738774616
aF50.63260199854956
aF1.8135681559224848
asg15
(lp1386
g17
ag18
asg19
F0.7
sg20
(lp1387
g22
ag23
ag24
ag25
asg26
I01
sg27
g28
sg29
(lp1388
g31
ag32
ag33
ag34
ag35
asg36
g37
sg38
(lp1389
g40
ag41
asbsg42
(lp1390
F0.0
aF1.0
asg44
I58
sg45
g1198
sg46
I18
sa(dp1391
g5
F50.50482045961759
sg6
I0
sg7
I2
sg8
(iTFClasses
function
p1392
(dp1393
g11
(lp1394
F7.61476038369838
aF0.20278316613852
aF0.15238592841382292
aF1.0488498663608823
aF0.6348879246036438
asg13
(lp1395
F424.09929844987715
aF45.98767853806457
aF6.452463705174938
aF39.410685672260065
aF8.048744325758861
asg15
(lp1396
g17
ag18
asg19
F0.7
sg20
(lp1397
g22
ag23
ag24
ag25
asg26
I01
sg27
g28
sg29
(lp1398
g31
ag32
ag33
ag34
ag35
asg36
g37
sg38
(lp1399
g40
ag41
asbsg42
(lp1400
F0.0
aF1.0
asg44
I58
sg45
g1198
sg46
I19
sa(dp1401
g5
F51.44101935131858
sg6
I0
sg7
I2
sg8
(iTFClasses
function
p1402
(dp1403
g11
(lp1404
F9.947813591234121
aF0.27231779560890246
aF0.11052779495424048
aF0.5610999978161075
aF0.36140679160817646
asg13
(lp1405
F444.2355607232543
aF44.23028068066888
aF6.699384190948732
aF50.66384796573577
aF2.001471355831508
asg15
(lp1406
g17
ag18
asg19
F0.7
sg20
(lp1407
g22
ag23
ag24
ag25
asg26
I01
sg27
g28
sg29
(lp1408
g31
ag32
ag33
ag34
ag35
asg36
g37
sg38
(lp1409
g40
ag41
asbsg42
(lp1410
F0.0
aF1.0
asg44
I58
sg45
g1198
sg46
I20
sa(dp1411
g5
F52.38188010899182
sg6
I0
sg7
I2
sg8
(iTFClasses
function
p1412
(dp1413
g11
(lp1414
F7.424200938588329
aF0.1997326303378415
aF0.15829785375598426
aF0.8806203540910218
aF0.5627943357711658
asg13
(lp1415
F421.9221128386546
aF47.83813748954214
aF6.712284836553173
aF40.8628509923489
aF7.988939534516959
asg15
(lp1416
g17
ag18
asg19
F0.7
sg20
(lp1417
g22
ag23
ag24
ag25
asg26
I01
sg27
g28
sg29
(lp1418
g31
ag32
ag33
ag34
ag35
asg36
g37
sg38
(lp1419
g40
ag41
asbsg42
(lp1420
F0.0
aF1.0
asg44
I58
sg45
g1198
sg46
I21
sa(dp1421
g5
F53.34400717793271
sg6
I0
sg7
I2
sg8
(iTFClasses
function
p1422
(dp1423
g11
(lp1424
F7.296289489241004
aF0.330239807635639
aF0.135935657112507
aF0.69142451849239
aF0.4647301441748075
asg13
(lp1425
F427.9167079237347
aF46.44111987264917
aF7.4164533405043365
aF50.42006727842349
aF1.9810766596489726
asg15
(lp1426
g17
ag18
asg19
F0.7
sg20
(lp1427
g22
ag23
ag24
ag25
asg26
I01
sg27
g28
sg29
(lp1428
g31
ag32
ag33
ag34
ag35
asg36
g37
sg38
(lp1429
g40
ag41
asbsg42
(lp1430
F0.0
aF1.0
asg44
I58
sg45
g1198
sg46
I22
sa(dp1431
g5
F54.320204652857925
sg6
I0
sg7
I2
sg8
(iTFClasses
function
p1432
(dp1433
g11
(lp1434
F7.4395693174596085
aF0.19892922633733434
aF0.17142171943423934
aF0.718364534429746
aF0.495828232384643
asg13
(lp1435
F422.1034140789341
aF49.64246950264594
aF7.00077057170112
aF42.48752350452238
aF7.388625931590065
asg15
(lp1436
g17
ag18
asg19
F0.7
sg20
(lp1437
g22
ag23
ag24
ag25
asg26
I01
sg27
g28
sg29
(lp1438
g31
ag32
ag33
ag34
ag35
asg36
g37
sg38
(lp1439
g40
ag41
asbsg42
(lp1440
F0.0
aF1.0
asg44
I58
sg45
g1198
sg46
I23
sa(dp1441
g5
F55.313456682613705
sg6
I0
sg7
I2
sg8
(iTFClasses
function
p1442
(dp1443
g11
(lp1444
F6.739432553125765
aF0.30846908082777347
aF0.24247831628559924
aF0.5957195874368111
aF0.6171299076430659
asg13
(lp1445
F406.68115260074075
aF49.717589121321645
aF7.830864673825433
aF48.43055299051663
aF3.3761797803743
asg15
(lp1446
g17
ag18
asg19
F0.7
sg20
(lp1447
g22
ag23
ag24
ag25
asg26
I01
sg27
g28
sg29
(lp1448
g31
ag32
ag33
ag34
ag35
asg36
g37
sg38
(lp1449
g40
ag41
asbsg42
(lp1450
F0.0
aF1.0
asg44
I58
sg45
g1198
sg46
I24
sa(dp1451
g5
F56.32121941112323
sg6
I0
sg7
I2
sg8
(iTFClasses
function
p1452
(dp1453
g11
(lp1454
F7.256645313353797
aF0.20367296527562573
aF0.17144879793451473
aF0.5437099923781652
aF0.45843605046841374
asg13
(lp1455
F423.5225883220941
aF51.694942270310825
aF7.210084918677584
aF44.01409531969088
aF6.6822543990585626
asg15
(lp1456
g17
ag18
asg19
F0.7
sg20
(lp1457
g22
ag23
ag24
ag25
asg26
I01
sg27
g28
sg29
(lp1458
g31
ag32
ag33
ag34
ag35
asg36
g37
sg38
(lp1459
g40
ag41
asbsg42
(lp1460
F0.0
aF1.0
asg44
I58
sg45
g1198
sg46
I25
sa(dp1461
g5
F57.36086912297657
sg6
I0
sg7
I2
sg8
(iTFClasses
function
p1462
(dp1463
g11
(lp1464
F6.698820625924493
aF0.31513759429670074
aF0.13926037555450632
aF0.630016308211033
aF0.45206899300564984
asg13
(lp1465
F415.7110304347261
aF49.49840048539724
aF8.129757784107738
aF54.3215989732364
aF2.3555264532927334
asg15
(lp1466
g17
ag18
asg19
F0.7
sg20
(lp1467
g22
ag23
ag24
ag25
asg26
I01
sg27
g28
sg29
(lp1468
g31
ag32
ag33
ag34
ag35
asg36
g37
sg38
(lp1469
g40
ag41
asbsg42
(lp1470
F0.0
aF1.0
asg44
I58
sg45
g1198
sg46
I26
sa(dp1471
g5
F58.413450656614785
sg6
I0
sg7
I2
sg8
(iTFClasses
function
p1472
(dp1473
g11
(lp1474
F7.540951193266142
aF0.20567821020569
aF0.17792354910084462
aF0.4804827950457522
aF0.41703801789727546
asg13
(lp1475
F431.0203828637902
aF53.4295549958961
aF7.262064223757969
aF46.306836769415945
aF7.30594306094956
asg15
(lp1476
g17
ag18
asg19
F0.7
sg20
(lp1477
g22
ag23
ag24
ag25
asg26
I01
sg27
g28
sg29
(lp1478
g31
ag32
ag33
ag34
ag35
asg36
g37
sg38
(lp1479
g40
ag41
asbsg42
(lp1480
F0.0
aF1.0
asg44
I58
sg45
g1198
sg46
I27
sa(dp1481
g5
F59.50559185471221
sg6
I0
sg7
I2
sg8
(iTFClasses
function
p1482
(dp1483
g11
(lp1484
F7.513310371996315
aF0.4101933866616214
aF0.14569026497024407
aF0.8711451020632985
aF0.5039834262046683
asg13
(lp1485
F414.0189070470121
aF51.393443920334974
aF8.650323986411411
aF55.94017685309223
aF1.3156484400247415
asg15
(lp1486
g17
ag18
asg19
F0.7
sg20
(lp1487
g22
ag23
ag24
ag25
asg26
I01
sg27
g28
sg29
(lp1488
g31
ag32
ag33
ag34
ag35
asg36
g37
sg38
(lp1489
g40
ag41
asbsg42
(lp1490
F0.0
aF1.0
asg44
I58
sg45
g1198
sg46
I28
sa(dp1491
g5
F60.63449066084107
sg6
I0
sg7
I2
sg8
(iTFClasses
function
p1492
(dp1493
g11
(lp1494
F7.296764510907701
aF0.2148983392798911
aF0.18039658222551713
aF0.4531620588781031
aF0.41974582487858125
asg13
(lp1495
F432.6103195991808
aF55.2700671283755
aF7.679092630745732
aF48.5542382507343
aF6.886033515728918
asg15
(lp1496
g17
ag18
asg19
F0.7
sg20
(lp1497
g22
ag23
ag24
ag25
asg26
I01
sg27
g28
sg29
(lp1498
g31
ag32
ag33
ag34
ag35
asg36
g37
sg38
(lp1499
g40
ag41
asbsg42
(lp1500
F0.0
aF1.0
asg44
I58
sg45
g1198
sg46
I29
sa(dp1501
g5
F61.78875296112389
sg6
I0
sg7
I2
sg8
(iTFClasses
function
p1502
(dp1503
g11
(lp1504
F7.139257021756225
aF0.21388902406324561
aF0.18383138880862004
aF0.4847184212433575
aF0.4496107711922104
asg13
(lp1505
F430.6776657356401
aF56.699494913511245
aF7.970229518830307
aF48.48499637332655
aF6.600508784261883
asg15
(lp1506
g17
ag18
asg19
F0.7
sg20
(lp1507
g22
ag23
ag24
ag25
asg26
I01
sg27
g28
sg29
(lp1508
g31
ag32
ag33
ag34
ag35
asg36
g37
sg38
(lp1509
g40
ag41
asbsg42
(lp1510
F0.0
aF1.0
asg44
I58
sg45
g1198
sg46
I30
sa(dp1511
g5
F62.9841190444431
sg6
I0
sg7
I2
sg8
(iTFClasses
function
p1512
(dp1513
g11
(lp1514
F7.095367907059725
aF0.22657210933427763
aF0.1847821131597538
aF0.4429409717061361
aF0.4174371615011663
asg13
(lp1515
F423.86536185236105
aF57.06553272156426
aF7.990551693073944
aF50.89173916421089
aF6.725006744259576
asg15
(lp1516
g17
ag18
asg19
F0.7
sg20
(lp1517
g22
ag23
ag24
ag25
asg26
I01
sg27
g28
sg29
(lp1518
g31
ag32
ag33
ag34
ag35
asg36
g37
sg38
(lp1519
g40
ag41
asbsg42
(lp1520
F0.0
aF1.0
asg44
I58
sg45
g1198
sg46
I31
sa(dp1521
g5
F64.2173931801693
sg6
I0
sg7
I2
sg8
(iTFClasses
function
p1522
(dp1523
g11
(lp1524
F7.418451377972567
aF0.2203293202345904
aF0.18819884890836125
aF0.4452261159646156
aF0.40818315842444663
asg13
(lp1525
F430.7807279396943
aF58.2941463776931
aF7.910674497713099
aF51.225828843578256
aF7.598101038450378
asg15
(lp1526
g17
ag18
asg19
F0.7
sg20
(lp1527
g22
ag23
ag24
ag25
asg26
I01
sg27
g28
sg29
(lp1528
g31
ag32
ag33
ag34
ag35
asg36
g37
sg38
(lp1529
g40
ag41
asbsg42
(lp1530
F0.0
aF1.0
asg44
I58
sg45
g1198
sg46
I32
sa(dp1531
g5
F65.51937266099637
sg6
I0
sg7
I2
sg8
(iTFClasses
function
p1532
(dp1533
g11
(lp1534
F7.310212264661039
aF0.24311074349642325
aF0.20087156975712173
aF0.44971828145841997
aF0.4458347194814527
asg13
(lp1535
F428.26475570661574
aF59.67991733089811
aF8.324704458844367
aF53.12068090765888
aF6.293666864982672
asg15
(lp1536
g17
ag18
asg19
F0.7
sg20
(lp1537
g22
ag23
ag24
ag25
asg26
I01
sg27
g28
sg29
(lp1538
g31
ag32
ag33
ag34
ag35
asg36
g37
sg38
(lp1539
g40
ag41
asbsg42
(lp1540
F0.0
aF1.0
asg44
I58
sg45
g1198
sg46
I33
sa(dp1541
g5
F66.84381587493941
sg6
I0
sg7
I2
sg8
(iTFClasses
function
p1542
(dp1543
g11
(lp1544
F7.384578520256514
aF0.22830038233714234
aF0.1886667205204251
aF0.43626504080994266
aF0.41449117771685806
asg13
(lp1545
F434.4000958524435
aF60.796953287426795
aF8.152734826085029
aF53.1622145744015
aF7.368275323424878
asg15
(lp1546
g17
ag18
asg19
F0.7
sg20
(lp1547
g22
ag23
ag24
ag25
asg26
I01
sg27
g28
sg29
(lp1548
g31
ag32
ag33
ag34
ag35
asg36
g37
sg38
(lp1549
g40
ag41
asbsg42
(lp1550
F0.0
aF1.0
asg44
I58
sg45
g1198
sg46
I34
sa(dp1551
g5
F68.22630786992264
sg6
I0
sg7
I2
sg8
(iTFClasses
function
p1552
(dp1553
g11
(lp1554
F7.554174856123007
aF0.24168999625749876
aF0.19691640386920728
aF0.41555762836124543
aF0.383024263006182
asg13
(lp1555
F437.84549750888874
aF61.66645134183116
aF8.287212727568605
aF56.46545958723539
aF6.81826443920841
asg15
(lp1556
g17
ag18
asg19
F0.7
sg20
(lp1557
g22
ag23
ag24
ag25
asg26
I01
sg27
g28
sg29
(lp1558
g31
ag32
ag33
ag34
ag35
asg36
g37
sg38
(lp1559
g40
ag41
asbsg42
(lp1560
F0.0
aF1.0
asg44
I58
sg45
g1198
sg46
I35
sa(dp1561
g5
F69.69084066173798
sg6
I0
sg7
I2
sg8
(iTFClasses
function
p1562
(dp1563
g11
(lp1564
F7.443392149685762
aF0.24084022787364745
aF0.1938763632386431
aF0.4408686701613931
aF0.43107246860640824
asg13
(lp1565
F443.3922099471173
aF63.474594234106604
aF8.479626244800254
aF55.930296928963244
aF6.914809930433585
asg15
(lp1566
g17
ag18
asg19
F0.7
sg20
(lp1567
g22
ag23
ag24
ag25
asg26
I01
sg27
g28
sg29
(lp1568
g31
ag32
ag33
ag34
ag35
asg36
g37
sg38
(lp1569
g40
ag41
asbsg42
(lp1570
F0.0
aF1.0
asg44
I58
sg45
g1198
sg46
I36
sa(dp1571
g5
F71.20586355038196
sg6
I0
sg7
I2
sg8
(iTFClasses
function
p1572
(dp1573
g11
(lp1574
F12.981481913289834
aF0.1794059556890346
aF0.18885025015280554
aF0.5731640436557335
aF0.36254680292141517
asg13
(lp1575
F500.939953107805
aF66.78927084248093
aF9.05472154596476
aF51.16446812163393
aF0.743650470266255
asg15
(lp1576
g17
ag18
asg19
F0.7
sg20
(lp1577
g22
ag23
ag24
ag25
asg26
I01
sg27
g28
sg29
(lp1578
g31
ag32
ag33
ag34
ag35
asg36
g37
sg38
(lp1579
g40
ag41
asbsg42
(lp1580
F0.0
aF1.0
asg44
I58
sg45
g1198
sg46
I37
sa(dp1581
g5
F72.80845910577972
sg6
I0
sg7
I2
sg8
(iTFClasses
function
p1582
(dp1583
g11
(lp1584
F7.530165154064897
aF0.23656617523798218
aF0.1936355521369162
aF0.4213645257379568
aF0.3803430944835928
asg13
(lp1585
F443.07261879047377
aF66.45107106354214
aF8.558372586022323
aF58.82106185338303
aF7.5920563864383395
asg15
(lp1586
g17
ag18
asg19
F0.7
sg20
(lp1587
g22
ag23
ag24
ag25
asg26
I01
sg27
g28
sg29
(lp1588
g31
ag32
ag33
ag34
ag35
asg36
g37
sg38
(lp1589
g40
ag41
asbsg42
(lp1590
F0.0
aF1.0
asg44
I58
sg45
g1198
sg46
I38
sa(dp1591
g5
F74.47840617783957
sg6
I0
sg7
I2
sg8
(iTFClasses
function
p1592
(dp1593
g11
(lp1594
F7.918907042915791
aF0.35040391717827646
aF0.2475732557999928
aF0.7130241157065029
aF0.5965333542141682
asg13
(lp1595
F434.3808589111036
aF67.46043829882505
aF9.413047646723571
aF60.72757294168171
aF5.8174870547033075
asg15
(lp1596
g17
ag18
asg19
F0.7
sg20
(lp1597
g22
ag23
ag24
ag25
asg26
I01
sg27
g28
sg29
(lp1598
g31
ag32
ag33
ag34
ag35
asg36
g37
sg38
(lp1599
g40
ag41
asbsg42
(lp1600
F0.0
aF1.0
asg44
I58
sg45
g1198
sg46
I39
sa(dp1601
g5
F76.21827289594955
sg6
I0
sg7
I2
sg8
(iTFClasses
function
p1602
(dp1603
g11
(lp1604
F7.7305928602347285
aF0.24961341730825382
aF0.20592727732243787
aF0.42962805818872596
aF0.3899914669627247
asg13
(lp1605
F448.41524626614756
aF69.18875366866978
aF8.90048161603696
aF61.45378976880141
aF8.487069268887094
asg15
(lp1606
g17
ag18
asg19
F0.7
sg20
(lp1607
g22
ag23
ag24
ag25
asg26
I01
sg27
g28
sg29
(lp1608
g31
ag32
ag33
ag34
ag35
asg36
g37
sg38
(lp1609
g40
ag41
asbsg42
(lp1610
F0.0
aF1.0
asg44
I58
sg45
g1198
sg46
I40
sa(dp1611
g5
F78.0665294117647
sg6
I0
sg7
I2
sg8
(iTFClasses
function
p1612
(dp1613
g11
(lp1614
F7.5735497779065275
aF0.24542418864840698
aF0.20092157197415617
aF0.436214631200869
aF0.39142780863798965
asg13
(lp1615
F452.6559560861575
aF71.0141072851726
aF9.074748519515952
aF62.931059122417345
aF8.268779106788028
asg15
(lp1616
g17
ag18
asg19
F0.7
sg20
(lp1617
g22
ag23
ag24
ag25
asg26
I01
sg27
g28
sg29
(lp1618
g31
ag32
ag33
ag34
ag35
asg36
g37
sg38
(lp1619
g40
ag41
asbsg42
(lp1620
F0.0
aF1.0
asg44
I58
sg45
g1198
sg46
I41
sa(dp1621
g5
F80.03966722414106
sg6
I0
sg7
I2
sg8
(iTFClasses
function
p1622
(dp1623
g11
(lp1624
F8.098829986577803
aF0.2747388893995577
aF0.21199052020132214
aF0.5277284695207207
aF0.49525155813862076
asg13
(lp1625
F467.77093862123786
aF73.83665444110015
aF9.309769981094785
aF63.19719636407656
aF7.095167764340271
asg15
(lp1626
g17
ag18
asg19
F0.7
sg20
(lp1627
g22
ag23
ag24
ag25
asg26
I01
sg27
g28
sg29
(lp1628
g31
ag32
ag33
ag34
ag35
asg36
g37
sg38
(lp1629
g40
ag41
asbsg42
(lp1630
F0.0
aF1.0
asg44
I58
sg45
g1198
sg46
I42
sa(dp1631
g5
F82.1651292128704
sg6
I0
sg7
I2
sg8
(iTFClasses
function
p1632
(dp1633
g11
(lp1634
F7.581216390526124
aF0.25147619719601266
aF0.2028328601920153
aF0.44104519299354195
aF0.3925864471924223
asg13
(lp1635
F456.0746935342552
aF74.62748416909115
aF9.366806689689145
aF66.64229963010547
aF8.907427811576163
asg15
(lp1636
g17
ag18
asg19
F0.7
sg20
(lp1637
g22
ag23
ag24
ag25
asg26
I01
sg27
g28
sg29
(lp1638
g31
ag32
ag33
ag34
ag35
asg36
g37
sg38
(lp1639
g40
ag41
asbsg42
(lp1640
F0.0
aF1.0
asg44
I58
sg45
g1198
sg46
I43
sa(dp1641
g5
F84.4513302260743
sg6
I0
sg7
I2
sg8
(iTFClasses
function
p1642
(dp1643
g11
(lp1644
F7.707452317177348
aF0.275798321912724
aF0.2253939404269758
aF0.5175842044504293
aF0.46610850632822176
asg13
(lp1645
F454.0455714080162
aF77.66023253559808
aF9.97136637962348
aF66.85911345299039
aF7.942197082197788
asg15
(lp1646
g17
ag18
asg19
F0.7
sg20
(lp1647
g22
ag23
ag24
ag25
asg26
I01
sg27
g28
sg29
(lp1648
g31
ag32
ag33
ag34
ag35
asg36
g37
sg38
(lp1649
g40
ag41
asbsg42
(lp1650
F0.0
aF1.0
asg44
I58
sg45
g1198
sg46
I44
sa(dp1651
g5
F86.9057850218129
sg6
I0
sg7
I2
sg8
(iTFClasses
function
p1652
(dp1653
g11
(lp1654
F8.003150409909182
aF0.2534164795962681
aF0.20690003401863155
aF0.4360905822038461
aF0.38350921907498403
asg13
(lp1655
F474.33840595945856
aF79.23557179397812
aF9.410812099340804
aF70.50097213972683
aF9.560919133440816
asg15
(lp1656
g17
ag18
asg19
F0.7
sg20
(lp1657
g22
ag23
ag24
ag25
asg26
I01
sg27
g28
sg29
(lp1658
g31
ag32
ag33
ag34
ag35
asg36
g37
sg38
(lp1659
g40
ag41
asbsg42
(lp1660
F0.0
aF1.0
asg44
I58
sg45
g1198
sg46
I45
sa(dp1661
g5
F89.58771072098796
sg6
I0
sg7
I2
sg8
(iTFClasses
function
p1662
(dp1663
g11
(lp1664
F7.921607784061221
aF0.2789854620925851
aF0.2141468204264747
aF0.4767772547633484
aF0.4178829954254457
asg13
(lp1665
F472.7086996126608
aF81.6203889534147
aF9.917784689526865
aF72.64999881982476
aF9.059958949417135
asg15
(lp1666
g17
ag18
asg19
F0.7
sg20
(lp1667
g22
ag23
ag24
ag25
asg26
I01
sg27
g28
sg29
(lp1668
g31
ag32
ag33
ag34
ag35
asg36
g37
sg38
(lp1669
g40
ag41
asbsg42
(lp1670
F0.0
aF1.0
asg44
I58
sg45
g1198
sg46
I46
sa(dp1671
g5
F92.55428309313311
sg6
I0
sg7
I2
sg8
(iTFClasses
function
p1672
(dp1673
g11
(lp1674
F7.8535809985016245
aF0.2804426078296274
aF0.22313966635917293
aF0.48850855004741334
aF0.4351904792722623
asg13
(lp1675
F466.1533841324114
aF84.68565262311043
aF10.258533848517493
aF74.31879798450265
aF9.244279549666778
asg15
(lp1676
g17
ag18
asg19
F0.7
sg20
(lp1677
g22
ag23
ag24
ag25
asg26
I01
sg27
g28
sg29
(lp1678
g31
ag32
ag33
ag34
ag35
asg36
g37
sg38
(lp1679
g40
ag41
asbsg42
(lp1680
F0.0
aF1.0
asg44
I58
sg45
g1198
sg46
I47
sa(dp1681
g5
F95.82780327451337
sg6
I0
sg7
I2
sg8
(iTFClasses
function
p1682
(dp1683
g11
(lp1684
F8.091995457605023
aF0.27177042857583444
aF0.2283487563427551
aF0.4651107302306201
aF0.3964526781944917
asg13
(lp1685
F477.1496726163385
aF87.21830380715525
aF10.258443637427671
aF78.19639209726691
aF9.99755219626508
asg15
(lp1686
g17
ag18
asg19
F0.7
sg20
(lp1687
g22
ag23
ag24
ag25
asg26
I01
sg27
g28
sg29
(lp1688
g31
ag32
ag33
ag34
ag35
asg36
g37
sg38
(lp1689
g40
ag41
asbsg42
(lp1690
F0.0
aF1.0
asg44
I58
sg45
g1198
sg46
I48
sa(dp1691
g5
F99.47315352666949
sg6
I0
sg7
I2
sg8
(iTFClasses
function
p1692
(dp1693
g11
(lp1694
F8.236018135933175
aF0.26782432529946476
aF0.22366495882647452
aF0.463855973502298
aF0.39155687700514985
asg13
(lp1695
F491.645464116321
aF90.93625025971573
aF10.281267168528728
aF80.9868114399647
aF11.078468946439823
asg15
(lp1696
g17
ag18
asg19
F0.7
sg20
(lp1697
g22
ag23
ag24
ag25
asg26
I01
sg27
g28
sg29
(lp1698
g31
ag32
ag33
ag34
ag35
asg36
g37
sg38
(lp1699
g40
ag41
asbsg42
(lp1700
F0.0
aF1.0
asg44
I58
sg45
g1198
sg46
I49
sa(dp1701
g5
F103.56037685230025
sg6
I0
sg7
I2
sg8
(iTFClasses
function
p1702
(dp1703
g11
(lp1704
F8.279081434261723
aF0.30019472749924603
aF0.23960761066815817
aF0.5049864795396246
aF0.4413546686149461
asg13
(lp1705
F489.8902571014946
aF94.9776559051037
aF10.988854221817723
aF84.47548773194123
aF10.258510544574051
asg15
(lp1706
g17
ag18
asg19
F0.7
sg20
(lp1707
g22
ag23
ag24
ag25
asg26
I01
sg27
g28
sg29
(lp1708
g31
ag32
ag33
ag34
ag35
asg36
g37
sg38
(lp1709
g40
ag41
asbsg42
(lp1710
F0.0
aF1.0
asg44
I58
sg45
g1198
sg46
I50
sa(dp1711
g5
F108.25104196363637
sg6
I0
sg7
I2
sg8
(iTFClasses
function
p1712
(dp1713
g11
(lp1714
F8.222250374267517
aF0.29420052736178093
aF0.24783636065078785
aF0.49977857961777516
aF0.41228541776056105
asg13
(lp1715
F479.884032029214
aF98.96763966478952
aF11.066050708237185
aF89.0403829426309
aF11.887935713505215
asg15
(lp1716
g17
ag18
asg19
F0.7
sg20
(lp1717
g22
ag23
ag24
ag25
asg26
I01
sg27
g28
sg29
(lp1718
g31
ag32
ag33
ag34
ag35
asg36
g37
sg38
(lp1719
g40
ag41
asbsg42
(lp1720
F0.0
aF1.0
asg44
I58
sg45
g1198
sg46
I51
sa(dp1721
g5
F113.84854970328206
sg6
I0
sg7
I2
sg8
(iTFClasses
function
p1722
(dp1723
g11
(lp1724
F8.17250536583248
aF0.3223033289894204
aF0.2566631266812669
aF0.5340328379370547
aF0.4411446681543145
asg13
(lp1725
F491.2494104023488
aF104.33833746288549
aF12.035948149624943
aF94.21951634309917
aF11.673360981986125
asg15
(lp1726
g17
ag18
asg19
F0.7
sg20
(lp1727
g22
ag23
ag24
ag25
asg26
I01
sg27
g28
sg29
(lp1728
g31
ag32
ag33
ag34
ag35
asg36
g37
sg38
(lp1729
g40
ag41
asbsg42
(lp1730
F0.0
aF1.0
asg44
I58
sg45
g1198
sg46
I52
sa(dp1731
g5
F120.71369770909092
sg6
I0
sg7
I2
sg8
(iTFClasses
function
p1732
(dp1733
g11
(lp1734
F8.8252770498499
aF0.30482172726419776
aF0.25212358264925516
aF0.5071988545140442
aF0.4294917453911973
asg13
(lp1735
F517.60907304466
aF111.14014034897123
aF11.583059528886942
aF101.11034805794853
aF12.617229128298323
asg15
(lp1736
g17
ag18
asg19
F0.7
sg20
(lp1737
g22
ag23
ag24
ag25
asg26
I01
sg27
g28
sg29
(lp1738
g31
ag32
ag33
ag34
ag35
asg36
g37
sg38
(lp1739
g40
ag41
asbsg42
(lp1740
F0.0
aF1.0
asg44
I58
sg45
g1198
sg46
I53
sa(dp1741
g5
F129.4832880101732
sg6
I0
sg7
I2
sg8
(iTFClasses
function
p1742
(dp1743
g11
(lp1744
F8.762122663373166
aF0.3170046658373522
aF0.261703188231432
aF0.5342700566231358
aF0.446008038982149
asg13
(lp1745
F525.5223207403138
aF119.48103106659251
aF12.511729773483138
aF110.00010018801646
aF13.781904677895085
asg15
(lp1746
g17
ag18
asg19
F0.7
sg20
(lp1747
g22
ag23
ag24
ag25
asg26
I01
sg27
g28
sg29
(lp1748
g31
ag32
ag33
ag34
ag35
asg36
g37
sg38
(lp1749
g40
ag41
asbsg42
(lp1750
F0.0
aF1.0
asg44
I58
sg45
g1198
sg46
I54
sa(dp1751
g5
F141.51459109576595
sg6
I0
sg7
I2
sg8
(iTFClasses
function
p1752
(dp1753
g11
(lp1754
F8.847252888522037
aF0.3586901887132683
aF0.2992173294857352
aF0.5898336508602924
aF0.48571510882711166
asg13
(lp1755
F523.9650156844667
aF131.33894988202422
aF13.863968166593853
aF121.23575893462544
aF14.46513832055385
asg15
(lp1756
g17
ag18
asg19
F0.7
sg20
(lp1757
g22
ag23
ag24
ag25
asg26
I01
sg27
g28
sg29
(lp1758
g31
ag32
ag33
ag34
ag35
asg36
g37
sg38
(lp1759
g40
ag41
asbsg42
(lp1760
F0.0
aF1.0
asg44
I58
sg45
g1198
sg46
I55
sa(dp1761
g5
F160.3211047982552
sg6
I0
sg7
I2
sg8
(iTFClasses
function
p1762
(dp1763
g11
(lp1764
F9.31349016088937
aF0.3910332730064425
aF0.3293989935049808
aF0.6486013681198131
aF0.5372901549341993
asg13
(lp1765
F555.5327601413327
aF150.3178675122938
aF15.455328750678454
aF140.06275569495978
aF15.588317343863123
asg15
(lp1766
g17
ag18
asg19
F0.7
sg20
(lp1767
g22
ag23
ag24
ag25
asg26
I01
sg27
g28
sg29
(lp1768
g31
ag32
ag33
ag34
ag35
asg36
g37
sg38
(lp1769
g40
ag41
asbsg42
(lp1770
F0.0
aF1.0
asg44
I58
sg45
g1198
sg46
I56
sa(dp1771
g5
F209.16526422774078
sg6
I0
sg7
I2
sg8
(iTFClasses
function
p1772
(dp1773
g11
(lp1774
F11.021494622398087
aF0.6980039482886014
aF0.6524629778996704
aF1.1511657687415635
aF0.961370276481798
asg13
(lp1775
F585.1154933185873
aF183.14339786989507
aF24.229607687714537
aF209.57051833905066
aF29.591970680668545
asg15
(lp1776
g17
ag18
asg19
F0.7
sg20
(lp1777
g22
ag23
ag24
ag25
asg26
I01
sg27
g28
sg29
(lp1778
g31
ag32
ag33
ag34
ag35
asg36
g37
sg38
(lp1779
g40
ag41
asbsg42
(lp1780
F0.0
aF1.0
asg44
I58
sg45
g1198
sg46
I57
saa(lp1781
(dp1782
g5
F30.885944843049327
sg6
I1
sg7
I2
sg8
(iTFClasses
function
p1783
(dp1784
g11
(lp1785
F8.61968320697926
aF0.42159972246321686
aF0.11812835793617582
aF0.17664829042545094
aF0.1938530217724388
asg13
(lp1786
F449.0557162959019
aF31.00000000293704
aF4.251225425362382
aF29.000000000209305
aF6.446334833413392
asg15
(lp1787
g17
ag18
asg19
F0.7
sg20
(lp1788
g22
ag23
ag24
ag25
asg26
I01
sg27
g28
sg29
(lp1789
g31
ag32
ag33
ag34
ag35
asg36
g37
sg38
(lp1790
g40
ag41
asbsg42
(lp1791
F1.0
aF2.5
asg44
I58
sg45
g1198
sg46
I0
sa(dp1792
g5
F32.454030921655146
sg6
I1
sg7
I2
sg8
(iTFClasses
function
p1793
(dp1794
g11
(lp1795
F9.54965128267039
aF0.3943942296999534
aF0.2534479559402891
aF0.4451758179991572
aF0.34585912669810037
asg13
(lp1796
F434.43613474256085
aF31.144251357471838
aF4.679055808168187
aF29.00000000930936
aF6.352038672641225
asg15
(lp1797
g17
ag18
asg19
F0.7
sg20
(lp1798
g22
ag23
ag24
ag25
asg26
I01
sg27
g28
sg29
(lp1799
g31
ag32
ag33
ag34
ag35
asg36
g37
sg38
(lp1800
g40
ag41
asbsg42
(lp1801
F1.0
aF2.5
asg44
I58
sg45
g1198
sg46
I1
sa(dp1802
g5
F33.79792543582932
sg6
I1
sg7
I2
sg8
(iTFClasses
function
p1803
(dp1804
g11
(lp1805
F7.488008171325036
aF0.1622659361924086
aF0.1733358350012315
aF1.9429134594580066
aF0.25296210936787134
asg13
(lp1806
F380.61349313443463
aF33.580628811171096
aF4.376876160098964
aF29.00000001126697
aF7.320757871307149
asg15
(lp1807
g17
ag18
asg19
F0.7
sg20
(lp1808
g22
ag23
ag24
ag25
asg26
I01
sg27
g28
sg29
(lp1809
g31
ag32
ag33
ag34
ag35
asg36
g37
sg38
(lp1810
g40
ag41
asbsg42
(lp1811
F1.0
aF2.5
asg44
I58
sg45
g1198
sg46
I2
sa(dp1812
g5
F35.01367381845461
sg6
I1
sg7
I2
sg8
(iTFClasses
function
p1813
(dp1814
g11
(lp1815
F6.727849183727603
aF0.3001476021127054
aF0.22872384952604685
aF0.8804562075715694
aF0.32202794711644334
asg13
(lp1816
F380.49762339091217
aF33.04163687106396
aF5.2394866853556765
aF29.000000007518825
aF7.052438375281245
asg15
(lp1817
g17
ag18
asg19
F0.7
sg20
(lp1818
g22
ag23
ag24
ag25
asg26
I01
sg27
g28
sg29
(lp1819
g31
ag32
ag33
ag34
ag35
asg36
g37
sg38
(lp1820
g40
ag41
asbsg42
(lp1821
F1.0
aF2.5
asg44
I58
sg45
g1198
sg46
I3
sa(dp1822
g5
F36.14343302066905
sg6
I1
sg7
I2
sg8
(iTFClasses
function
p1823
(dp1824
g11
(lp1825
F13.858459375961669
aF0.11289832559067392
aF0.09929811401188093
aF0.24018484117277694
aF0.24141154671986076
asg13
(lp1826
F466.2285941056436
aF34.081336256499114
aF2.6339739742440305
aF39.987885207794676
aF3.2279474722417545
asg15
(lp1827
g17
ag18
asg19
F0.7
sg20
(lp1828
g22
ag23
ag24
ag25
asg26
I01
sg27
g28
sg29
(lp1829
g31
ag32
ag33
ag34
ag35
asg36
g37
sg38
(lp1830
g40
ag41
asbsg42
(lp1831
F1.0
aF2.5
asg44
I58
sg45
g1198
sg46
I4
sa(dp1832
g5
F37.19048622724628
sg6
I1
sg7
I2
sg8
(iTFClasses
function
p1833
(dp1834
g11
(lp1835
F17.52314012765886
aF0.2543908784623774
aF0.16914458569627921
aF0.727644078066966
aF0.5692029252349906
asg13
(lp1836
F377.77928086651167
aF34.948413704184325
aF3.728936639677216
aF39.687988666578484
aF3.6068959738450035
asg15
(lp1837
g17
ag18
asg19
F0.7
sg20
(lp1838
g22
ag23
ag24
ag25
asg26
I01
sg27
g28
sg29
(lp1839
g31
ag32
ag33
ag34
ag35
asg36
g37
sg38
(lp1840
g40
ag41
asbsg42
(lp1841
F1.0
aF2.5
asg44
I58
sg45
g1198
sg46
I5
sa(dp1842
g5
F38.188449036777584
sg6
I1
sg7
I2
sg8
(iTFClasses
function
p1843
(dp1844
g11
(lp1845
F14.342053189976259
aF0.17581591396787744
aF0.14675032924177378
aF0.4241813883295684
aF0.3298690807134741
asg13
(lp1846
F398.3783682551488
aF35.112165608476026
aF3.854284405815922
aF41.11606125432202
aF2.842941208837324
asg15
(lp1847
g17
ag18
asg19
F0.7
sg20
(lp1848
g22
ag23
ag24
ag25
asg26
I01
sg27
g28
sg29
(lp1849
g31
ag32
ag33
ag34
ag35
asg36
g37
sg38
(lp1850
g40
ag41
asbsg42
(lp1851
F1.0
aF2.5
asg44
I58
sg45
g1198
sg46
I6
sa(dp1852
g5
F39.141113071732065
sg6
I1
sg7
I2
sg8
(iTFClasses
function
p1853
(dp1854
g11
(lp1855
F12.147788723108581
aF0.16537886309016514
aF0.13443567574683568
aF0.3628237716678555
aF0.2947090894895865
asg13
(lp1856
F382.06495526055824
aF35.653383324544706
aF3.941153438181688
aF42.24314555456192
aF2.9328619676171064
asg15
(lp1857
g17
ag18
asg19
F0.7
sg20
(lp1858
g22
ag23
ag24
ag25
asg26
I01
sg27
g28
sg29
(lp1859
g31
ag32
ag33
ag34
ag35
asg36
g37
sg38
(lp1860
g40
ag41
asbsg42
(lp1861
F1.0
aF2.5
asg44
I58
sg45
g1198
sg46
I7
sa(dp1862
g5
F40.07609213483146
sg6
I1
sg7
I2
sg8
(iTFClasses
function
p1863
(dp1864
g11
(lp1865
F5.426911028822226
aF0.2705950460221338
aF0.23241779085542147
aF3.508978154925323
aF0.4030226046164431
asg13
(lp1866
F322.42573087781733
aF36.38737662336839
aF6.88255687332795
aF29.00000000015635
aF6.987430012402096
asg15
(lp1867
g17
ag18
asg19
F0.7
sg20
(lp1868
g22
ag23
ag24
ag25
asg26
I01
sg27
g28
sg29
(lp1869
g31
ag32
ag33
ag34
ag35
asg36
g37
sg38
(lp1870
g40
ag41
asbsg42
(lp1871
F1.0
aF2.5
asg44
I58
sg45
g1198
sg46
I8
sa(dp1872
g5
F40.99566795827124
sg6
I1
sg7
I2
sg8
(iTFClasses
function
p1873
(dp1874
g11
(lp1875
F5.7053000429392196
aF0.2134521978707653
aF0.20085536412722815
aF1.1536630370020688
aF0.3712344639695826
asg13
(lp1876
F324.6747005141362
aF37.32924820315749
aF6.539001883150597
aF29.000000002100062
aF8.149302980727246
asg15
(lp1877
g17
ag18
asg19
F0.7
sg20
(lp1878
g22
ag23
ag24
ag25
asg26
I01
sg27
g28
sg29
(lp1879
g31
ag32
ag33
ag34
ag35
asg36
g37
sg38
(lp1880
g40
ag41
asbsg42
(lp1881
F1.0
aF2.5
asg44
I58
sg45
g1198
sg46
I9
sa(dp1882
g5
F41.8846570666222
sg6
I1
sg7
I2
sg8
(iTFClasses
function
p1883
(dp1884
g11
(lp1885
F6.575267827883313
aF0.21577120897110547
aF0.17499732138143198
aF1590.6263535281028
aF13.405499744135398
asg13
(lp1886
F401.3979221943165
aF37.29704282437301
aF8.451999139623577
aF1999.9999986389985
aF675.0610639026291
asg15
(lp1887
g17
ag18
asg19
F0.7
sg20
(lp1888
g22
ag23
ag24
ag25
asg26
I01
sg27
g28
sg29
(lp1889
g31
ag32
ag33
ag34
ag35
asg36
g37
sg38
(lp1890
g40
ag41
asbsg42
(lp1891
F1.0
aF2.5
asg44
I58
sg45
g1198
sg46
I10
sa(dp1892
g5
F42.77374690383177
sg6
I1
sg7
I2
sg8
(iTFClasses
function
p1893
(dp1894
g11
(lp1895
F11.283454999162798
aF0.44395358327911083
aF0.20066829596121494
aF1.2773602379573106
aF0.7272746542515973
asg13
(lp1896
F315.37169218360674
aF37.79139590305436
aF5.934729896780011
aF42.123044218298986
aF3.314830387345813
asg15
(lp1897
g17
ag18
asg19
F0.7
sg20
(lp1898
g22
ag23
ag24
ag25
asg26
I01
sg27
g28
sg29
(lp1899
g31
ag32
ag33
ag34
ag35
asg36
g37
sg38
(lp1900
g40
ag41
asbsg42
(lp1901
F1.0
aF2.5
asg44
I58
sg45
g1198
sg46
I11
sa(dp1902
g5
F43.660475955056185
sg6
I1
sg7
I2
sg8
(iTFClasses
function
p1903
(dp1904
g11
(lp1905
F5.581957985989862
aF0.20563907018405914
aF0.19919389503181284
aF1.2201267843365695
aF0.41038272738486103
asg13
(lp1906
F310.3036851938017
aF39.646755211296956
aF7.034679895458473
aF29.00000000713282
aF9.05828587406754
asg15
(lp1907
g17
ag18
asg19
F0.7
sg20
(lp1908
g22
ag23
ag24
ag25
asg26
I01
sg27
g28
sg29
(lp1909
g31
ag32
ag33
ag34
ag35
asg36
g37
sg38
(lp1910
g40
ag41
asbsg42
(lp1911
F1.0
aF2.5
asg44
I58
sg45
g1198
sg46
I12
sa(dp1912
g5
F44.54539547872341
sg6
I1
sg7
I2
sg8
(iTFClasses
function
p1913
(dp1914
g11
(lp1915
F5.406216665542465
aF0.1952802152173838
aF0.18614191973631566
aF2.5686505134748394
aF0.40162244890967713
asg13
(lp1916
F297.98051841231836
aF40.616502180745684
aF7.136843592385977
aF29.00000002862329
aF9.784406887614061
asg15
(lp1917
g17
ag18
asg19
F0.7
sg20
(lp1918
g22
ag23
ag24
ag25
asg26
I01
sg27
g28
sg29
(lp1919
g31
ag32
ag33
ag34
ag35
asg36
g37
sg38
(lp1920
g40
ag41
asbsg42
(lp1921
F1.0
aF2.5
asg44
I58
sg45
g1198
sg46
I13
sa(dp1922
g5
F45.426851497005984
sg6
I1
sg7
I2
sg8
(iTFClasses
function
p1923
(dp1924
g11
(lp1925
F8.146390936794731
aF0.45227556707921224
aF0.18153732549724966
aF1.2051335456264098
aF0.7182553019245419
asg13
(lp1926
F296.7464485891163
aF40.01809039107373
aF6.672105945023987
aF43.945577741310906
aF3.3830170031278195
asg15
(lp1927
g17
ag18
asg19
F0.7
sg20
(lp1928
g22
ag23
ag24
ag25
asg26
I01
sg27
g28
sg29
(lp1929
g31
ag32
ag33
ag34
ag35
asg36
g37
sg38
(lp1930
g40
ag41
asbsg42
(lp1931
F1.0
aF2.5
asg44
I58
sg45
g1198
sg46
I14
sa(dp1932
g5
F46.30771715996009
sg6
I1
sg7
I2
sg8
(iTFClasses
function
p1933
(dp1934
g11
(lp1935
F5.573843983217456
aF0.1975353440327865
aF0.18884415103193053
aF2.169146765356942
aF0.41069454471442945
asg13
(lp1936
F298.63691464719534
aF41.906594074848414
aF7.23056199198846
aF29.000000014466956
aF10.359716245737062
asg15
(lp1937
g17
ag18
asg19
F0.7
sg20
(lp1938
g22
ag23
ag24
ag25
asg26
I01
sg27
g28
sg29
(lp1939
g31
ag32
ag33
ag34
ag35
asg36
g37
sg38
(lp1940
g40
ag41
asbsg42
(lp1941
F1.0
aF2.5
asg44
I58
sg45
g1198
sg46
I15
sa(dp1942
g5
F47.20464887073923
sg6
I1
sg7
I2
sg8
(iTFClasses
function
p1943
(dp1944
g11
(lp1945
F6.434563930815367
aF0.4712486896115138
aF0.23687802168098626
aF2.5670850390225475
aF1.3603184797386092
asg13
(lp1946
F278.0418554157116
aF42.61021235953505
aF7.421871836698402
aF38.11003119539828
aF5.997818850195347
asg15
(lp1947
g17
ag18
asg19
F0.7
sg20
(lp1948
g22
ag23
ag24
ag25
asg26
I01
sg27
g28
sg29
(lp1949
g31
ag32
ag33
ag34
ag35
asg36
g37
sg38
(lp1950
g40
ag41
asbsg42
(lp1951
F1.0
aF2.5
asg44
I58
sg45
g1198
sg46
I16
sa(dp1952
g5
F48.09068381728929
sg6
I1
sg7
I2
sg8
(iTFClasses
function
p1953
(dp1954
g11
(lp1955
F14.248340754483023
aF0.21456318853399736
aF0.16216276190844647
aF0.5551593393323913
aF0.4220950188715822
asg13
(lp1956
F351.1599680351188
aF40.87172271305239
aF5.7796602611625
aF50.496399447092216
aF1.2500847171331708
asg15
(lp1957
g17
ag18
asg19
F0.7
sg20
(lp1958
g22
ag23
ag24
ag25
asg26
I01
sg27
g28
sg29
(lp1959
g31
ag32
ag33
ag34
ag35
asg36
g37
sg38
(lp1960
g40
ag41
asbsg42
(lp1961
F1.0
aF2.5
asg44
I58
sg45
g1198
sg46
I17
sa(dp1962
g5
F48.97550568077851
sg6
I1
sg7
I2
sg8
(iTFClasses
function
p1963
(dp1964
g11
(lp1965
F5.878652824820696
aF0.43278608939051466
aF0.2653246443948265
aF1.8959558043261673
aF1.2571052282986384
asg13
(lp1966
F277.1278462469247
aF43.77390557802316
aF7.463229045007402
aF40.7211680230616
aF6.418742058711846
asg15
(lp1967
g17
ag18
asg19
F0.7
sg20
(lp1968
g22
ag23
ag24
ag25
asg26
I01
sg27
g28
sg29
(lp1969
g31
ag32
ag33
ag34
ag35
asg36
g37
sg38
(lp1970
g40
ag41
asbsg42
(lp1971
F1.0
aF2.5
asg44
I58
sg45
g1198
sg46
I18
sa(dp1972
g5
F49.87707799401198
sg6
I1
sg7
I2
sg8
(iTFClasses
function
p1973
(dp1974
g11
(lp1975
F9.69292308017382
aF0.3532056533682244
aF0.17240561183645697
aF0.8099307993185931
aF0.48241214334682203
asg13
(lp1976
F305.1714708685301
aF42.61217365060085
aF6.962120367652425
aF50.29045191225439
aF2.411842856019364
asg15
(lp1977
g17
ag18
asg19
F0.7
sg20
(lp1978
g22
ag23
ag24
ag25
asg26
I01
sg27
g28
sg29
(lp1979
g31
ag32
ag33
ag34
ag35
asg36
g37
sg38
(lp1980
g40
ag41
asbsg42
(lp1981
F1.0
aF2.5
asg44
I58
sg45
g1198
sg46
I19
sa(dp1982
g5
F50.78835454317897
sg6
I1
sg7
I2
sg8
(iTFClasses
function
p1983
(dp1984
g11
(lp1985
F5.294145290476584
aF0.5004667519614614
aF0.26654369384232535
aF1.8625969223066896
aF1.1080772933153016
asg13
(lp1986
F271.4463570308506
aF45.154689560341836
aF8.10003530019876
aF42.66566221286454
aF5.479418743002062
asg15
(lp1987
g17
ag18
asg19
F0.7
sg20
(lp1988
g22
ag23
ag24
ag25
asg26
I01
sg27
g28
sg29
(lp1989
g31
ag32
ag33
ag34
ag35
asg36
g37
sg38
(lp1990
g40
ag41
asbsg42
(lp1991
F1.0
aF2.5
asg44
I58
sg45
g1198
sg46
I20
sa(dp1992
g5
F51.711398852581695
sg6
I1
sg7
I2
sg8
(iTFClasses
function
p1993
(dp1994
g11
(lp1995
F5.977691510251422
aF0.45494577489820287
aF0.19019168555883814
aF1.0622653819027157
aF0.7113920287057374
asg13
(lp1996
F278.3154281743884
aF44.66648856042922
aF7.976121730991714
aF48.93612316200418
aF3.5157225118603863
asg15
(lp1997
g17
ag18
asg19
F0.7
sg20
(lp1998
g22
ag23
ag24
ag25
asg26
I01
sg27
g28
sg29
(lp1999
g31
ag32
ag33
ag34
ag35
asg36
g37
sg38
(lp2000
g40
ag41
asbsg42
(lp2001
F1.0
aF2.5
asg44
I58
sg45
g1198
sg46
I21
sa(dp2002
g5
F52.64383996676361
sg6
I1
sg7
I2
sg8
(iTFClasses
function
p2003
(dp2004
g11
(lp2005
F6.176289432176034
aF0.3380025336354038
aF0.23801749864776856
aF1.6383230396045292
aF0.9203340700103535
asg13
(lp2006
F280.3951070620667
aF47.32838890594142
aF7.8941864768367065
aF40.954699882585
aF7.37366239042847
asg15
(lp2007
g17
ag18
asg19
F0.7
sg20
(lp2008
g22
ag23
ag24
ag25
asg26
I01
sg27
g28
sg29
(lp2009
g31
ag32
ag33
ag34
ag35
asg36
g37
sg38
(lp2010
g40
ag41
asbsg42
(lp2011
F1.0
aF2.5
asg44
I58
sg45
g1198
sg46
I22
sa(dp2012
g5
F53.587143464894055
sg6
I1
sg7
I2
sg8
(iTFClasses
function
p2013
(dp2014
g11
(lp2015
F5.0087523357821215
aF0.5321741901176757
aF0.25395476281864227
aF1.2420487822566741
aF0.898005160135662
asg13
(lp2016
F274.29065102754765
aF46.64520889681693
aF8.439750769902222
aF48.74388053637989
aF3.204375509131885
asg15
(lp2017
g17
ag18
asg19
F0.7
sg20
(lp2018
g22
ag23
ag24
ag25
asg26
I01
sg27
g28
sg29
(lp2019
g31
ag32
ag33
ag34
ag35
asg36
g37
sg38
(lp2020
g40
ag41
asbsg42
(lp2021
F1.0
aF2.5
asg44
I58
sg45
g1198
sg46
I23
sa(dp2022
g5
F54.54744618587608
sg6
I1
sg7
I2
sg8
(iTFClasses
function
p2023
(dp2024
g11
(lp2025
F5.335513672582186
aF0.3867399091186492
aF0.2512485793728647
aF1.315604592743771
aF0.8589866269864133
asg13
(lp2026
F271.121858551349
aF48.251908613802485
aF8.261200276173607
aF45.13271460295615
aF6.690663167094879
asg15
(lp2027
g17
ag18
asg19
F0.7
sg20
(lp2028
g22
ag23
ag24
ag25
asg26
I01
sg27
g28
sg29
(lp2029
g31
ag32
ag33
ag34
ag35
asg36
g37
sg38
(lp2030
g40
ag41
asbsg42
(lp2031
F1.0
aF2.5
asg44
I58
sg45
g1198
sg46
I24
sa(dp2032
g5
F55.53649593726537
sg6
I1
sg7
I2
sg8
(iTFClasses
function
p2033
(dp2034
g11
(lp2035
F5.018015950033064
aF0.5598811337980685
aF0.25670653944609434
aF1.260201325201571
aF0.8886912224726484
asg13
(lp2036
F273.2654499167154
aF48.230808182675716
aF8.921694925943857
aF50.88315172701762
aF3.047823773035363
asg15
(lp2037
g17
ag18
asg19
F0.7
sg20
(lp2038
g22
ag23
ag24
ag25
asg26
I01
sg27
g28
sg29
(lp2039
g31
ag32
ag33
ag34
ag35
asg36
g37
sg38
(lp2040
g40
ag41
asbsg42
(lp2041
F1.0
aF2.5
asg44
I58
sg45
g1198
sg46
I25
sa(dp2042
g5
F56.547975018648984
sg6
I1
sg7
I2
sg8
(iTFClasses
function
p2043
(dp2044
g11
(lp2045
F5.920782606263165
aF0.32873833575285616
aF0.26595568628545774
aF1.6457235578879796
aF0.9573621598591431
asg13
(lp2046
F264.18996296768245
aF51.35051401240301
aF8.88556276772945
aF42.050151909479894
aF8.48997530646811
asg15
(lp2047
g17
ag18
asg19
F0.7
sg20
(lp2048
g22
ag23
ag24
ag25
asg26
I01
sg27
g28
sg29
(lp2049
g31
ag32
ag33
ag34
ag35
asg36
g37
sg38
(lp2050
g40
ag41
asbsg42
(lp2051
F1.0
aF2.5
asg44
I58
sg45
g1198
sg46
I26
sa(dp2052
g5
F57.57301095547774
sg6
I1
sg7
I2
sg8
(iTFClasses
function
p2053
(dp2054
g11
(lp2055
F6.224852591667806
aF0.5379525514307133
aF0.1990727586789749
aF1.169992642054666
aF0.7205831361745685
asg13
(lp2056
F280.1756583751974
aF49.65239744840733
aF9.097140604216513
aF54.59197265333475
aF2.0938236907677155
asg15
(lp2057
g17
ag18
asg19
F0.7
sg20
(lp2058
g22
ag23
ag24
ag25
asg26
I01
sg27
g28
sg29
(lp2059
g31
ag32
ag33
ag34
ag35
asg36
g37
sg38
(lp2060
g40
ag41
asbsg42
(lp2061
F1.0
aF2.5
asg44
I58
sg45
g1198
sg46
I27
sa(dp2062
g5
F58.62238444481494
sg6
I1
sg7
I2
sg8
(iTFClasses
function
p2063
(dp2064
g11
(lp2065
F5.465419867425725
aF0.3378551898329931
aF0.26233577746770376
aF1.016244677385032
aF0.7526918121724124
asg13
(lp2066
F273.7742121765747
aF52.35527396005783
aF8.82091127124518
aF46.714608920213394
aF6.9582204400504555
asg15
(lp2067
g17
ag18
asg19
F0.7
sg20
(lp2068
g22
ag23
ag24
ag25
asg26
I01
sg27
g28
sg29
(lp2069
g31
ag32
ag33
ag34
ag35
asg36
g37
sg38
(lp2070
g40
ag41
asbsg42
(lp2071
F1.0
aF2.5
asg44
I58
sg45
g1198
sg46
I28
sa(dp2072
g5
F59.71344458662235
sg6
I1
sg7
I2
sg8
(iTFClasses
function
p2073
(dp2074
g11
(lp2075
F6.905653720294212
aF0.7557416702009299
aF0.2298391621112792
aF1.7044262159056345
aF0.8746220316446784
asg13
(lp2076
F270.7836883588341
aF51.30848234675133
aF9.971751699849207
aF56.1021404905452
aF1.5466152095092722
asg15
(lp2077
g17
ag18
asg19
F0.7
sg20
(lp2078
g22
ag23
ag24
ag25
asg26
I01
sg27
g28
sg29
(lp2079
g31
ag32
ag33
ag34
ag35
asg36
g37
sg38
(lp2080
g40
ag41
asbsg42
(lp2081
F1.0
aF2.5
asg44
I58
sg45
g1198
sg46
I29
sa(dp2082
g5
F60.82795767759109
sg6
I1
sg7
I2
sg8
(iTFClasses
function
p2083
(dp2084
g11
(lp2085
F5.110755095038966
aF0.4081747969070513
aF0.29948862735512716
aF0.9475796015864262
aF0.8063928807930942
asg13
(lp2086
F270.9124926241947
aF53.84888355327165
aF9.559894195854678
aF50.931702643361085
aF5.410716721535591
asg15
(lp2087
g17
ag18
asg19
F0.7
sg20
(lp2088
g22
ag23
ag24
ag25
asg26
I01
sg27
g28
sg29
(lp2089
g31
ag32
ag33
ag34
ag35
asg36
g37
sg38
(lp2090
g40
ag41
asbsg42
(lp2091
F1.0
aF2.5
asg44
I58
sg45
g1198
sg46
I30
sa(dp2092
g5
F61.98582296802132
sg6
I1
sg7
I2
sg8
(iTFClasses
function
p2093
(dp2094
g11
(lp2095
F5.451371883118575
aF0.29202199409637686
aF0.23210061007855565
aF0.9173142577825537
aF0.7008881158761531
asg13
(lp2096
F279.06160924896966
aF56.02770940986021
aF8.822776071181536
aF46.650504180599285
aF8.285578429717555
asg15
(lp2097
g17
ag18
asg19
F0.7
sg20
(lp2098
g22
ag23
ag24
ag25
asg26
I01
sg27
g28
sg29
(lp2099
g31
ag32
ag33
ag34
ag35
asg36
g37
sg38
(lp2100
g40
ag41
asbsg42
(lp2101
F1.0
aF2.5
asg44
I58
sg45
g1198
sg46
I31
sa(dp2102
g5
F63.16921091452779
sg6
I1
sg7
I2
sg8
(iTFClasses
function
p2103
(dp2104
g11
(lp2105
F5.106786414685793
aF0.37147131828900726
aF0.2886701815713604
aF0.8255305935020338
aF0.7418824189977524
asg13
(lp2106
F265.60995415425555
aF56.120679139420005
aF9.744832929857616
aF52.1021427754955
aF6.644459464685948
asg15
(lp2107
g17
ag18
asg19
F0.7
sg20
(lp2108
g22
ag23
ag24
ag25
asg26
I01
sg27
g28
sg29
(lp2109
g31
ag32
ag33
ag34
ag35
asg36
g37
sg38
(lp2110
g40
ag41
asbsg42
(lp2111
F1.0
aF2.5
asg44
I58
sg45
g1198
sg46
I32
sa(dp2112
g5
F64.40060068242343
sg6
I1
sg7
I2
sg8
(iTFClasses
function
p2113
(dp2114
g11
(lp2115
F5.56872695343824
aF0.2820233931129188
aF0.24003783792841915
aF0.7552672953899489
aF0.6407747658416225
asg13
(lp2116
F286.8620422125306
aF58.4537335424933
aF8.934838205333918
aF49.09038977884572
aF8.484945569123937
asg15
(lp2117
g17
ag18
asg19
F0.7
sg20
(lp2118
g22
ag23
ag24
ag25
asg26
I01
sg27
g28
sg29
(lp2119
g31
ag32
ag33
ag34
ag35
asg36
g37
sg38
(lp2120
g40
ag41
asbsg42
(lp2121
F1.0
aF2.5
asg44
I58
sg45
g1198
sg46
I33
sa(dp2122
g5
F65.68551595408418
sg6
I1
sg7
I2
sg8
(iTFClasses
function
p2123
(dp2124
g11
(lp2125
F5.449840221780562
aF0.3937588249288204
aF0.31302027486113104
aF0.7469076555006104
aF0.7532234287980777
asg13
(lp2126
F274.95740672924813
aF58.66730892091004
aF9.971772183278716
aF54.00762393886497
aF5.354201828511651
asg15
(lp2127
g17
ag18
asg19
F0.7
sg20
(lp2128
g22
ag23
ag24
ag25
asg26
I01
sg27
g28
sg29
(lp2129
g31
ag32
ag33
ag34
ag35
asg36
g37
sg38
(lp2130
g40
ag41
asbsg42
(lp2131
F1.0
aF2.5
asg44
I58
sg45
g1198
sg46
I34
sa(dp2132
g5
F67.02844125
sg6
I1
sg7
I2
sg8
(iTFClasses
function
p2133
(dp2134
g11
(lp2135
F5.536006156146889
aF0.2900331863176149
aF0.2410346294275394
aF0.6703986918236602
aF0.5924339312758375
asg13
(lp2136
F286.99587528766455
aF60.93579645494757
aF9.130856757098794
aF52.51124692561304
aF8.639477113059456
asg15
(lp2137
g17
ag18
asg19
F0.7
sg20
(lp2138
g22
ag23
ag24
ag25
asg26
I01
sg27
g28
sg29
(lp2139
g31
ag32
ag33
ag34
ag35
asg36
g37
sg38
(lp2140
g40
ag41
asbsg42
(lp2141
F1.0
aF2.5
asg44
I58
sg45
g1198
sg46
I35
sa(dp2142
g5
F68.436749402787
sg6
I1
sg7
I2
sg8
(iTFClasses
function
p2143
(dp2144
g11
(lp2145
F5.710290278824877
aF0.3242333259264427
aF0.2908748555193741
aF0.622677054855238
aF0.597394531243467
asg13
(lp2146
F279.05127558103067
aF61.61053626479543
aF9.708776596640822
aF55.398336623674
aF7.327022759228363
asg15
(lp2147
g17
ag18
asg19
F0.7
sg20
(lp2148
g22
ag23
ag24
ag25
asg26
I01
sg27
g28
sg29
(lp2149
g31
ag32
ag33
ag34
ag35
asg36
g37
sg38
(lp2150
g40
ag41
asbsg42
(lp2151
F1.0
aF2.5
asg44
I58
sg45
g1198
sg46
I36
sa(dp2152
g5
F69.8812895315886
sg6
I1
sg7
I2
sg8
(iTFClasses
function
p2153
(dp2154
g11
(lp2155
F5.562456313096886
aF0.309542611616223
aF0.26776040535753065
aF0.6559375398285425
aF0.5842307481799263
asg13
(lp2156
F285.4660149614759
aF63.20755688138401
aF9.80905065651827
aF55.504680816988056
aF8.459173533886478
asg15
(lp2157
g17
ag18
asg19
F0.7
sg20
(lp2158
g22
ag23
ag24
ag25
asg26
I01
sg27
g28
sg29
(lp2159
g31
ag32
ag33
ag34
ag35
asg36
g37
sg38
(lp2160
g40
ag41
asbsg42
(lp2161
F1.0
aF2.5
asg44
I58
sg45
g1198
sg46
I37
sa(dp2162
g5
F71.39828140327542
sg6
I1
sg7
I2
sg8
(iTFClasses
function
p2163
(dp2164
g11
(lp2165
F5.501740094329138
aF0.3721544501611973
aF0.29406156796729555
aF0.7038469071793436
aF0.6988762671087945
asg13
(lp2166
F282.7793208880885
aF64.0574525124761
aF10.347429410622055
aF57.07531274131007
aF6.312483548025716
asg15
(lp2167
g17
ag18
asg19
F0.7
sg20
(lp2168
g22
ag23
ag24
ag25
asg26
I01
sg27
g28
sg29
(lp2169
g31
ag32
ag33
ag34
ag35
asg36
g37
sg38
(lp2170
g40
ag41
asbsg42
(lp2171
F1.0
aF2.5
asg44
I58
sg45
g1198
sg46
I38
sa(dp2172
g5
F72.98492084305232
sg6
I1
sg7
I2
sg8
(iTFClasses
function
p2173
(dp2174
g11
(lp2175
F5.515953191789847
aF0.3255994325344673
aF0.2706005926320083
aF0.6275412824802444
aF0.5607348725074623
asg13
(lp2176
F284.11863023399354
aF65.21813393135045
aF10.068816371010092
aF59.220355290445454
aF8.378431746265068
asg15
(lp2177
g17
ag18
asg19
F0.7
sg20
(lp2178
g22
ag23
ag24
ag25
asg26
I01
sg27
g28
sg29
(lp2179
g31
ag32
ag33
ag34
ag35
asg36
g37
sg38
(lp2180
g40
ag41
asbsg42
(lp2181
F1.0
aF2.5
asg44
I58
sg45
g1198
sg46
I39
sa(dp2182
g5
F74.64816423764022
sg6
I1
sg7
I2
sg8
(iTFClasses
function
p2183
(dp2184
g11
(lp2185
F5.768668644841572
aF0.5611179780462692
aF0.34140036110408367
aF1.1755583156372111
aF1.030879317955813
asg13
(lp2186
F283.8667921333526
aF67.32369851388286
aF11.122208457151284
aF60.24861586322423
aF5.18659294977597
asg15
(lp2187
g17
ag18
asg19
F0.7
sg20
(lp2188
g22
ag23
ag24
ag25
asg26
I01
sg27
g28
sg29
(lp2189
g31
ag32
ag33
ag34
ag35
asg36
g37
sg38
(lp2190
g40
ag41
asbsg42
(lp2191
F1.0
aF2.5
asg44
I58
sg45
g1198
sg46
I40
sa(dp2192
g5
F76.40558494051086
sg6
I1
sg7
I2
sg8
(iTFClasses
function
p2193
(dp2194
g11
(lp2195
F5.699205647518663
aF0.3423370320903345
aF0.29015472307669654
aF0.6200975855913917
aF0.5727179782239467
asg13
(lp2196
F288.3205250182425
aF68.71651102022858
aF10.544236718341926
aF61.702608614183085
aF8.04566289890063
asg15
(lp2197
g17
ag18
asg19
F0.7
sg20
(lp2198
g22
ag23
ag24
ag25
asg26
I01
sg27
g28
sg29
(lp2199
g31
ag32
ag33
ag34
ag35
asg36
g37
sg38
(lp2200
g40
ag41
asbsg42
(lp2201
F1.0
aF2.5
asg44
I58
sg45
g1198
sg46
I41
sa(dp2202
g5
F78.2706876477443
sg6
I1
sg7
I2
sg8
(iTFClasses
function
p2203
(dp2204
g11
(lp2205
F5.550728987200473
aF0.34644150941284124
aF0.2833030661862903
aF0.6542131871612717
aF0.6069628163026253
asg13
(lp2206
F287.82475184900966
aF70.60363410952596
aF10.773039863495427
aF62.087290274089234
aF8.448580771432512
asg15
(lp2207
g17
ag18
asg19
F0.7
sg20
(lp2208
g22
ag23
ag24
ag25
asg26
I01
sg27
g28
sg29
(lp2209
g31
ag32
ag33
ag34
ag35
asg36
g37
sg38
(lp2210
g40
ag41
asbsg42
(lp2211
F1.0
aF2.5
asg44
I58
sg45
g1198
sg46
I42
sa(dp2212
g5
F80.29282320359282
sg6
I1
sg7
I2
sg8
(iTFClasses
function
p2213
(dp2214
g11
(lp2215
F5.716610774051034
aF0.3374060239197547
aF0.28864560915820014
aF0.6158977534129519
aF0.5572622418150157
asg13
(lp2216
F293.97874125864115
aF72.84546936942024
aF10.855687115312485
aF64.71700406623742
aF8.186418094585424
asg15
(lp2217
g17
ag18
asg19
F0.7
sg20
(lp2218
g22
ag23
ag24
ag25
asg26
I01
sg27
g28
sg29
(lp2219
g31
ag32
ag33
ag34
ag35
asg36
g37
sg38
(lp2220
g40
ag41
asbsg42
(lp2221
F1.0
aF2.5
asg44
I58
sg45
g1198
sg46
I43
sa(dp2222
g5
F82.44116685552407
sg6
I1
sg7
I2
sg8
(iTFClasses
function
p2223
(dp2224
g11
(lp2225
F9.11474410021123
aF0.2709223041573239
aF0.2581052962293269
aF0.8211628794873818
aF0.460654863417842
asg13
(lp2226
F327.6302451086456
aF77.35556428118836
aF11.293027352484275
aF58.633402918863446
aF1.1213196131897307
asg15
(lp2227
g17
ag18
asg19
F0.7
sg20
(lp2228
g22
ag23
ag24
ag25
asg26
I01
sg27
g28
sg29
(lp2229
g31
ag32
ag33
ag34
ag35
asg36
g37
sg38
(lp2230
g40
ag41
asbsg42
(lp2231
F1.0
aF2.5
asg44
I58
sg45
g1198
sg46
I44
sa(dp2232
g5
F84.78908642548956
sg6
I1
sg7
I2
sg8
(iTFClasses
function
p2233
(dp2234
g11
(lp2235
F5.867615022991008
aF0.3792159080064792
aF0.3002854461058302
aF0.671186387388218
aF0.6102167933601526
asg13
(lp2236
F301.92737598493517
aF76.26781763426266
aF11.337532867720878
aF68.40864740563123
aF8.019067932884205
asg15
(lp2237
g17
ag18
asg19
F0.7
sg20
(lp2238
g22
ag23
ag24
ag25
asg26
I01
sg27
g28
sg29
(lp2239
g31
ag32
ag33
ag34
ag35
asg36
g37
sg38
(lp2240
g40
ag41
asbsg42
(lp2241
F1.0
aF2.5
asg44
I58
sg45
g1198
sg46
I45
sa(dp2242
g5
F87.293791995998
sg6
I1
sg7
I2
sg8
(iTFClasses
function
p2243
(dp2244
g11
(lp2245
F5.965331554113568
aF0.35404329535344203
aF0.3014575800525119
aF0.6466907381685303
aF0.5898048623681484
asg13
(lp2246
F307.63174790408294
aF79.18988870918845
aF11.39160478315915
aF69.52386004927581
aF8.576528717533893
asg15
(lp2247
g17
ag18
asg19
F0.7
sg20
(lp2248
g22
ag23
ag24
ag25
asg26
I01
sg27
g28
sg29
(lp2249
g31
ag32
ag33
ag34
ag35
asg36
g37
sg38
(lp2250
g40
ag41
asbsg42
(lp2251
F1.0
aF2.5
asg44
I58
sg45
g1198
sg46
I46
sa(dp2252
g5
F90.06699209650583
sg6
I1
sg7
I2
sg8
(iTFClasses
function
p2253
(dp2254
g11
(lp2255
F5.890759325792749
aF0.3761974561070218
aF0.30605138460210135
aF0.6617141918634815
aF0.5952046581618742
asg13
(lp2256
F299.76758782043834
aF81.14317371539445
aF11.631456549961339
aF71.96609363489968
aF9.295378303380787
asg15
(lp2257
g17
ag18
asg19
F0.7
sg20
(lp2258
g22
ag23
ag24
ag25
asg26
I01
sg27
g28
sg29
(lp2259
g31
ag32
ag33
ag34
ag35
asg36
g37
sg38
(lp2260
g40
ag41
asbsg42
(lp2261
F1.0
aF2.5
asg44
I58
sg45
g1198
sg46
I47
sa(dp2262
g5
F93.11531191942734
sg6
I1
sg7
I2
sg8
(iTFClasses
function
p2263
(dp2264
g11
(lp2265
F6.191270918083229
aF0.3437798043224376
aF0.28296195450877626
aF0.6169218189389625
aF0.5405608546824592
asg13
(lp2266
F319.09064157445897
aF84.63180795122344
aF11.099477953087412
aF74.3571977522424
aF10.121847525315864
asg15
(lp2267
g17
ag18
asg19
F0.7
sg20
(lp2268
g22
ag23
ag24
ag25
asg26
I01
sg27
g28
sg29
(lp2269
g31
ag32
ag33
ag34
ag35
asg36
g37
sg38
(lp2270
g40
ag41
asbsg42
(lp2271
F1.0
aF2.5
asg44
I58
sg45
g1198
sg46
I48
sa(dp2272
g5
F96.51440901905316
sg6
I1
sg7
I2
sg8
(iTFClasses
function
p2273
(dp2274
g11
(lp2275
F6.216167999022183
aF0.34829257179056583
aF0.2901304929999178
aF0.5994800488766572
aF0.511071688293729
asg13
(lp2276
F317.82235504994907
aF87.21171488468454
aF11.401969327873406
aF78.52349046818875
aF11.164108436301557
asg15
(lp2277
g17
ag18
asg19
F0.7
sg20
(lp2278
g22
ag23
ag24
ag25
asg26
I01
sg27
g28
sg29
(lp2279
g31
ag32
ag33
ag34
ag35
asg36
g37
sg38
(lp2280
g40
ag41
asbsg42
(lp2281
F1.0
aF2.5
asg44
I58
sg45
g1198
sg46
I49
sa(dp2282
g5
F100.34118098802395
sg6
I1
sg7
I2
sg8
(iTFClasses
function
p2283
(dp2284
g11
(lp2285
F6.257347903032285
aF0.38956871352301903
aF0.3232984758994588
aF0.6779145940365652
aF0.5738128202495973
asg13
(lp2286
F314.6797304865859
aF91.23681738375531
aF12.169028713036267
aF81.19972325005583
aF10.998115661229658
asg15
(lp2287
g17
ag18
asg19
F0.7
sg20
(lp2288
g22
ag23
ag24
ag25
asg26
I01
sg27
g28
sg29
(lp2289
g31
ag32
ag33
ag34
ag35
asg36
g37
sg38
(lp2290
g40
ag41
asbsg42
(lp2291
F1.0
aF2.5
asg44
I58
sg45
g1198
sg46
I50
sa(dp2292
g5
F104.80545808383233
sg6
I1
sg7
I2
sg8
(iTFClasses
function
p2293
(dp2294
g11
(lp2295
F6.230587735294679
aF0.38648554128287316
aF0.30399228439259574
aF0.6782567186778721
aF0.5880487353694948
asg13
(lp2296
F324.2050523663005
aF96.41380508817795
aF12.31344937625889
aF84.78413826997792
aF10.68180778696548
asg15
(lp2297
g17
ag18
asg19
F0.7
sg20
(lp2298
g22
ag23
ag24
ag25
asg26
I01
sg27
g28
sg29
(lp2299
g31
ag32
ag33
ag34
ag35
asg36
g37
sg38
(lp2300
g40
ag41
asbsg42
(lp2301
F1.0
aF2.5
asg44
I58
sg45
g1198
sg46
I51
sa(dp2302
g5
F110.08193030227329
sg6
I1
sg7
I2
sg8
(iTFClasses
function
p2303
(dp2304
g11
(lp2305
F6.365101204275288
aF0.4236727580715751
aF0.3480167678456825
aF0.734428578665252
aF0.6358612847821572
asg13
(lp2306
F316.42949945154623
aF101.20460265119304
aF13.196725222918593
aF88.67363257493491
aF10.951225840159285
asg15
(lp2307
g17
ag18
asg19
F0.7
sg20
(lp2308
g22
ag23
ag24
ag25
asg26
I01
sg27
g28
sg29
(lp2309
g31
ag32
ag33
ag34
ag35
asg36
g37
sg38
(lp2310
g40
ag41
asbsg42
(lp2311
F1.0
aF2.5
asg44
I58
sg45
g1198
sg46
I52
sa(dp2312
g5
F116.40581486655026
sg6
I1
sg7
I2
sg8
(iTFClasses
function
p2313
(dp2314
g11
(lp2315
F6.457695922353789
aF0.41324164776612093
aF0.34414232791035815
aF0.6949013025513935
aF0.5849407155701929
asg13
(lp2316
F332.1044477067316
aF106.80273443447483
aF13.573158660493355
aF96.50440037238803
aF12.026325926709047
asg15
(lp2317
g17
ag18
asg19
F0.7
sg20
(lp2318
g22
ag23
ag24
ag25
asg26
I01
sg27
g28
sg29
(lp2319
g31
ag32
ag33
ag34
ag35
asg36
g37
sg38
(lp2320
g40
ag41
asbsg42
(lp2321
F1.0
aF2.5
asg44
I58
sg45
g1198
sg46
I53
sa(dp2322
g5
F124.4594265290838
sg6
I1
sg7
I2
sg8
(iTFClasses
function
p2323
(dp2324
g11
(lp2325
F6.461607983607349
aF0.4758545013818676
aF0.34438250944457494
aF0.8117412016967904
aF0.698055708929723
asg13
(lp2326
F339.07558274351754
aF115.2407444294739
aF14.555164748352055
aF102.62897565150536
aF10.60781047898185
asg15
(lp2327
g17
ag18
asg19
F0.7
sg20
(lp2328
g22
ag23
ag24
ag25
asg26
I01
sg27
g28
sg29
(lp2329
g31
ag32
ag33
ag34
ag35
asg36
g37
sg38
(lp2330
g40
ag41
asbsg42
(lp2331
F1.0
aF2.5
asg44
I58
sg45
g1198
sg46
I54
sa(dp2332
g5
F135.48274299267644
sg6
I1
sg7
I2
sg8
(iTFClasses
function
p2333
(dp2334
g11
(lp2335
F6.927491398241426
aF0.4443634155132372
aF0.3771378106391392
aF0.7645134152129955
aF0.6387919868852681
asg13
(lp2336
F350.6990133184028
aF126.2769785074603
aF14.64763532232527
aF112.60101417928134
aF14.46574104682452
asg15
(lp2337
g17
ag18
asg19
F0.7
sg20
(lp2338
g22
ag23
ag24
ag25
asg26
I01
sg27
g28
sg29
(lp2339
g31
ag32
ag33
ag34
ag35
asg36
g37
sg38
(lp2340
g40
ag41
asbsg42
(lp2341
F1.0
aF2.5
asg44
I58
sg45
g1198
sg46
I55
sa(dp2342
g5
F152.81970923460898
sg6
I1
sg7
I2
sg8
(iTFClasses
function
p2343
(dp2344
g11
(lp2345
F6.722460561720326
aF0.5392919804349816
aF0.4332540380668206
aF0.9031594592174841
aF0.7478099372613682
asg13
(lp2346
F346.1432516941537
aF143.13056903987442
aF17.529261847888165
aF128.211229176242
aF15.53445472445203
asg15
(lp2347
g17
ag18
asg19
F0.7
sg20
(lp2348
g22
ag23
ag24
ag25
asg26
I01
sg27
g28
sg29
(lp2349
g31
ag32
ag33
ag34
ag35
asg36
g37
sg38
(lp2350
g40
ag41
asbsg42
(lp2351
F1.0
aF2.5
asg44
I58
sg45
g1198
sg46
I56
sa(dp2352
g5
F199.35581351081532
sg6
I1
sg7
I2
sg8
(iTFClasses
function
p2353
(dp2354
g11
(lp2355
F8.925153421102182
aF0.823190967973531
aF0.8309312491746592
aF1.337392135069578
aF1.1629310035470297
asg13
(lp2356
F405.53833174290105
aF172.7991451723203
aF26.44355716103819
aF189.55589495333354
aF28.96492414446472
asg15
(lp2357
g17
ag18
asg19
F0.7
sg20
(lp2358
g22
ag23
ag24
ag25
asg26
I01
sg27
g28
sg29
(lp2359
g31
ag32
ag33
ag34
ag35
asg36
g37
sg38
(lp2360
g40
ag41
asbsg42
(lp2361
F1.0
aF2.5
asg44
I58
sg45
g1198
sg46
I57
saas.