(dp0
S'b'
p1
(lp2
(iTFClasses
TF
p3
(dp4
S'SingleBinFunc'
p5
(iTFClasses
function
p6
(dp7
S'DG_rel_weight'
p8
F0.7
sS'par_values'
p9
(lp10
F800.2704896051811
aF32.191355688343
aF1.2651750166065012
aF35.84151360775474
aF3.2721396142190162
asS'DG_mean'
p11
(lp12
S'[1]'
p13
aS'[3]'
p14
asS'par_errors'
p15
(lp16
F24.0269896002401
aF0.06938235977916563
aF0.0527647960916755
aF0.15170309301299767
aF0.1869615756910914
asS'par_limits'
p17
(lp18
(I1
F31.0
F2000.0
tp19
a(I2
F0.0
F2000.0
tp20
a(I3
F29.0
F2000.0
tp21
a(I4
F0.0
F2000.0
tp22
asS'Is_DG'
p23
I01
sS'str'
p24
S'[0]*(0.7*exp(-0.5*((x-([1]))/([2]))**2)+(1-0.7)*exp(-0.5*((x-([3]))/([2]+[4]))**2))'
p25
sS'par_initials'
p26
(lp27
S'0'
p28
aS'1.2*mean'
p29
aS'0.5*rms'
p30
aS'0.8*mean'
p31
aS'1.0*rms'
p32
asS'fitrange'
p33
(F30.0
F500.0
tp34
sS'DG_rms'
p35
(lp36
S'[2]'
p37
aS'[2]+[4]'
p38
asbsS'i_eta'
p39
I0
sS'particle'
p40
g1
sS'AcrossBinFuncs'
p41
(lp42
(iTFClasses
function
p43
(dp44
g15
(lp45
sg9
(lp46
sg17
(lp47
sg24
S'1'
p48
sg26
(lp49
sba(iTFClasses
function
p50
(dp51
g15
(lp52
F0.09707757821029007
aF0.00134332088893658
asg9
(lp53
F-1.7866975136607035
aF0.9138336319525107
asg17
(lp54
sg24
S'[0]+[1]*x'
p55
sg26
(lp56
S'0'
p57
ag48
asba(iTFClasses
function
p58
(dp59
g15
(lp60
F0.2772878326810434
aF0.015781957350094165
aF0.0014227137968065655
asg9
(lp61
F2.028164595001018e-06
aF0.6253507155482476
aF0.0947250546346858
asg17
(lp62
sg24
S'sqrt([0]*[0] + x*[1]*[1] + x*x*[2]*[2])'
p63
sg26
(lp64
g57
ag57
ag57
asba(iTFClasses
function
p65
(dp66
g15
(lp67
F0.2711402662602387
aF0.003386889487819775
asg9
(lp68
F0.8352367560053137
aF0.7282680620678621
asg17
(lp69
sg24
g55
sg26
(lp70
g57
ag48
asba(iTFClasses
function
p71
(dp72
g15
(lp73
F0.11793689410247934
aF0.019331352371932866
aF0.0009489323540432831
asg9
(lp74
F1.0776744268432379
aF-1.1498047179345325e-10
aF0.0330579587292671
asg17
(lp75
sg24
g63
sg26
(lp76
g57
ag57
ag57
asbasba(iTFClasses
TF
p77
(dp78
g5
(iTFClasses
function
p79
(dp80
g8
F0.7
sg9
(lp81
F432.6982980561618
aF31.951546314770155
aF3.4433281476292654
aF29.000000020801938
aF7.142374011789299
asg11
(lp82
g13
ag14
asg15
(lp83
F9.73082677681408
aF0.20186813705615414
aF0.2052817243211047
aF0.5655021460561542
aF0.2514194984198914
asg17
(lp84
g19
ag20
ag21
ag22
asg23
I01
sg24
g25
sg26
(lp85
g28
ag29
ag30
ag31
ag32
asg33
g34
sg35
(lp86
g37
ag38
asbsg39
I1
sg40
g1
sg41
(lp87
(iTFClasses
function
p88
(dp89
g15
(lp90
sg9
(lp91
sg17
(lp92
sg24
g48
sg26
(lp93
sba(iTFClasses
function
p94
(dp95
g15
(lp96
F0.13944922016520273
aF0.002052591435666299
asg9
(lp97
F-3.3580581759060704
aF0.9046859579291079
asg17
(lp98
sg24
g55
sg26
(lp99
g57
ag48
asba(iTFClasses
function
p100
(dp101
g15
(lp102
F0.551632212211954
aF0.020026965657527634
aF0.00218033935185381
asg9
(lp103
F6.859404465017914e-07
aF0.8634951052756986
aF0.10235562723667718
asg17
(lp104
sg24
g63
sg26
(lp105
g57
ag57
ag57
asba(iTFClasses
function
p106
(dp107
g15
(lp108
F0.5334130759335534
aF0.006547508246873165
asg9
(lp109
F7.653481028622657
aF0.6247511173412329
asg17
(lp110
sg24
g55
sg26
(lp111
g57
ag48
asba(iTFClasses
function
p112
(dp113
g15
(lp114
F0.08551793852843322
aF0.02776344131105986
aF0.0026932970736792687
asg9
(lp115
F4.508411568141082
aF-7.989079888421428e-12
aF0.0
asg17
(lp116
sg24
g63
sg26
(lp117
g57
ag57
ag57
asbasbasS'l'
p118
(lp119
(iTFClasses
TF
p120
(dp121
g5
(iTFClasses
function
p122
(dp123
g8
F0.7
sg9
(lp124
F874.0730840954434
aF32.14488774830722
aF1.1973579757144082
aF35.96214187983009
aF2.8646317425745638
asg11
(lp125
g13
ag14
asg15
(lp126
F27.335390146641135
aF0.07547446672833757
aF0.052548559572096476
aF0.11647314308002876
aF0.13931338151995654
asg17
(lp127
g19
ag20
ag21
ag22
asg23
I01
sg24
g25
sg26
(lp128
g28
ag29
ag30
ag31
ag32
asg33
g34
sg35
(lp129
g37
ag38
asbsg39
I0
sg40
g118
sg41
(lp130
(iTFClasses
function
p131
(dp132
g15
(lp133
sg9
(lp134
sg17
(lp135
sg24
g48
sg26
(lp136
sba(iTFClasses
function
p137
(dp138
g15
(lp139
F0.07550751502888067
aF0.001288330596471977
asg9
(lp140
F0.818016794007116
aF0.9043185706235923
asg17
(lp141
sg24
g55
sg26
(lp142
g57
ag48
asba(iTFClasses
function
p143
(dp144
g15
(lp145
F0.22581244792303923
aF0.015998406136811083
aF0.0012603141947578425
asg9
(lp146
F-2.8942827486268286e-06
aF0.4765158492675067
aF0.10070285473190559
asg17
(lp147
sg24
g63
sg26
(lp148
g57
ag57
ag57
asba(iTFClasses
function
p149
(dp150
g15
(lp151
F0.13236743325314185
aF0.0018311686676256759
asg9
(lp152
F2.5971900498638036
aF0.7940878037408543
asg17
(lp153
sg24
g55
sg26
(lp154
g57
ag48
asba(iTFClasses
function
p155
(dp156
g15
(lp157
F0.08730610495230551
aF0.06074430284493758
aF0.0015457889306009498
asg9
(lp158
F5.682158315676034
aF-1.161853075976474e-06
aF0.07697607633873475
asg17
(lp159
sg24
g63
sg26
(lp160
g57
ag57
ag57
asbasba(iTFClasses
TF
p161
(dp162
g5
(iTFClasses
function
p163
(dp164
g8
F0.7
sg9
(lp165
F449.0557162959019
aF31.00000000293704
aF4.251225425362382
aF29.000000000209305
aF6.446334833413392
asg11
(lp166
g13
ag14
asg15
(lp167
F8.61968320697926
aF0.42159972246321686
aF0.11812835793617582
aF0.17664829042545094
aF0.1938530217724388
asg17
(lp168
g19
ag20
ag21
ag22
asg23
I01
sg24
g25
sg26
(lp169
g28
ag29
ag30
ag31
ag32
asg33
g34
sg35
(lp170
g37
ag38
asbsg39
I1
sg40
g118
sg41
(lp171
(iTFClasses
function
p172
(dp173
g15
(lp174
sg9
(lp175
sg17
(lp176
sg24
g48
sg26
(lp177
sba(iTFClasses
function
p178
(dp179
g15
(lp180
F0.10584068680953322
aF0.0018048965716374325
asg9
(lp181
F0.37632366132590755
aF0.9037408186276937
asg17
(lp182
sg24
g55
sg26
(lp183
g57
ag48
asba(iTFClasses
function
p184
(dp185
g15
(lp186
F0.25815937001723205
aF0.03519894261888321
aF0.0016631184187127855
asg9
(lp187
F1.714772702052813e-07
aF0.35586088948327127
aF0.1264617065015599
asg17
(lp188
sg24
g63
sg26
(lp189
g57
ag57
ag57
asba(iTFClasses
function
p190
(dp191
g15
(lp192
F0.2624312748538697
aF0.003789337159328048
asg9
(lp193
F12.99758026022864
aF0.6671761545542535
asg17
(lp194
sg24
g55
sg26
(lp195
g57
ag48
asba(iTFClasses
function
p196
(dp197
g15
(lp198
F0.15163239347614305
aF0.14264020303427705
aF0.0020219555726748452
asg9
(lp199
F4.161710047110469
aF-6.932031343766312e-09
aF0.08635277814094217
asg17
(lp200
sg24
g63
sg26
(lp201
g57
ag57
ag57
asbasbas.